
minimalrust/target/release/minimalrust:	file format mach-o arm64

Disassembly of section __TEXT,__text:

0000000100001ad8 <__ZN3std2rt10lang_start28_$u7b$$u7b$closure$u7d$$u7d$17h56a88cb6dfc9b04aE>:
100001ad8: fd 7b bf a9 	stp	x29, x30, [sp, #-16]!
100001adc: fd 03 00 91 	mov	x29, sp
100001ae0: 00 00 40 f9 	ldr	x0, [x0]
100001ae4: 2c 00 00 94 	bl	0x100001b94 <__ZN3std10sys_common9backtrace28__rust_begin_short_backtrace17hc0f7204c86de77b4E>
100001ae8: 00 00 80 52 	mov	w0, #0
100001aec: fd 7b c1 a8 	ldp	x29, x30, [sp], #16
100001af0: c0 03 5f d6 	ret

0000000100001af4 <__ZN4core3ops8function6FnOnce40call_once$u7b$$u7b$vtable.shim$u7d$$u7d$17h65083f31f013c35eE>:
100001af4: fd 7b bf a9 	stp	x29, x30, [sp, #-16]!
100001af8: fd 03 00 91 	mov	x29, sp
100001afc: 00 00 40 f9 	ldr	x0, [x0]
100001b00: 25 00 00 94 	bl	0x100001b94 <__ZN3std10sys_common9backtrace28__rust_begin_short_backtrace17hc0f7204c86de77b4E>
100001b04: 00 00 80 52 	mov	w0, #0
100001b08: fd 7b c1 a8 	ldp	x29, x30, [sp], #16
100001b0c: c0 03 5f d6 	ret

0000000100001b10 <__ZN4core3ptr85drop_in_place$LT$std..rt..lang_start$LT$$LP$$RP$$GT$..$u7b$$u7b$closure$u7d$$u7d$$GT$17hb247b07f0d3230eaE>:
100001b10: c0 03 5f d6 	ret

0000000100001b14 <__ZN11minimalrust4main17h1ed4541b10317c05E>:
100001b14: ff 03 01 d1 	sub	sp, sp, #64
100001b18: fd 7b 03 a9 	stp	x29, x30, [sp, #48]
100001b1c: fd c3 00 91 	add	x29, sp, #48
100001b20: 48 39 1f 10 	adr	x8, #255784
100001b24: 1f 20 03 d5 	nop
100001b28: 29 00 80 52 	mov	w9, #1
100001b2c: e8 27 01 a9 	stp	x8, x9, [sp, #16]
100001b30: ff 03 00 f9 	str	xzr, [sp]
100001b34: 68 4c 18 10 	adr	x8, #199052
100001b38: 1f 20 03 d5 	nop
100001b3c: e8 7f 02 a9 	stp	x8, xzr, [sp, #32]
100001b40: e0 03 00 91 	mov	x0, sp
100001b44: b0 55 00 94 	bl	0x100017204 <__ZN3std2io5stdio6_print17hdf66a86f8ccb3187E>
100001b48: fd 7b 43 a9 	ldp	x29, x30, [sp, #48]
100001b4c: ff 03 01 91 	add	sp, sp, #64
100001b50: c0 03 5f d6 	ret

0000000100001b54 <_main>:
100001b54: ff 83 00 d1 	sub	sp, sp, #32
100001b58: fd 7b 01 a9 	stp	x29, x30, [sp, #16]
100001b5c: fd 43 00 91 	add	x29, sp, #16
100001b60: e3 03 01 aa 	mov	x3, x1
100001b64: 02 7c 40 93 	sxtw	x2, w0
100001b68: 68 fd ff 10 	adr	x8, #-84
100001b6c: 1f 20 03 d5 	nop
100001b70: e8 07 00 f9 	str	x8, [sp, #8]
100001b74: 21 35 1f 10 	adr	x1, #255652
100001b78: 1f 20 03 d5 	nop
100001b7c: e0 23 00 91 	add	x0, sp, #8
100001b80: 04 00 80 52 	mov	w4, #0
100001b84: 9e 4d 00 94 	bl	0x1000151fc <__ZN3std2rt19lang_start_internal17h91996717d3eb1d2aE>
100001b88: fd 7b 41 a9 	ldp	x29, x30, [sp, #16]
100001b8c: ff 83 00 91 	add	sp, sp, #32
100001b90: c0 03 5f d6 	ret

0000000100001b94 <__ZN3std10sys_common9backtrace28__rust_begin_short_backtrace17hc0f7204c86de77b4E>:
100001b94: fd 7b bf a9 	stp	x29, x30, [sp, #-16]!
100001b98: fd 03 00 91 	mov	x29, sp
100001b9c: 00 00 3f d6 	blr	x0
100001ba0: fd 7b c1 a8 	ldp	x29, x30, [sp], #16
100001ba4: c0 03 5f d6 	ret

0000000100001ba8 <___rust_alloc>:
100001ba8: 0f 62 00 14 	b	0x10001a3e4 <___rdl_alloc>

0000000100001bac <___rust_dealloc>:
100001bac: 29 62 00 14 	b	0x10001a450 <___rdl_dealloc>

0000000100001bb0 <___rust_realloc>:
100001bb0: 29 62 00 14 	b	0x10001a454 <___rdl_realloc>

0000000100001bb4 <___rust_alloc_error_handler>:
100001bb4: bc 6c 00 14 	b	0x10001cea4 <___rg_oom>

0000000100001bb8 <__ZN36_$LT$T$u20$as$u20$core..any..Any$GT$7type_id17h4eb66fb9f12af458E>:
100001bb8: 00 59 83 d2 	mov	x0, #6856
100001bbc: 00 3f b5 f2 	movk	x0, #43512, lsl #16
100001bc0: 80 86 cd f2 	movk	x0, #27700, lsl #32
100001bc4: e0 34 f1 f2 	movk	x0, #35239, lsl #48
100001bc8: c0 03 5f d6 	ret

0000000100001bcc <__ZN36_$LT$T$u20$as$u20$core..any..Any$GT$7type_id17hf042d0285abb1a45E>:
100001bcc: a0 b6 9e d2 	mov	x0, #62901
100001bd0: 40 b5 a9 f2 	movk	x0, #19882, lsl #16
100001bd4: 20 39 c6 f2 	movk	x0, #12745, lsl #32
100001bd8: 60 d3 e2 f2 	movk	x0, #5787, lsl #48
100001bdc: c0 03 5f d6 	ret

0000000100001be0 <__ZN36_$LT$T$u20$as$u20$core..any..Any$GT$7type_id17hfe87653bf5e5b0b3E>:
100001be0: c0 a0 9f d2 	mov	x0, #64774
100001be4: 00 59 ac f2 	movk	x0, #25288, lsl #16
100001be8: 60 13 d2 f2 	movk	x0, #37019, lsl #32
100001bec: a0 2d fb f2 	movk	x0, #55661, lsl #48
100001bf0: c0 03 5f d6 	ret

0000000100001bf4 <__ZN42_$LT$$RF$T$u20$as$u20$core..fmt..Debug$GT$3fmt17h0dccd5bc46ef0523E>:
100001bf4: f4 4f be a9 	stp	x20, x19, [sp, #-32]!
100001bf8: fd 7b 01 a9 	stp	x29, x30, [sp, #16]
100001bfc: fd 43 00 91 	add	x29, sp, #16
100001c00: f3 03 01 aa 	mov	x19, x1
100001c04: 14 00 40 f9 	ldr	x20, [x0]
100001c08: e0 03 01 aa 	mov	x0, x1
100001c0c: db a7 00 94 	bl	0x10002bb78 <__ZN4core3fmt9Formatter15debug_lower_hex17hbbdc9b3aad282737E>
100001c10: c0 00 00 36 	tbz	w0, #0, 0x100001c28 <__ZN42_$LT$$RF$T$u20$as$u20$core..fmt..Debug$GT$3fmt17h0dccd5bc46ef0523E+0x34>
100001c14: e0 03 14 aa 	mov	x0, x20
100001c18: e1 03 13 aa 	mov	x1, x19
100001c1c: fd 7b 41 a9 	ldp	x29, x30, [sp, #16]
100001c20: f4 4f c2 a8 	ldp	x20, x19, [sp], #32
100001c24: 26 b3 00 14 	b	0x10002e8bc <__ZN4core3fmt3num53_$LT$impl$u20$core..fmt..LowerHex$u20$for$u20$i32$GT$3fmt17hfd49f97f6782156bE>
100001c28: e0 03 13 aa 	mov	x0, x19
100001c2c: d6 a7 00 94 	bl	0x10002bb84 <__ZN4core3fmt9Formatter15debug_upper_hex17hb7e3c09856fed5a5E>
100001c30: c0 00 00 36 	tbz	w0, #0, 0x100001c48 <__ZN42_$LT$$RF$T$u20$as$u20$core..fmt..Debug$GT$3fmt17h0dccd5bc46ef0523E+0x54>
100001c34: e0 03 14 aa 	mov	x0, x20
100001c38: e1 03 13 aa 	mov	x1, x19
100001c3c: fd 7b 41 a9 	ldp	x29, x30, [sp, #16]
100001c40: f4 4f c2 a8 	ldp	x20, x19, [sp], #32
100001c44: 46 b3 00 14 	b	0x10002e95c <__ZN4core3fmt3num53_$LT$impl$u20$core..fmt..UpperHex$u20$for$u20$i32$GT$3fmt17hb9a8a17db12598aaE>
100001c48: e0 03 14 aa 	mov	x0, x20
100001c4c: e1 03 13 aa 	mov	x1, x19
100001c50: fd 7b 41 a9 	ldp	x29, x30, [sp, #16]
100001c54: f4 4f c2 a8 	ldp	x20, x19, [sp], #32
100001c58: 73 b4 00 14 	b	0x10002ee24 <__ZN4core3fmt3num3imp52_$LT$impl$u20$core..fmt..Display$u20$for$u20$i32$GT$3fmt17h7e0d89153652ca9bE>

0000000100001c5c <__ZN42_$LT$$RF$T$u20$as$u20$core..fmt..Debug$GT$3fmt17h297e112500569938E>:
100001c5c: e2 03 01 aa 	mov	x2, x1
100001c60: 08 04 40 a9 	ldp	x8, x1, [x0]
100001c64: e0 03 08 aa 	mov	x0, x8
100001c68: bf a8 00 14 	b	0x10002bf64 <__ZN40_$LT$str$u20$as$u20$core..fmt..Debug$GT$3fmt17hb9b275484375a9ecE>

0000000100001c6c <__ZN42_$LT$$RF$T$u20$as$u20$core..fmt..Debug$GT$3fmt17h4ff96cdb9fe333f3E>:
100001c6c: f4 4f be a9 	stp	x20, x19, [sp, #-32]!
100001c70: fd 7b 01 a9 	stp	x29, x30, [sp, #16]
100001c74: fd 43 00 91 	add	x29, sp, #16
100001c78: f3 03 01 aa 	mov	x19, x1
100001c7c: 14 00 40 f9 	ldr	x20, [x0]
100001c80: e0 03 01 aa 	mov	x0, x1
100001c84: bd a7 00 94 	bl	0x10002bb78 <__ZN4core3fmt9Formatter15debug_lower_hex17hbbdc9b3aad282737E>
100001c88: c0 00 00 36 	tbz	w0, #0, 0x100001ca0 <__ZN42_$LT$$RF$T$u20$as$u20$core..fmt..Debug$GT$3fmt17h4ff96cdb9fe333f3E+0x34>
100001c8c: e0 03 14 aa 	mov	x0, x20
100001c90: e1 03 13 aa 	mov	x1, x19
100001c94: fd 7b 41 a9 	ldp	x29, x30, [sp, #16]
100001c98: f4 4f c2 a8 	ldp	x20, x19, [sp], #32
100001c9c: 58 b3 00 14 	b	0x10002e9fc <__ZN4core3fmt3num55_$LT$impl$u20$core..fmt..LowerHex$u20$for$u20$usize$GT$3fmt17hc372aef83e64677eE>
100001ca0: e0 03 13 aa 	mov	x0, x19
100001ca4: b8 a7 00 94 	bl	0x10002bb84 <__ZN4core3fmt9Formatter15debug_upper_hex17hb7e3c09856fed5a5E>
100001ca8: c0 00 00 36 	tbz	w0, #0, 0x100001cc0 <__ZN42_$LT$$RF$T$u20$as$u20$core..fmt..Debug$GT$3fmt17h4ff96cdb9fe333f3E+0x54>
100001cac: e0 03 14 aa 	mov	x0, x20
100001cb0: e1 03 13 aa 	mov	x1, x19
100001cb4: fd 7b 41 a9 	ldp	x29, x30, [sp, #16]
100001cb8: f4 4f c2 a8 	ldp	x20, x19, [sp], #32
100001cbc: 78 b3 00 14 	b	0x10002ea9c <__ZN4core3fmt3num55_$LT$impl$u20$core..fmt..UpperHex$u20$for$u20$usize$GT$3fmt17h0460a8d8b59f634cE>
100001cc0: e0 03 14 aa 	mov	x0, x20
100001cc4: e1 03 13 aa 	mov	x1, x19
100001cc8: fd 7b 41 a9 	ldp	x29, x30, [sp, #16]
100001ccc: f4 4f c2 a8 	ldp	x20, x19, [sp], #32
100001cd0: 02 b5 00 14 	b	0x10002f0d8 <__ZN4core3fmt3num3imp54_$LT$impl$u20$core..fmt..Display$u20$for$u20$usize$GT$3fmt17h7ab0554b00ffee17E>

0000000100001cd4 <__ZN42_$LT$$RF$T$u20$as$u20$core..fmt..Debug$GT$3fmt17h731aa1bcd1b2876dE>:
100001cd4: 08 00 40 f9 	ldr	x8, [x0]
100001cd8: 00 21 40 a9 	ldp	x0, x8, [x8]
100001cdc: 02 0d 40 f9 	ldr	x2, [x8, #24]
100001ce0: 40 00 1f d6 	br	x2

0000000100001ce4 <__ZN42_$LT$$RF$T$u20$as$u20$core..fmt..Debug$GT$3fmt17hd22536370badcf94E>:
100001ce4: 08 00 40 f9 	ldr	x8, [x0]
100001ce8: 00 01 40 f9 	ldr	x0, [x8]
100001cec: 6a a0 00 14 	b	0x100029e94 <__ZN64_$LT$alloc..ffi..c_str..NulError$u20$as$u20$core..fmt..Debug$GT$3fmt17h7fe47c36522b824fE>

0000000100001cf0 <__ZN42_$LT$$RF$T$u20$as$u20$core..fmt..Debug$GT$3fmt17hfa4456484ab7e9d8E>:
100001cf0: e0 03 01 aa 	mov	x0, x1
100001cf4: 21 6a 18 50 	adr	x1, #200006
100001cf8: 1f 20 03 d5 	nop
100001cfc: 42 00 80 52 	mov	w2, #2
100001d00: 69 a6 00 14 	b	0x10002b6a4 <__ZN4core3fmt9Formatter3pad17he023bd3ddda82e0cE>

0000000100001d04 <__ZN44_$LT$$RF$T$u20$as$u20$core..fmt..Display$GT$3fmt17h0d0c8f2f9119f7b9E>:
100001d04: 00 00 40 f9 	ldr	x0, [x0]
100001d08: 9e a1 00 14 	b	0x10002a380 <__ZN70_$LT$core..panic..location..Location$u20$as$u20$core..fmt..Display$GT$3fmt17h9abe097a15f3c752E>

0000000100001d0c <__ZN44_$LT$$RF$T$u20$as$u20$core..fmt..Display$GT$3fmt17hdd2caa83228456afE>:
100001d0c: e2 03 01 aa 	mov	x2, x1
100001d10: 08 04 40 a9 	ldp	x8, x1, [x0]
100001d14: e0 03 08 aa 	mov	x0, x8
100001d18: ab a9 00 14 	b	0x10002c3c4 <__ZN42_$LT$str$u20$as$u20$core..fmt..Display$GT$3fmt17hfac95ca5e62ca992E>

0000000100001d1c <__ZN4core3fmt3num50_$LT$impl$u20$core..fmt..Debug$u20$for$u20$i32$GT$3fmt17h8d7d353438ccb88bE>:
100001d1c: f4 4f be a9 	stp	x20, x19, [sp, #-32]!
100001d20: fd 7b 01 a9 	stp	x29, x30, [sp, #16]
100001d24: fd 43 00 91 	add	x29, sp, #16
100001d28: f3 03 01 aa 	mov	x19, x1
100001d2c: f4 03 00 aa 	mov	x20, x0
100001d30: e0 03 01 aa 	mov	x0, x1
100001d34: 91 a7 00 94 	bl	0x10002bb78 <__ZN4core3fmt9Formatter15debug_lower_hex17hbbdc9b3aad282737E>
100001d38: c0 00 00 36 	tbz	w0, #0, 0x100001d50 <__ZN4core3fmt3num50_$LT$impl$u20$core..fmt..Debug$u20$for$u20$i32$GT$3fmt17h8d7d353438ccb88bE+0x34>
100001d3c: e0 03 14 aa 	mov	x0, x20
100001d40: e1 03 13 aa 	mov	x1, x19
100001d44: fd 7b 41 a9 	ldp	x29, x30, [sp, #16]
100001d48: f4 4f c2 a8 	ldp	x20, x19, [sp], #32
100001d4c: dc b2 00 14 	b	0x10002e8bc <__ZN4core3fmt3num53_$LT$impl$u20$core..fmt..LowerHex$u20$for$u20$i32$GT$3fmt17hfd49f97f6782156bE>
100001d50: e0 03 13 aa 	mov	x0, x19
100001d54: 8c a7 00 94 	bl	0x10002bb84 <__ZN4core3fmt9Formatter15debug_upper_hex17hb7e3c09856fed5a5E>
100001d58: c0 00 00 36 	tbz	w0, #0, 0x100001d70 <__ZN4core3fmt3num50_$LT$impl$u20$core..fmt..Debug$u20$for$u20$i32$GT$3fmt17h8d7d353438ccb88bE+0x54>
100001d5c: e0 03 14 aa 	mov	x0, x20
100001d60: e1 03 13 aa 	mov	x1, x19
100001d64: fd 7b 41 a9 	ldp	x29, x30, [sp, #16]
100001d68: f4 4f c2 a8 	ldp	x20, x19, [sp], #32
100001d6c: fc b2 00 14 	b	0x10002e95c <__ZN4core3fmt3num53_$LT$impl$u20$core..fmt..UpperHex$u20$for$u20$i32$GT$3fmt17hb9a8a17db12598aaE>
100001d70: e0 03 14 aa 	mov	x0, x20
100001d74: e1 03 13 aa 	mov	x1, x19
100001d78: fd 7b 41 a9 	ldp	x29, x30, [sp, #16]
100001d7c: f4 4f c2 a8 	ldp	x20, x19, [sp], #32
100001d80: 29 b4 00 14 	b	0x10002ee24 <__ZN4core3fmt3num3imp52_$LT$impl$u20$core..fmt..Display$u20$for$u20$i32$GT$3fmt17h7e0d89153652ca9bE>

0000000100001d84 <__ZN4core3fmt5Write10write_char17h0d172b89de7f5acfE>:
100001d84: ff 03 01 d1 	sub	sp, sp, #64
100001d88: f6 57 01 a9 	stp	x22, x21, [sp, #16]
100001d8c: f4 4f 02 a9 	stp	x20, x19, [sp, #32]
100001d90: fd 7b 03 a9 	stp	x29, x30, [sp, #48]
100001d94: fd c3 00 91 	add	x29, sp, #48
100001d98: ff 0f 00 b9 	str	wzr, [sp, #12]
100001d9c: 3f 00 02 71 	cmp	w1, #128
100001da0: 82 00 00 54 	b.hs	0x100001db0 <__ZN4core3fmt5Write10write_char17h0d172b89de7f5acfE+0x2c>
100001da4: e1 33 00 39 	strb	w1, [sp, #12]
100001da8: 33 00 80 52 	mov	w19, #1
100001dac: 25 00 00 14 	b	0x100001e40 <__ZN4core3fmt5Write10write_char17h0d172b89de7f5acfE+0xbc>
100001db0: 3f 00 20 71 	cmp	w1, #2048
100001db4: 22 01 00 54 	b.hs	0x100001dd8 <__ZN4core3fmt5Write10write_char17h0d172b89de7f5acfE+0x54>
100001db8: 28 7c 06 53 	lsr	w8, w1, #6
100001dbc: 08 05 1a 32 	orr	w8, w8, #0xc0
100001dc0: e8 33 00 39 	strb	w8, [sp, #12]
100001dc4: 08 10 80 52 	mov	w8, #128
100001dc8: 28 14 00 33 	bfxil	w8, w1, #0, #6
100001dcc: e8 37 00 39 	strb	w8, [sp, #13]
100001dd0: 53 00 80 52 	mov	w19, #2
100001dd4: 1b 00 00 14 	b	0x100001e40 <__ZN4core3fmt5Write10write_char17h0d172b89de7f5acfE+0xbc>
100001dd8: 3f 40 40 71 	cmp	w1, #16, lsl #12        ; =65536
100001ddc: 82 01 00 54 	b.hs	0x100001e0c <__ZN4core3fmt5Write10write_char17h0d172b89de7f5acfE+0x88>
100001de0: 28 7c 0c 53 	lsr	w8, w1, #12
100001de4: 08 09 1b 32 	orr	w8, w8, #0xe0
100001de8: e8 33 00 39 	strb	w8, [sp, #12]
100001dec: 08 10 80 52 	mov	w8, #128
100001df0: 09 10 80 52 	mov	w9, #128
100001df4: 29 2c 06 33 	bfxil	w9, w1, #6, #6
100001df8: e9 37 00 39 	strb	w9, [sp, #13]
100001dfc: 28 14 00 33 	bfxil	w8, w1, #0, #6
100001e00: e8 3b 00 39 	strb	w8, [sp, #14]
100001e04: 73 00 80 52 	mov	w19, #3
100001e08: 0e 00 00 14 	b	0x100001e40 <__ZN4core3fmt5Write10write_char17h0d172b89de7f5acfE+0xbc>
100001e0c: 08 1e 80 52 	mov	w8, #240
100001e10: 28 50 12 33 	bfxil	w8, w1, #18, #3
100001e14: e8 33 00 39 	strb	w8, [sp, #12]
100001e18: 08 10 80 52 	mov	w8, #128
100001e1c: 09 10 80 52 	mov	w9, #128
100001e20: 29 44 0c 33 	bfxil	w9, w1, #12, #6
100001e24: e9 37 00 39 	strb	w9, [sp, #13]
100001e28: 09 10 80 52 	mov	w9, #128
100001e2c: 29 2c 06 33 	bfxil	w9, w1, #6, #6
100001e30: e9 3b 00 39 	strb	w9, [sp, #14]
100001e34: 28 14 00 33 	bfxil	w8, w1, #0, #6
100001e38: e8 3f 00 39 	strb	w8, [sp, #15]
100001e3c: 93 00 80 52 	mov	w19, #4
100001e40: 14 04 40 f9 	ldr	x20, [x0, #8]
100001e44: 95 0a 40 f9 	ldr	x21, [x20, #16]
100001e48: 88 02 40 f9 	ldr	x8, [x20]
100001e4c: 08 01 15 cb 	sub	x8, x8, x21
100001e50: 1f 01 13 eb 	cmp	x8, x19
100001e54: c3 01 00 54 	b.lo	0x100001e8c <__ZN4core3fmt5Write10write_char17h0d172b89de7f5acfE+0x108>
100001e58: 88 06 40 f9 	ldr	x8, [x20, #8]
100001e5c: 00 01 15 8b 	add	x0, x8, x21
100001e60: e1 33 00 91 	add	x1, sp, #12
100001e64: e2 03 13 aa 	mov	x2, x19
100001e68: 33 c1 00 94 	bl	0x100032334 <_writev+0x100032334>
100001e6c: a8 02 13 8b 	add	x8, x21, x19
100001e70: 88 0a 00 f9 	str	x8, [x20, #16]
100001e74: 00 00 80 52 	mov	w0, #0
100001e78: fd 7b 43 a9 	ldp	x29, x30, [sp, #48]
100001e7c: f4 4f 42 a9 	ldp	x20, x19, [sp, #32]
100001e80: f6 57 41 a9 	ldp	x22, x21, [sp, #16]
100001e84: ff 03 01 91 	add	sp, sp, #64
100001e88: c0 03 5f d6 	ret
100001e8c: e0 03 14 aa 	mov	x0, x20
100001e90: e1 03 15 aa 	mov	x1, x21
100001e94: e2 03 13 aa 	mov	x2, x19
100001e98: 93 bb 00 94 	bl	0x100030ce4 <__ZN5alloc7raw_vec19RawVec$LT$T$C$A$GT$7reserve21do_reserve_and_handle17h1cf7040786561bc0E>
100001e9c: 95 0a 40 f9 	ldr	x21, [x20, #16]
100001ea0: ee ff ff 17 	b	0x100001e58 <__ZN4core3fmt5Write10write_char17h0d172b89de7f5acfE+0xd4>

0000000100001ea4 <__ZN4core3fmt5Write10write_char17h60f0255ecb0ae54cE>:
100001ea4: ff 83 00 d1 	sub	sp, sp, #32
100001ea8: fd 7b 01 a9 	stp	x29, x30, [sp, #16]
100001eac: fd 43 00 91 	add	x29, sp, #16
100001eb0: bf c3 1f b8 	stur	wzr, [x29, #-4]
100001eb4: 3f 00 02 71 	cmp	w1, #128
100001eb8: 82 00 00 54 	b.hs	0x100001ec8 <__ZN4core3fmt5Write10write_char17h60f0255ecb0ae54cE+0x24>
100001ebc: a1 c3 1f 38 	sturb	w1, [x29, #-4]
100001ec0: 22 00 80 52 	mov	w2, #1
100001ec4: 25 00 00 14 	b	0x100001f58 <__ZN4core3fmt5Write10write_char17h60f0255ecb0ae54cE+0xb4>
100001ec8: 3f 00 20 71 	cmp	w1, #2048
100001ecc: 22 01 00 54 	b.hs	0x100001ef0 <__ZN4core3fmt5Write10write_char17h60f0255ecb0ae54cE+0x4c>
100001ed0: 28 7c 06 53 	lsr	w8, w1, #6
100001ed4: 08 05 1a 32 	orr	w8, w8, #0xc0
100001ed8: a8 c3 1f 38 	sturb	w8, [x29, #-4]
100001edc: 08 10 80 52 	mov	w8, #128
100001ee0: 28 14 00 33 	bfxil	w8, w1, #0, #6
100001ee4: a8 d3 1f 38 	sturb	w8, [x29, #-3]
100001ee8: 42 00 80 52 	mov	w2, #2
100001eec: 1b 00 00 14 	b	0x100001f58 <__ZN4core3fmt5Write10write_char17h60f0255ecb0ae54cE+0xb4>
100001ef0: 3f 40 40 71 	cmp	w1, #16, lsl #12        ; =65536
100001ef4: 82 01 00 54 	b.hs	0x100001f24 <__ZN4core3fmt5Write10write_char17h60f0255ecb0ae54cE+0x80>
100001ef8: 28 7c 0c 53 	lsr	w8, w1, #12
100001efc: 08 09 1b 32 	orr	w8, w8, #0xe0
100001f00: a8 c3 1f 38 	sturb	w8, [x29, #-4]
100001f04: 08 10 80 52 	mov	w8, #128
100001f08: 09 10 80 52 	mov	w9, #128
100001f0c: 29 2c 06 33 	bfxil	w9, w1, #6, #6
100001f10: a9 d3 1f 38 	sturb	w9, [x29, #-3]
100001f14: 28 14 00 33 	bfxil	w8, w1, #0, #6
100001f18: a8 e3 1f 38 	sturb	w8, [x29, #-2]
100001f1c: 62 00 80 52 	mov	w2, #3
100001f20: 0e 00 00 14 	b	0x100001f58 <__ZN4core3fmt5Write10write_char17h60f0255ecb0ae54cE+0xb4>
100001f24: 08 1e 80 52 	mov	w8, #240
100001f28: 28 50 12 33 	bfxil	w8, w1, #18, #3
100001f2c: a8 c3 1f 38 	sturb	w8, [x29, #-4]
100001f30: 08 10 80 52 	mov	w8, #128
100001f34: 09 10 80 52 	mov	w9, #128
100001f38: 29 44 0c 33 	bfxil	w9, w1, #12, #6
100001f3c: a9 d3 1f 38 	sturb	w9, [x29, #-3]
100001f40: 09 10 80 52 	mov	w9, #128
100001f44: 29 2c 06 33 	bfxil	w9, w1, #6, #6
100001f48: a9 e3 1f 38 	sturb	w9, [x29, #-2]
100001f4c: 28 14 00 33 	bfxil	w8, w1, #0, #6
100001f50: a8 f3 1f 38 	sturb	w8, [x29, #-1]
100001f54: 82 00 80 52 	mov	w2, #4
100001f58: a1 13 00 d1 	sub	x1, x29, #4
100001f5c: 32 57 00 94 	bl	0x100017c24 <__ZN80_$LT$std..io..Write..write_fmt..Adapter$LT$T$GT$$u20$as$u20$core..fmt..Write$GT$9write_str17hb8ea9205fd4f45a6E>
100001f60: fd 7b 41 a9 	ldp	x29, x30, [sp, #16]
100001f64: ff 83 00 91 	add	sp, sp, #32
100001f68: c0 03 5f d6 	ret

0000000100001f6c <__ZN4core3fmt5Write10write_char17hf47cac899f95866dE>:
100001f6c: ff 83 00 d1 	sub	sp, sp, #32
100001f70: fd 7b 01 a9 	stp	x29, x30, [sp, #16]
100001f74: fd 43 00 91 	add	x29, sp, #16
100001f78: bf c3 1f b8 	stur	wzr, [x29, #-4]
100001f7c: 3f 00 02 71 	cmp	w1, #128
100001f80: 82 00 00 54 	b.hs	0x100001f90 <__ZN4core3fmt5Write10write_char17hf47cac899f95866dE+0x24>
100001f84: a1 c3 1f 38 	sturb	w1, [x29, #-4]
100001f88: 22 00 80 52 	mov	w2, #1
100001f8c: 25 00 00 14 	b	0x100002020 <__ZN4core3fmt5Write10write_char17hf47cac899f95866dE+0xb4>
100001f90: 3f 00 20 71 	cmp	w1, #2048
100001f94: 22 01 00 54 	b.hs	0x100001fb8 <__ZN4core3fmt5Write10write_char17hf47cac899f95866dE+0x4c>
100001f98: 28 7c 06 53 	lsr	w8, w1, #6
100001f9c: 08 05 1a 32 	orr	w8, w8, #0xc0
100001fa0: a8 c3 1f 38 	sturb	w8, [x29, #-4]
100001fa4: 08 10 80 52 	mov	w8, #128
100001fa8: 28 14 00 33 	bfxil	w8, w1, #0, #6
100001fac: a8 d3 1f 38 	sturb	w8, [x29, #-3]
100001fb0: 42 00 80 52 	mov	w2, #2
100001fb4: 1b 00 00 14 	b	0x100002020 <__ZN4core3fmt5Write10write_char17hf47cac899f95866dE+0xb4>
100001fb8: 3f 40 40 71 	cmp	w1, #16, lsl #12        ; =65536
100001fbc: 82 01 00 54 	b.hs	0x100001fec <__ZN4core3fmt5Write10write_char17hf47cac899f95866dE+0x80>
100001fc0: 28 7c 0c 53 	lsr	w8, w1, #12
100001fc4: 08 09 1b 32 	orr	w8, w8, #0xe0
100001fc8: a8 c3 1f 38 	sturb	w8, [x29, #-4]
100001fcc: 08 10 80 52 	mov	w8, #128
100001fd0: 09 10 80 52 	mov	w9, #128
100001fd4: 29 2c 06 33 	bfxil	w9, w1, #6, #6
100001fd8: a9 d3 1f 38 	sturb	w9, [x29, #-3]
100001fdc: 28 14 00 33 	bfxil	w8, w1, #0, #6
100001fe0: a8 e3 1f 38 	sturb	w8, [x29, #-2]
100001fe4: 62 00 80 52 	mov	w2, #3
100001fe8: 0e 00 00 14 	b	0x100002020 <__ZN4core3fmt5Write10write_char17hf47cac899f95866dE+0xb4>
100001fec: 08 1e 80 52 	mov	w8, #240
100001ff0: 28 50 12 33 	bfxil	w8, w1, #18, #3
100001ff4: a8 c3 1f 38 	sturb	w8, [x29, #-4]
100001ff8: 08 10 80 52 	mov	w8, #128
100001ffc: 09 10 80 52 	mov	w9, #128
100002000: 29 44 0c 33 	bfxil	w9, w1, #12, #6
100002004: a9 d3 1f 38 	sturb	w9, [x29, #-3]
100002008: 09 10 80 52 	mov	w9, #128
10000200c: 29 2c 06 33 	bfxil	w9, w1, #6, #6
100002010: a9 e3 1f 38 	sturb	w9, [x29, #-2]
100002014: 28 14 00 33 	bfxil	w8, w1, #0, #6
100002018: a8 f3 1f 38 	sturb	w8, [x29, #-1]
10000201c: 82 00 80 52 	mov	w2, #4
100002020: a1 13 00 d1 	sub	x1, x29, #4
100002024: b3 56 00 94 	bl	0x100017af0 <__ZN80_$LT$std..io..Write..write_fmt..Adapter$LT$T$GT$$u20$as$u20$core..fmt..Write$GT$9write_str17h6c38d21cd76303d5E>
100002028: fd 7b 41 a9 	ldp	x29, x30, [sp, #16]
10000202c: ff 83 00 91 	add	sp, sp, #32
100002030: c0 03 5f d6 	ret

0000000100002034 <__ZN4core3fmt5Write9write_fmt17h5b81ed876a9d3faaE>:
100002034: ff 43 01 d1 	sub	sp, sp, #80
100002038: fd 7b 04 a9 	stp	x29, x30, [sp, #64]
10000203c: fd 03 01 91 	add	x29, sp, #64
100002040: e0 07 00 f9 	str	x0, [sp, #8]
100002044: 20 04 40 ad 	ldp	q0, q1, [x1]
100002048: e0 87 00 ad 	stp	q0, q1, [sp, #16]
10000204c: 20 08 c0 3d 	ldr	q0, [x1, #32]
100002050: e0 0f 80 3d 	str	q0, [sp, #48]
100002054: a1 10 1f 10 	adr	x1, #254484
100002058: 1f 20 03 d5 	nop
10000205c: e0 23 00 91 	add	x0, sp, #8
100002060: e2 43 00 91 	add	x2, sp, #16
100002064: d6 a3 00 94 	bl	0x10002afbc <__ZN4core3fmt5write17h34766cf8fff7af1eE>
100002068: fd 7b 44 a9 	ldp	x29, x30, [sp, #64]
10000206c: ff 43 01 91 	add	sp, sp, #80
100002070: c0 03 5f d6 	ret

0000000100002074 <__ZN4core3fmt5Write9write_fmt17h89c6e328a0fa6972E>:
100002074: ff 43 01 d1 	sub	sp, sp, #80
100002078: fd 7b 04 a9 	stp	x29, x30, [sp, #64]
10000207c: fd 03 01 91 	add	x29, sp, #64
100002080: e0 07 00 f9 	str	x0, [sp, #8]
100002084: 20 04 40 ad 	ldp	q0, q1, [x1]
100002088: e0 87 00 ad 	stp	q0, q1, [sp, #16]
10000208c: 20 08 c0 3d 	ldr	q0, [x1, #32]
100002090: e0 0f 80 3d 	str	q0, [sp, #48]
100002094: 21 10 1f 10 	adr	x1, #254468
100002098: 1f 20 03 d5 	nop
10000209c: e0 23 00 91 	add	x0, sp, #8
1000020a0: e2 43 00 91 	add	x2, sp, #16
1000020a4: c6 a3 00 94 	bl	0x10002afbc <__ZN4core3fmt5write17h34766cf8fff7af1eE>
1000020a8: fd 7b 44 a9 	ldp	x29, x30, [sp, #64]
1000020ac: ff 43 01 91 	add	sp, sp, #80
1000020b0: c0 03 5f d6 	ret

00000001000020b4 <__ZN4core3fmt5Write9write_fmt17h8a07ff1f055f4e92E>:
1000020b4: ff 43 01 d1 	sub	sp, sp, #80
1000020b8: fd 7b 04 a9 	stp	x29, x30, [sp, #64]
1000020bc: fd 03 01 91 	add	x29, sp, #64
1000020c0: e0 07 00 f9 	str	x0, [sp, #8]
1000020c4: 20 04 40 ad 	ldp	q0, q1, [x1]
1000020c8: e0 87 00 ad 	stp	q0, q1, [sp, #16]
1000020cc: 20 08 c0 3d 	ldr	q0, [x1, #32]
1000020d0: e0 0f 80 3d 	str	q0, [sp, #48]
1000020d4: a1 0f 1f 10 	adr	x1, #254452
1000020d8: 1f 20 03 d5 	nop
1000020dc: e0 23 00 91 	add	x0, sp, #8
1000020e0: e2 43 00 91 	add	x2, sp, #16
1000020e4: b6 a3 00 94 	bl	0x10002afbc <__ZN4core3fmt5write17h34766cf8fff7af1eE>
1000020e8: fd 7b 44 a9 	ldp	x29, x30, [sp, #64]
1000020ec: ff 43 01 91 	add	sp, sp, #80
1000020f0: c0 03 5f d6 	ret

00000001000020f4 <__ZN4core3ops8function6FnOnce40call_once$u7b$$u7b$vtable.shim$u7d$$u7d$17h26f873374dc0727eE>:
1000020f4: 08 00 40 f9 	ldr	x8, [x0]
1000020f8: 00 01 40 f9 	ldr	x0, [x8]
1000020fc: 40 c0 00 14 	b	0x1000321fc <_writev+0x1000321fc>

0000000100002100 <__ZN4core3ops8function6FnOnce40call_once$u7b$$u7b$vtable.shim$u7d$$u7d$17h52c11cce6154e41eE>:
100002100: 2c 5e 00 14 	b	0x1000199b0 <__ZN3std10sys_common9backtrace10_print_fmt28_$u7b$$u7b$closure$u7d$$u7d$17hd7c8f207511c4614E>

0000000100002104 <__ZN4core3ops8function6FnOnce40call_once$u7b$$u7b$vtable.shim$u7d$$u7d$17h7860c26a68b3a732E>:
100002104: ff 03 01 d1 	sub	sp, sp, #64
100002108: f4 4f 02 a9 	stp	x20, x19, [sp, #32]
10000210c: fd 7b 03 a9 	stp	x29, x30, [sp, #48]
100002110: fd c3 00 91 	add	x29, sp, #48
100002114: e8 03 01 aa 	mov	x8, x1
100002118: f3 03 00 aa 	mov	x19, x0
10000211c: e1 03 00 f9 	str	x1, [sp]
100002120: e9 03 00 91 	mov	x9, sp
100002124: 21 21 00 91 	add	x1, x9, #8
100002128: 40 00 c0 3d 	ldr	q0, [x2]
10000212c: e0 83 80 3c 	stur	q0, [sp, #8]
100002130: 49 08 40 f9 	ldr	x9, [x2, #16]
100002134: e9 0f 00 f9 	str	x9, [sp, #24]
100002138: 09 04 40 f9 	ldr	x9, [x0, #8]
10000213c: 3f 01 00 f1 	cmp	x9, #0
100002140: e3 03 80 9a 	csel	x3, xzr, x0, eq
100002144: 02 60 40 39 	ldrb	w2, [x0, #24]
100002148: e0 03 08 aa 	mov	x0, x8
10000214c: e6 5e 00 94 	bl	0x100019ce4 <__ZN3std10sys_common9backtrace15output_filename17h355e26e4071aa466E>
100002150: f4 03 00 aa 	mov	x20, x0
100002154: 60 06 40 f9 	ldr	x0, [x19, #8]
100002158: a0 00 00 b4 	cbz	x0, 0x10000216c <__ZN4core3ops8function6FnOnce40call_once$u7b$$u7b$vtable.shim$u7d$$u7d$17h7860c26a68b3a732E+0x68>
10000215c: 61 02 40 f9 	ldr	x1, [x19]
100002160: 61 00 00 b4 	cbz	x1, 0x10000216c <__ZN4core3ops8function6FnOnce40call_once$u7b$$u7b$vtable.shim$u7d$$u7d$17h7860c26a68b3a732E+0x68>
100002164: 22 00 80 52 	mov	w2, #1
100002168: 91 fe ff 97 	bl	0x100001bac <___rust_dealloc>
10000216c: e0 03 14 aa 	mov	x0, x20
100002170: fd 7b 43 a9 	ldp	x29, x30, [sp, #48]
100002174: f4 4f 42 a9 	ldp	x20, x19, [sp, #32]
100002178: ff 03 01 91 	add	sp, sp, #64
10000217c: c0 03 5f d6 	ret
100002180: f4 03 00 aa 	mov	x20, x0
100002184: e0 03 13 aa 	mov	x0, x19
100002188: aa 04 00 94 	bl	0x100003430 <__ZN4core3ptr70drop_in_place$LT$core..option..Option$LT$alloc..string..String$GT$$GT$17ha3807e88125ebd8dE>
10000218c: e0 03 14 aa 	mov	x0, x20
100002190: 21 c0 00 94 	bl	0x100032214 <_writev+0x100032214>

0000000100002194 <__ZN4core3ops8function6FnOnce40call_once$u7b$$u7b$vtable.shim$u7d$$u7d$17h7ce8461509a8724fE>:
100002194: fd 7b bf a9 	stp	x29, x30, [sp, #-16]!
100002198: fd 03 00 91 	mov	x29, sp
10000219c: 0a 00 40 f9 	ldr	x10, [x0]
1000021a0: 49 21 40 a9 	ldp	x9, x8, [x10]
1000021a4: 5f 01 00 f9 	str	xzr, [x10]
1000021a8: 49 01 00 b4 	cbz	x9, 0x1000021d0 <__ZN4core3ops8function6FnOnce40call_once$u7b$$u7b$vtable.shim$u7d$$u7d$17h7ce8461509a8724fE+0x3c>
1000021ac: 2a 00 80 52 	mov	w10, #1
1000021b0: 2a 01 00 39 	strb	w10, [x9]
1000021b4: 00 e4 00 6f 	movi.2d	v0, #0000000000000000
1000021b8: 00 01 00 ad 	stp	q0, q0, [x8]
1000021bc: 0a 7d 02 a9 	stp	x10, xzr, [x8, #32]
1000021c0: 1f c1 00 39 	strb	wzr, [x8, #48]
1000021c4: 1f 39 00 b9 	str	wzr, [x8, #56]
1000021c8: fd 7b c1 a8 	ldp	x29, x30, [sp], #16
1000021cc: c0 03 5f d6 	ret
1000021d0: 40 4a 18 50 	adr	x0, #198986
1000021d4: 1f 20 03 d5 	nop
1000021d8: 82 5e 1f 10 	adr	x2, #256976
1000021dc: 1f 20 03 d5 	nop
1000021e0: 61 05 80 52 	mov	w1, #43
1000021e4: 3b bf 00 94 	bl	0x100031ed0 <__ZN4core9panicking5panic17h2f410888133670e4E>

00000001000021e8 <__ZN4core3ops8function6FnOnce40call_once$u7b$$u7b$vtable.shim$u7d$$u7d$17h8041ffa841e6cb4eE>:
1000021e8: f4 4f be a9 	stp	x20, x19, [sp, #-32]!
1000021ec: fd 7b 01 a9 	stp	x29, x30, [sp, #16]
1000021f0: fd 43 00 91 	add	x29, sp, #16
1000021f4: 08 00 40 f9 	ldr	x8, [x0]
1000021f8: 13 01 40 f9 	ldr	x19, [x8]
1000021fc: 1f 01 00 f9 	str	xzr, [x8]
100002200: d3 01 00 b4 	cbz	x19, 0x100002238 <__ZN4core3ops8function6FnOnce40call_once$u7b$$u7b$vtable.shim$u7d$$u7d$17h8041ffa841e6cb4eE+0x50>
100002204: 00 80 80 52 	mov	w0, #1024
100002208: 21 00 80 52 	mov	w1, #1
10000220c: 67 fe ff 97 	bl	0x100001ba8 <___rust_alloc>
100002210: 00 02 00 b4 	cbz	x0, 0x100002250 <__ZN4core3ops8function6FnOnce40call_once$u7b$$u7b$vtable.shim$u7d$$u7d$17h8041ffa841e6cb4eE+0x68>
100002214: 7f 7e 00 a9 	stp	xzr, xzr, [x19]
100002218: 08 80 80 52 	mov	w8, #1024
10000221c: 7f 22 01 a9 	stp	xzr, x8, [x19, #16]
100002220: 60 7e 02 a9 	stp	x0, xzr, [x19, #32]
100002224: 7f c2 00 39 	strb	wzr, [x19, #48]
100002228: 7f 3a 00 b9 	str	wzr, [x19, #56]
10000222c: fd 7b 41 a9 	ldp	x29, x30, [sp, #16]
100002230: f4 4f c2 a8 	ldp	x20, x19, [sp], #32
100002234: c0 03 5f d6 	ret
100002238: 00 47 18 50 	adr	x0, #198882
10000223c: 1f 20 03 d5 	nop
100002240: 42 5b 1f 10 	adr	x2, #256872
100002244: 1f 20 03 d5 	nop
100002248: 61 05 80 52 	mov	w1, #43
10000224c: 21 bf 00 94 	bl	0x100031ed0 <__ZN4core9panicking5panic17h2f410888133670e4E>
100002250: 00 80 80 52 	mov	w0, #1024
100002254: 21 00 80 52 	mov	w1, #1
100002258: fd be 00 94 	bl	0x100031e4c <__ZN5alloc5alloc18handle_alloc_error17he988aec40bc1ae62E>

000000010000225c <__ZN4core3ops8function6FnOnce40call_once$u7b$$u7b$vtable.shim$u7d$$u7d$17h8fd2de39c417144eE>:
10000225c: 08 00 40 f9 	ldr	x8, [x0]
100002260: 00 01 40 f9 	ldr	x0, [x8]
100002264: d7 bf 00 14 	b	0x1000321c0 <_writev+0x1000321c0>

0000000100002268 <__ZN4core3ops8function6FnOnce40call_once$u7b$$u7b$vtable.shim$u7d$$u7d$17hdf908d55785fde5eE>:
100002268: 1f 5e 00 14 	b	0x100019ae4 <__ZN3std10sys_common9backtrace10_print_fmt28_$u7b$$u7b$closure$u7d$$u7d$28_$u7b$$u7b$closure$u7d$$u7d$17h333a7533653c1522E>

000000010000226c <__ZN4core3ops8function6FnOnce40call_once$u7b$$u7b$vtable.shim$u7d$$u7d$17hedee7b756b0e7f59E>:
10000226c: ff 83 00 d1 	sub	sp, sp, #32
100002270: fd 7b 01 a9 	stp	x29, x30, [sp, #16]
100002274: fd 43 00 91 	add	x29, sp, #16
100002278: 08 00 40 f9 	ldr	x8, [x0]
10000227c: e8 07 00 f9 	str	x8, [sp, #8]
100002280: e0 23 00 91 	add	x0, sp, #8
100002284: 2a 5c 00 94 	bl	0x10001932c <__ZN3std4sync4once4Once9call_once28_$u7b$$u7b$closure$u7d$$u7d$17ha942a0e030424278E>
100002288: fd 7b 41 a9 	ldp	x29, x30, [sp, #16]
10000228c: ff 83 00 91 	add	sp, sp, #32
100002290: c0 03 5f d6 	ret

0000000100002294 <__ZN4core3ops8function6FnOnce9call_once17h6135dac180fcbbe7E>:
100002294: fd 7b bf a9 	stp	x29, x30, [sp, #-16]!
100002298: fd 03 00 91 	mov	x29, sp
10000229c: 70 4d 00 94 	bl	0x10001585c <__ZN3std2rt19lang_start_internal28_$u7b$$u7b$closure$u7d$$u7d$17h521ce506eae7c4edE>

00000001000022a0 <__ZN4core3ptr100drop_in_place$LT$$RF$mut$u20$std..io..Write..write_fmt..Adapter$LT$alloc..vec..Vec$LT$u8$GT$$GT$$GT$17h530a790bce64643bE>:
1000022a0: c0 03 5f d6 	ret

00000001000022a4 <__ZN4core3ptr101drop_in_place$LT$alloc..sync..Arc$LT$std..sync..mutex..Mutex$LT$alloc..vec..Vec$LT$u8$GT$$GT$$GT$$GT$17h9525eb10b31d7cebE>:
1000022a4: 08 00 40 f9 	ldr	x8, [x0]
1000022a8: 09 00 80 92 	mov	x9, #-1
1000022ac: 08 01 69 f8 	<unknown>
1000022b0: 1f 05 00 f1 	cmp	x8, #1
1000022b4: 81 00 00 54 	b.ne	0x1000022c4 <__ZN4core3ptr101drop_in_place$LT$alloc..sync..Arc$LT$std..sync..mutex..Mutex$LT$alloc..vec..Vec$LT$u8$GT$$GT$$GT$$GT$17h9525eb10b31d7cebE+0x20>
1000022b8: bf 39 03 d5 	dmb	ishld
1000022bc: 00 00 40 f9 	ldr	x0, [x0]
1000022c0: 92 13 00 14 	b	0x100007108 <__ZN5alloc4sync12Arc$LT$T$GT$9drop_slow17h0a775a8ce062156eE>
1000022c4: c0 03 5f d6 	ret

00000001000022c8 <__ZN4core3ptr1021drop_in_place$LT$core..slice..sort..merge_sort..RunVec$LT$alloc..slice..stable_sort$LT$$LP$gimli..common..DebugInfoOffset$C$gimli..common..DebugArangesOffset$RP$$C$alloc..slice..$LT$impl$u20$$u5b$$LP$gimli..common..DebugInfoOffset$C$gimli..common..DebugArangesOffset$RP$$u5d$$GT$..sort_by_key$LT$gimli..common..DebugInfoOffset$C$addr2line..ResDwarf$LT$gimli..read..endian_slice..EndianSlice$LT$gimli..endianity..LittleEndian$GT$$GT$..parse..$u7b$$u7b$closure$u7d$$u7d$$GT$..$u7b$$u7b$closure$u7d$$u7d$$GT$..$u7b$$u7b$closure$u7d$$u7d$$C$alloc..slice..stable_sort$LT$$LP$gimli..common..DebugInfoOffset$C$gimli..common..DebugArangesOffset$RP$$C$alloc..slice..$LT$impl$u20$$u5b$$LP$gimli..common..DebugInfoOffset$C$gimli..common..DebugArangesOffset$RP$$u5d$$GT$..sort_by_key$LT$gimli..common..DebugInfoOffset$C$addr2line..ResDwarf$LT$gimli..read..endian_slice..EndianSlice$LT$gimli..endianity..LittleEndian$GT$$GT$..parse..$u7b$$u7b$closure$u7d$$u7d$$GT$..$u7b$$u7b$closure$u7d$$u7d$$GT$..$u7b$$u7b$closure$u7d$$u7d$$GT$$GT$17h060f5c19577a97ceE>:
1000022c8: e8 03 01 aa 	mov	x8, x1
1000022cc: 01 ec 7c d3 	lsl	x1, x0, #4
1000022d0: e0 03 08 aa 	mov	x0, x8
1000022d4: 02 01 80 52 	mov	w2, #8
1000022d8: 35 fe ff 17 	b	0x100001bac <___rust_dealloc>

00000001000022dc <__ZN4core3ptr104drop_in_place$LT$alloc..vec..Vec$LT$$LP$usize$C$std..backtrace_rs..symbolize..gimli..Mapping$RP$$GT$$GT$17h8b584c8f7a55db20E>:
1000022dc: f8 5f bc a9 	stp	x24, x23, [sp, #-64]!
1000022e0: f6 57 01 a9 	stp	x22, x21, [sp, #16]
1000022e4: f4 4f 02 a9 	stp	x20, x19, [sp, #32]
1000022e8: fd 7b 03 a9 	stp	x29, x30, [sp, #48]
1000022ec: fd c3 00 91 	add	x29, sp, #48
1000022f0: f3 03 00 aa 	mov	x19, x0
1000022f4: 08 a4 40 a9 	ldp	x8, x9, [x0, #8]
1000022f8: 29 15 09 8b 	add	x9, x9, x9, lsl #5
1000022fc: 35 f1 7d d3 	lsl	x21, x9, #3
100002300: 16 01 15 8b 	add	x22, x8, x21
100002304: f5 00 00 b4 	cbz	x21, 0x100002320 <__ZN4core3ptr104drop_in_place$LT$alloc..vec..Vec$LT$$LP$usize$C$std..backtrace_rs..symbolize..gimli..Mapping$RP$$GT$$GT$17h8b584c8f7a55db20E+0x44>
100002308: 14 21 04 91 	add	x20, x8, #264
10000230c: 00 21 00 91 	add	x0, x8, #8
100002310: b5 22 04 d1 	sub	x21, x21, #264
100002314: df 03 00 94 	bl	0x100003290 <__ZN4core3ptr65drop_in_place$LT$std..backtrace_rs..symbolize..gimli..Mapping$GT$17h10b8ec4839ebd09fE>
100002318: e8 03 14 aa 	mov	x8, x20
10000231c: fa ff ff 17 	b	0x100002304 <__ZN4core3ptr104drop_in_place$LT$alloc..vec..Vec$LT$$LP$usize$C$std..backtrace_rs..symbolize..gimli..Mapping$RP$$GT$$GT$17h8b584c8f7a55db20E+0x28>
100002320: 68 02 40 f9 	ldr	x8, [x19]
100002324: 48 01 00 b4 	cbz	x8, 0x10000234c <__ZN4core3ptr104drop_in_place$LT$alloc..vec..Vec$LT$$LP$usize$C$std..backtrace_rs..symbolize..gimli..Mapping$RP$$GT$$GT$17h8b584c8f7a55db20E+0x70>
100002328: 60 06 40 f9 	ldr	x0, [x19, #8]
10000232c: 08 15 08 8b 	add	x8, x8, x8, lsl #5
100002330: 01 f1 7d d3 	lsl	x1, x8, #3
100002334: 02 01 80 52 	mov	w2, #8
100002338: fd 7b 43 a9 	ldp	x29, x30, [sp, #48]
10000233c: f4 4f 42 a9 	ldp	x20, x19, [sp, #32]
100002340: f6 57 41 a9 	ldp	x22, x21, [sp, #16]
100002344: f8 5f c4 a8 	ldp	x24, x23, [sp], #64
100002348: 19 fe ff 17 	b	0x100001bac <___rust_dealloc>
10000234c: fd 7b 43 a9 	ldp	x29, x30, [sp, #48]
100002350: f4 4f 42 a9 	ldp	x20, x19, [sp, #32]
100002354: f6 57 41 a9 	ldp	x22, x21, [sp, #16]
100002358: f8 5f c4 a8 	ldp	x24, x23, [sp], #64
10000235c: c0 03 5f d6 	ret
100002360: f5 03 00 aa 	mov	x21, x0
100002364: 9f 02 16 eb 	cmp	x20, x22
100002368: c0 00 00 54 	b.eq	0x100002380 <__ZN4core3ptr104drop_in_place$LT$alloc..vec..Vec$LT$$LP$usize$C$std..backtrace_rs..symbolize..gimli..Mapping$RP$$GT$$GT$17h8b584c8f7a55db20E+0xa4>
10000236c: 97 22 04 91 	add	x23, x20, #264
100002370: e0 03 14 aa 	mov	x0, x20
100002374: ff 04 00 94 	bl	0x100003770 <__ZN4core3ptr81drop_in_place$LT$$LP$usize$C$std..backtrace_rs..symbolize..gimli..Mapping$RP$$GT$17hd1c931cf88df3a91E>
100002378: f4 03 17 aa 	mov	x20, x23
10000237c: fa ff ff 17 	b	0x100002364 <__ZN4core3ptr104drop_in_place$LT$alloc..vec..Vec$LT$$LP$usize$C$std..backtrace_rs..symbolize..gimli..Mapping$RP$$GT$$GT$17h8b584c8f7a55db20E+0x88>
100002380: 60 06 40 a9 	ldp	x0, x1, [x19]
100002384: 1c 00 00 94 	bl	0x1000023f4 <__ZN4core3ptr111drop_in_place$LT$alloc..raw_vec..RawVec$LT$$LP$usize$C$std..backtrace_rs..symbolize..gimli..Mapping$RP$$GT$$GT$17hee786c71ed4eed10E>
100002388: e0 03 15 aa 	mov	x0, x21
10000238c: a2 bf 00 94 	bl	0x100032214 <_writev+0x100032214>
100002390: 01 bf 00 94 	bl	0x100031f94 <__ZN4core9panicking19panic_cannot_unwind17h96946ae592480b8aE>

0000000100002394 <__ZN4core3ptr105drop_in_place$LT$core..result..Result$LT$alloc..ffi..c_str..CString$C$alloc..ffi..c_str..NulError$GT$$GT$17he5711250543d9480E>:
100002394: 08 08 40 f9 	ldr	x8, [x0, #16]
100002398: c8 00 00 b4 	cbz	x8, 0x1000023b0 <__ZN4core3ptr105drop_in_place$LT$core..result..Result$LT$alloc..ffi..c_str..CString$C$alloc..ffi..c_str..NulError$GT$$GT$17he5711250543d9480E+0x1c>
10000239c: 01 04 40 f9 	ldr	x1, [x0, #8]
1000023a0: 61 01 00 b4 	cbz	x1, 0x1000023cc <__ZN4core3ptr105drop_in_place$LT$core..result..Result$LT$alloc..ffi..c_str..CString$C$alloc..ffi..c_str..NulError$GT$$GT$17he5711250543d9480E+0x38>
1000023a4: e0 03 08 aa 	mov	x0, x8
1000023a8: 22 00 80 52 	mov	w2, #1
1000023ac: 00 fe ff 17 	b	0x100001bac <___rust_dealloc>
1000023b0: 08 00 40 f9 	ldr	x8, [x0]
1000023b4: 1f 01 00 39 	strb	wzr, [x8]
1000023b8: 01 04 40 f9 	ldr	x1, [x0, #8]
1000023bc: 81 00 00 b4 	cbz	x1, 0x1000023cc <__ZN4core3ptr105drop_in_place$LT$core..result..Result$LT$alloc..ffi..c_str..CString$C$alloc..ffi..c_str..NulError$GT$$GT$17he5711250543d9480E+0x38>
1000023c0: 00 00 40 f9 	ldr	x0, [x0]
1000023c4: 22 00 80 52 	mov	w2, #1
1000023c8: f9 fd ff 17 	b	0x100001bac <___rust_dealloc>
1000023cc: c0 03 5f d6 	ret

00000001000023d0 <__ZN4core3ptr107drop_in_place$LT$alloc..sync..Arc$LT$core..mem..maybe_uninit..MaybeUninit$LT$std..thread..Inner$GT$$GT$$GT$17ha1910fbe3f74a1deE>:
1000023d0: 08 00 40 f9 	ldr	x8, [x0]
1000023d4: 09 00 80 92 	mov	x9, #-1
1000023d8: 08 01 69 f8 	<unknown>
1000023dc: 1f 05 00 f1 	cmp	x8, #1
1000023e0: 81 00 00 54 	b.ne	0x1000023f0 <__ZN4core3ptr107drop_in_place$LT$alloc..sync..Arc$LT$core..mem..maybe_uninit..MaybeUninit$LT$std..thread..Inner$GT$$GT$$GT$17ha1910fbe3f74a1deE+0x20>
1000023e4: bf 39 03 d5 	dmb	ishld
1000023e8: 00 00 40 f9 	ldr	x0, [x0]
1000023ec: cf 13 00 14 	b	0x100007328 <__ZN5alloc4sync12Arc$LT$T$GT$9drop_slow17hdd87f3799ee21070E>
1000023f0: c0 03 5f d6 	ret

00000001000023f4 <__ZN4core3ptr111drop_in_place$LT$alloc..raw_vec..RawVec$LT$$LP$usize$C$std..backtrace_rs..symbolize..gimli..Mapping$RP$$GT$$GT$17hee786c71ed4eed10E>:
1000023f4: e0 00 00 b4 	cbz	x0, 0x100002410 <__ZN4core3ptr111drop_in_place$LT$alloc..raw_vec..RawVec$LT$$LP$usize$C$std..backtrace_rs..symbolize..gimli..Mapping$RP$$GT$$GT$17hee786c71ed4eed10E+0x1c>
1000023f8: 08 14 00 8b 	add	x8, x0, x0, lsl #5
1000023fc: 08 f1 7d d3 	lsl	x8, x8, #3
100002400: e0 03 01 aa 	mov	x0, x1
100002404: e1 03 08 aa 	mov	x1, x8
100002408: 02 01 80 52 	mov	w2, #8
10000240c: e8 fd ff 17 	b	0x100001bac <___rust_dealloc>
100002410: c0 03 5f d6 	ret

0000000100002414 <__ZN4core3ptr115drop_in_place$LT$core..cell..RefMut$LT$core..option..Option$LT$std..sys_common..thread_info..ThreadInfo$GT$$GT$$GT$17hafb1269c99eec264E>:
100002414: 08 00 40 f9 	ldr	x8, [x0]
100002418: 08 05 00 91 	add	x8, x8, #1
10000241c: 08 00 00 f9 	str	x8, [x0]
100002420: c0 03 5f d6 	ret

0000000100002424 <__ZN4core3ptr118drop_in_place$LT$alloc..vec..Vec$LT$$LP$gimli..common..DebugInfoOffset$C$gimli..common..DebugArangesOffset$RP$$GT$$GT$17h735d04ffac2f9feeE>:
100002424: c0 00 00 b4 	cbz	x0, 0x10000243c <__ZN4core3ptr118drop_in_place$LT$alloc..vec..Vec$LT$$LP$gimli..common..DebugInfoOffset$C$gimli..common..DebugArangesOffset$RP$$GT$$GT$17h735d04ffac2f9feeE+0x18>
100002428: 08 ec 7c d3 	lsl	x8, x0, #4
10000242c: e0 03 01 aa 	mov	x0, x1
100002430: e1 03 08 aa 	mov	x1, x8
100002434: 02 01 80 52 	mov	w2, #8
100002438: dd fd ff 17 	b	0x100001bac <___rust_dealloc>
10000243c: c0 03 5f d6 	ret

0000000100002440 <__ZN4core3ptr119drop_in_place$LT$addr2line..lazy..LazyCell$LT$core..result..Result$LT$addr2line..Lines$C$gimli..read..Error$GT$$GT$$GT$17he2a7006be3f690b4E>:
100002440: 08 00 40 f9 	ldr	x8, [x0]
100002444: 68 00 00 b4 	cbz	x8, 0x100002450 <__ZN4core3ptr119drop_in_place$LT$addr2line..lazy..LazyCell$LT$core..result..Result$LT$addr2line..Lines$C$gimli..read..Error$GT$$GT$$GT$17he2a7006be3f690b4E+0x10>
100002448: 00 20 00 91 	add	x0, x0, #8
10000244c: 1b 05 00 14 	b	0x1000038b8 <__ZN4core3ptr86drop_in_place$LT$core..result..Result$LT$addr2line..Lines$C$gimli..read..Error$GT$$GT$17h0a0320443a858bceE>
100002450: c0 03 5f d6 	ret

0000000100002454 <__ZN4core3ptr121drop_in_place$LT$core..option..Option$LT$core..option..Option$LT$std..backtrace_rs..symbolize..gimli..Mapping$GT$$GT$$GT$17hbbec5fe61fe5378bE>:
100002454: 08 e0 41 39 	ldrb	w8, [x0, #120]
100002458: 1f 09 00 71 	cmp	w8, #2
10000245c: 42 00 00 54 	b.hs	0x100002464 <__ZN4core3ptr121drop_in_place$LT$core..option..Option$LT$core..option..Option$LT$std..backtrace_rs..symbolize..gimli..Mapping$GT$$GT$$GT$17hbbec5fe61fe5378bE+0x10>
100002460: 8c 03 00 14 	b	0x100003290 <__ZN4core3ptr65drop_in_place$LT$std..backtrace_rs..symbolize..gimli..Mapping$GT$17h10b8ec4839ebd09fE>
100002464: c0 03 5f d6 	ret

0000000100002468 <__ZN4core3ptr123drop_in_place$LT$addr2line..ResUnit$LT$gimli..read..endian_slice..EndianSlice$LT$gimli..endianity..LittleEndian$GT$$GT$$GT$17hb4124b14496e1e89E>:
100002468: f4 4f be a9 	stp	x20, x19, [sp, #-32]!
10000246c: fd 7b 01 a9 	stp	x29, x30, [sp, #16]
100002470: fd 43 00 91 	add	x29, sp, #16
100002474: f3 03 00 aa 	mov	x19, x0
100002478: 00 80 00 91 	add	x0, x0, #32
10000247c: 05 03 00 94 	bl	0x100003090 <__ZN4core3ptr55drop_in_place$LT$gimli..read..abbrev..Abbreviations$GT$17h527ed8f8312b5c9eE>
100002480: 60 62 03 91 	add	x0, x19, #216
100002484: 4e 01 00 94 	bl	0x1000029bc <__ZN4core3ptr181drop_in_place$LT$core..option..Option$LT$gimli..read..line..IncompleteLineProgram$LT$gimli..read..endian_slice..EndianSlice$LT$gimli..endianity..LittleEndian$GT$$C$usize$GT$$GT$$GT$17ha1fd49f00f3a8c07E>
100002488: 68 ee 40 f9 	ldr	x8, [x19, #472]
10000248c: 68 00 00 b4 	cbz	x8, 0x100002498 <__ZN4core3ptr123drop_in_place$LT$addr2line..ResUnit$LT$gimli..read..endian_slice..EndianSlice$LT$gimli..endianity..LittleEndian$GT$$GT$$GT$17hb4124b14496e1e89E+0x30>
100002490: 60 82 07 91 	add	x0, x19, #480
100002494: 09 05 00 94 	bl	0x1000038b8 <__ZN4core3ptr86drop_in_place$LT$core..result..Result$LT$addr2line..Lines$C$gimli..read..Error$GT$$GT$17h0a0320443a858bceE>
100002498: 68 02 41 f9 	ldr	x8, [x19, #512]
10000249c: a8 00 00 b4 	cbz	x8, 0x1000024b0 <__ZN4core3ptr123drop_in_place$LT$addr2line..ResUnit$LT$gimli..read..endian_slice..EndianSlice$LT$gimli..endianity..LittleEndian$GT$$GT$$GT$17hb4124b14496e1e89E+0x48>
1000024a0: 60 22 08 91 	add	x0, x19, #520
1000024a4: fd 7b 41 a9 	ldp	x29, x30, [sp, #16]
1000024a8: f4 4f c2 a8 	ldp	x20, x19, [sp], #32
1000024ac: 69 01 00 14 	b	0x100002a50 <__ZN4core3ptr184drop_in_place$LT$core..result..Result$LT$addr2line..function..Functions$LT$gimli..read..endian_slice..EndianSlice$LT$gimli..endianity..LittleEndian$GT$$GT$$C$gimli..read..Error$GT$$GT$17h7f843c92bbfcd967E>
1000024b0: fd 7b 41 a9 	ldp	x29, x30, [sp, #16]
1000024b4: f4 4f c2 a8 	ldp	x20, x19, [sp], #32
1000024b8: c0 03 5f d6 	ret
1000024bc: f4 03 00 aa 	mov	x20, x0
1000024c0: 60 62 03 91 	add	x0, x19, #216
1000024c4: 3e 01 00 94 	bl	0x1000029bc <__ZN4core3ptr181drop_in_place$LT$core..option..Option$LT$gimli..read..line..IncompleteLineProgram$LT$gimli..read..endian_slice..EndianSlice$LT$gimli..endianity..LittleEndian$GT$$C$usize$GT$$GT$$GT$17ha1fd49f00f3a8c07E>
1000024c8: 60 62 07 91 	add	x0, x19, #472
1000024cc: dd ff ff 97 	bl	0x100002440 <__ZN4core3ptr119drop_in_place$LT$addr2line..lazy..LazyCell$LT$core..result..Result$LT$addr2line..Lines$C$gimli..read..Error$GT$$GT$$GT$17he2a7006be3f690b4E>
1000024d0: 60 02 08 91 	add	x0, x19, #512
1000024d4: 9b 01 00 94 	bl	0x100002b40 <__ZN4core3ptr217drop_in_place$LT$addr2line..lazy..LazyCell$LT$core..result..Result$LT$addr2line..function..Functions$LT$gimli..read..endian_slice..EndianSlice$LT$gimli..endianity..LittleEndian$GT$$GT$$C$gimli..read..Error$GT$$GT$$GT$17h93f11ffb04dd0a0aE>
1000024d8: e0 03 14 aa 	mov	x0, x20
1000024dc: 4e bf 00 94 	bl	0x100032214 <_writev+0x100032214>

00000001000024e0 <__ZN4core3ptr124drop_in_place$LT$addr2line..ResDwarf$LT$gimli..read..endian_slice..EndianSlice$LT$gimli..endianity..LittleEndian$GT$$GT$$GT$17h7022d754d85cab9aE>:
1000024e0: f8 5f bc a9 	stp	x24, x23, [sp, #-64]!
1000024e4: f6 57 01 a9 	stp	x22, x21, [sp, #16]
1000024e8: f4 4f 02 a9 	stp	x20, x19, [sp, #32]
1000024ec: fd 7b 03 a9 	stp	x29, x30, [sp, #48]
1000024f0: fd c3 00 91 	add	x29, sp, #48
1000024f4: f3 03 00 aa 	mov	x19, x0
1000024f8: 08 04 40 f9 	ldr	x8, [x0, #8]
1000024fc: a8 00 00 b4 	cbz	x8, 0x100002510 <__ZN4core3ptr124drop_in_place$LT$addr2line..ResDwarf$LT$gimli..read..endian_slice..EndianSlice$LT$gimli..endianity..LittleEndian$GT$$GT$$GT$17h7022d754d85cab9aE+0x30>
100002500: 60 0a 40 f9 	ldr	x0, [x19, #16]
100002504: 01 e9 7b d3 	lsl	x1, x8, #5
100002508: 02 01 80 52 	mov	w2, #8
10000250c: a8 fd ff 97 	bl	0x100001bac <___rust_dealloc>
100002510: 60 a2 42 a9 	ldp	x0, x8, [x19, #40]
100002514: 09 46 80 52 	mov	w9, #560
100002518: 14 7d 09 9b 	mul	x20, x8, x9
10000251c: 16 00 14 8b 	add	x22, x0, x20
100002520: d4 00 00 b4 	cbz	x20, 0x100002538 <__ZN4core3ptr124drop_in_place$LT$addr2line..ResDwarf$LT$gimli..read..endian_slice..EndianSlice$LT$gimli..endianity..LittleEndian$GT$$GT$$GT$17h7022d754d85cab9aE+0x58>
100002524: 15 c0 08 91 	add	x21, x0, #560
100002528: 94 c2 08 d1 	sub	x20, x20, #560
10000252c: cf ff ff 97 	bl	0x100002468 <__ZN4core3ptr123drop_in_place$LT$addr2line..ResUnit$LT$gimli..read..endian_slice..EndianSlice$LT$gimli..endianity..LittleEndian$GT$$GT$$GT$17hb4124b14496e1e89E>
100002530: e0 03 15 aa 	mov	x0, x21
100002534: fb ff ff 17 	b	0x100002520 <__ZN4core3ptr124drop_in_place$LT$addr2line..ResDwarf$LT$gimli..read..endian_slice..EndianSlice$LT$gimli..endianity..LittleEndian$GT$$GT$$GT$17h7022d754d85cab9aE+0x40>
100002538: 68 12 40 f9 	ldr	x8, [x19, #32]
10000253c: c8 00 00 b4 	cbz	x8, 0x100002554 <__ZN4core3ptr124drop_in_place$LT$addr2line..ResDwarf$LT$gimli..read..endian_slice..EndianSlice$LT$gimli..endianity..LittleEndian$GT$$GT$$GT$17h7022d754d85cab9aE+0x74>
100002540: 60 16 40 f9 	ldr	x0, [x19, #40]
100002544: 09 46 80 52 	mov	w9, #560
100002548: 01 7d 09 9b 	mul	x1, x8, x9
10000254c: 02 01 80 52 	mov	w2, #8
100002550: 97 fd ff 97 	bl	0x100001bac <___rust_dealloc>
100002554: e0 03 13 aa 	mov	x0, x19
100002558: 08 8c 43 f8 	ldr	x8, [x0, #56]!
10000255c: 09 00 80 92 	mov	x9, #-1
100002560: 08 01 69 f8 	<unknown>
100002564: 1f 05 00 f1 	cmp	x8, #1
100002568: 61 00 00 54 	b.ne	0x100002574 <__ZN4core3ptr124drop_in_place$LT$addr2line..ResDwarf$LT$gimli..read..endian_slice..EndianSlice$LT$gimli..endianity..LittleEndian$GT$$GT$$GT$17h7022d754d85cab9aE+0x94>
10000256c: bf 39 03 d5 	dmb	ishld
100002570: 50 13 00 94 	bl	0x1000072b0 <__ZN5alloc4sync12Arc$LT$T$GT$9drop_slow17ha84afde1262a5facE>
100002574: 60 02 40 f9 	ldr	x0, [x19]
100002578: 40 01 00 b4 	cbz	x0, 0x1000025a0 <__ZN4core3ptr124drop_in_place$LT$addr2line..ResDwarf$LT$gimli..read..endian_slice..EndianSlice$LT$gimli..endianity..LittleEndian$GT$$GT$$GT$17h7022d754d85cab9aE+0xc0>
10000257c: d9 ff ff 97 	bl	0x1000024e0 <__ZN4core3ptr124drop_in_place$LT$addr2line..ResDwarf$LT$gimli..read..endian_slice..EndianSlice$LT$gimli..endianity..LittleEndian$GT$$GT$$GT$17h7022d754d85cab9aE>
100002580: 60 02 40 f9 	ldr	x0, [x19]
100002584: 01 08 80 52 	mov	w1, #64
100002588: 02 01 80 52 	mov	w2, #8
10000258c: fd 7b 43 a9 	ldp	x29, x30, [sp, #48]
100002590: f4 4f 42 a9 	ldp	x20, x19, [sp, #32]
100002594: f6 57 41 a9 	ldp	x22, x21, [sp, #16]
100002598: f8 5f c4 a8 	ldp	x24, x23, [sp], #64
10000259c: 84 fd ff 17 	b	0x100001bac <___rust_dealloc>
1000025a0: fd 7b 43 a9 	ldp	x29, x30, [sp, #48]
1000025a4: f4 4f 42 a9 	ldp	x20, x19, [sp, #32]
1000025a8: f6 57 41 a9 	ldp	x22, x21, [sp, #16]
1000025ac: f8 5f c4 a8 	ldp	x24, x23, [sp], #64
1000025b0: c0 03 5f d6 	ret
1000025b4: f4 03 00 aa 	mov	x20, x0
1000025b8: 60 02 40 f9 	ldr	x0, [x19]
1000025bc: 6a 13 00 94 	bl	0x100007364 <__ZN5alloc5alloc8box_free17h328b2d346ba2467bE>
1000025c0: 0f 00 00 14 	b	0x1000025fc <__ZN4core3ptr124drop_in_place$LT$addr2line..ResDwarf$LT$gimli..read..endian_slice..EndianSlice$LT$gimli..endianity..LittleEndian$GT$$GT$$GT$17h7022d754d85cab9aE+0x11c>
1000025c4: f4 03 00 aa 	mov	x20, x0
1000025c8: bf 02 16 eb 	cmp	x21, x22
1000025cc: c0 00 00 54 	b.eq	0x1000025e4 <__ZN4core3ptr124drop_in_place$LT$addr2line..ResDwarf$LT$gimli..read..endian_slice..EndianSlice$LT$gimli..endianity..LittleEndian$GT$$GT$$GT$17h7022d754d85cab9aE+0x104>
1000025d0: b7 c2 08 91 	add	x23, x21, #560
1000025d4: e0 03 15 aa 	mov	x0, x21
1000025d8: a4 ff ff 97 	bl	0x100002468 <__ZN4core3ptr123drop_in_place$LT$addr2line..ResUnit$LT$gimli..read..endian_slice..EndianSlice$LT$gimli..endianity..LittleEndian$GT$$GT$$GT$17hb4124b14496e1e89E>
1000025dc: f5 03 17 aa 	mov	x21, x23
1000025e0: fa ff ff 17 	b	0x1000025c8 <__ZN4core3ptr124drop_in_place$LT$addr2line..ResDwarf$LT$gimli..read..endian_slice..EndianSlice$LT$gimli..endianity..LittleEndian$GT$$GT$$GT$17h7022d754d85cab9aE+0xe8>
1000025e4: 60 06 42 a9 	ldp	x0, x1, [x19, #32]
1000025e8: 92 00 00 94 	bl	0x100002830 <__ZN4core3ptr153drop_in_place$LT$alloc..raw_vec..RawVec$LT$addr2line..ResUnit$LT$gimli..read..endian_slice..EndianSlice$LT$gimli..endianity..LittleEndian$GT$$GT$$GT$$GT$17hac0204d3a3930b09E>
1000025ec: 60 e2 00 91 	add	x0, x19, #56
1000025f0: 98 00 00 94 	bl	0x100002850 <__ZN4core3ptr154drop_in_place$LT$alloc..sync..Arc$LT$gimli..read..dwarf..Dwarf$LT$gimli..read..endian_slice..EndianSlice$LT$gimli..endianity..LittleEndian$GT$$GT$$GT$$GT$17he9ccbfa1876da292E>
1000025f4: e0 03 13 aa 	mov	x0, x19
1000025f8: dc 00 00 94 	bl	0x100002968 <__ZN4core3ptr177drop_in_place$LT$core..option..Option$LT$alloc..boxed..Box$LT$addr2line..ResDwarf$LT$gimli..read..endian_slice..EndianSlice$LT$gimli..endianity..LittleEndian$GT$$GT$$GT$$GT$$GT$17h077802e12921af6eE>
1000025fc: e0 03 14 aa 	mov	x0, x20
100002600: 05 bf 00 94 	bl	0x100032214 <_writev+0x100032214>
100002604: 64 be 00 94 	bl	0x100031f94 <__ZN4core9panicking19panic_cannot_unwind17h96946ae592480b8aE>
100002608: 63 be 00 94 	bl	0x100031f94 <__ZN4core9panicking19panic_cannot_unwind17h96946ae592480b8aE>

000000010000260c <__ZN4core3ptr125drop_in_place$LT$addr2line..FrameIter$LT$gimli..read..endian_slice..EndianSlice$LT$gimli..endianity..LittleEndian$GT$$GT$$GT$17hbbe28d1b6cefe865E>:
10000260c: 08 30 40 b9 	ldr	w8, [x0, #48]
100002610: 08 0d 00 51 	sub	w8, w8, #3
100002614: 1f 09 00 71 	cmp	w8, #2
100002618: e3 00 00 54 	b.lo	0x100002634 <__ZN4core3ptr125drop_in_place$LT$addr2line..FrameIter$LT$gimli..read..endian_slice..EndianSlice$LT$gimli..endianity..LittleEndian$GT$$GT$$GT$17hbbe28d1b6cefe865E+0x28>
10000261c: 08 00 40 f9 	ldr	x8, [x0]
100002620: a8 00 00 b4 	cbz	x8, 0x100002634 <__ZN4core3ptr125drop_in_place$LT$addr2line..FrameIter$LT$gimli..read..endian_slice..EndianSlice$LT$gimli..endianity..LittleEndian$GT$$GT$$GT$17hbbe28d1b6cefe865E+0x28>
100002624: 00 0c 40 f9 	ldr	x0, [x0, #24]
100002628: 01 f1 7d d3 	lsl	x1, x8, #3
10000262c: 02 01 80 52 	mov	w2, #8
100002630: 5f fd ff 17 	b	0x100001bac <___rust_dealloc>
100002634: c0 03 5f d6 	ret

0000000100002638 <__ZN4core3ptr130drop_in_place$LT$gimli..read..dwarf..Dwarf$LT$gimli..read..endian_slice..EndianSlice$LT$gimli..endianity..LittleEndian$GT$$GT$$GT$17ha6ae337d01e5f2e1E>:
100002638: 08 0c 4d f8 	ldr	x8, [x0, #208]!
10000263c: e8 00 00 b4 	cbz	x8, 0x100002658 <__ZN4core3ptr130drop_in_place$LT$gimli..read..dwarf..Dwarf$LT$gimli..read..endian_slice..EndianSlice$LT$gimli..endianity..LittleEndian$GT$$GT$$GT$17ha6ae337d01e5f2e1E+0x20>
100002640: 09 00 80 92 	mov	x9, #-1
100002644: 08 01 69 f8 	<unknown>
100002648: 1f 05 00 f1 	cmp	x8, #1
10000264c: 61 00 00 54 	b.ne	0x100002658 <__ZN4core3ptr130drop_in_place$LT$gimli..read..dwarf..Dwarf$LT$gimli..read..endian_slice..EndianSlice$LT$gimli..endianity..LittleEndian$GT$$GT$$GT$17ha6ae337d01e5f2e1E+0x20>
100002650: bf 39 03 d5 	dmb	ishld
100002654: 17 13 00 14 	b	0x1000072b0 <__ZN5alloc4sync12Arc$LT$T$GT$9drop_slow17ha84afde1262a5facE>
100002658: c0 03 5f d6 	ret

000000010000265c <__ZN4core3ptr137drop_in_place$LT$gimli..read..dwarf..Unit$LT$gimli..read..endian_slice..EndianSlice$LT$gimli..endianity..LittleEndian$GT$$C$usize$GT$$GT$17hdbb8e02c5c5876b8E>:
10000265c: f4 4f be a9 	stp	x20, x19, [sp, #-32]!
100002660: fd 7b 01 a9 	stp	x29, x30, [sp, #16]
100002664: fd 43 00 91 	add	x29, sp, #16
100002668: f3 03 00 aa 	mov	x19, x0
10000266c: 00 80 00 91 	add	x0, x0, #32
100002670: 88 02 00 94 	bl	0x100003090 <__ZN4core3ptr55drop_in_place$LT$gimli..read..abbrev..Abbreviations$GT$17h527ed8f8312b5c9eE>
100002674: 60 62 03 91 	add	x0, x19, #216
100002678: fd 7b 41 a9 	ldp	x29, x30, [sp, #16]
10000267c: f4 4f c2 a8 	ldp	x20, x19, [sp], #32
100002680: cf 00 00 14 	b	0x1000029bc <__ZN4core3ptr181drop_in_place$LT$core..option..Option$LT$gimli..read..line..IncompleteLineProgram$LT$gimli..read..endian_slice..EndianSlice$LT$gimli..endianity..LittleEndian$GT$$C$usize$GT$$GT$$GT$17ha1fd49f00f3a8c07E>
100002684: f4 03 00 aa 	mov	x20, x0
100002688: 60 62 03 91 	add	x0, x19, #216
10000268c: cc 00 00 94 	bl	0x1000029bc <__ZN4core3ptr181drop_in_place$LT$core..option..Option$LT$gimli..read..line..IncompleteLineProgram$LT$gimli..read..endian_slice..EndianSlice$LT$gimli..endianity..LittleEndian$GT$$C$usize$GT$$GT$$GT$17ha1fd49f00f3a8c07E>
100002690: e0 03 14 aa 	mov	x0, x20
100002694: e0 be 00 94 	bl	0x100032214 <_writev+0x100032214>

0000000100002698 <__ZN4core3ptr144drop_in_place$LT$alloc..vec..Vec$LT$core..option..Option$LT$core..option..Option$LT$std..backtrace_rs..symbolize..gimli..Mapping$GT$$GT$$GT$$GT$17ha3f211ab6683b1cbE>:
100002698: f8 5f bc a9 	stp	x24, x23, [sp, #-64]!
10000269c: f6 57 01 a9 	stp	x22, x21, [sp, #16]
1000026a0: f4 4f 02 a9 	stp	x20, x19, [sp, #32]
1000026a4: fd 7b 03 a9 	stp	x29, x30, [sp, #48]
1000026a8: fd c3 00 91 	add	x29, sp, #48
1000026ac: f3 03 00 aa 	mov	x19, x0
1000026b0: 08 08 40 f9 	ldr	x8, [x0, #16]
1000026b4: c8 01 00 b4 	cbz	x8, 0x1000026ec <__ZN4core3ptr144drop_in_place$LT$alloc..vec..Vec$LT$core..option..Option$LT$core..option..Option$LT$std..backtrace_rs..symbolize..gimli..Mapping$GT$$GT$$GT$$GT$17ha3f211ab6683b1cbE+0x54>
1000026b8: 60 06 40 f9 	ldr	x0, [x19, #8]
1000026bc: 16 20 08 8b 	add	x22, x0, x8, lsl #8
1000026c0: 15 dd 78 d3 	lsl	x21, x8, #8
1000026c4: 04 00 00 14 	b	0x1000026d4 <__ZN4core3ptr144drop_in_place$LT$alloc..vec..Vec$LT$core..option..Option$LT$core..option..Option$LT$std..backtrace_rs..symbolize..gimli..Mapping$GT$$GT$$GT$$GT$17ha3f211ab6683b1cbE+0x3c>
1000026c8: e0 03 14 aa 	mov	x0, x20
1000026cc: b5 02 04 f1 	subs	x21, x21, #256
1000026d0: e0 00 00 54 	b.eq	0x1000026ec <__ZN4core3ptr144drop_in_place$LT$alloc..vec..Vec$LT$core..option..Option$LT$core..option..Option$LT$std..backtrace_rs..symbolize..gimli..Mapping$GT$$GT$$GT$$GT$17ha3f211ab6683b1cbE+0x54>
1000026d4: 14 00 04 91 	add	x20, x0, #256
1000026d8: 08 e0 41 39 	ldrb	w8, [x0, #120]
1000026dc: 1f 05 00 71 	cmp	w8, #1
1000026e0: 48 ff ff 54 	b.hi	0x1000026c8 <__ZN4core3ptr144drop_in_place$LT$alloc..vec..Vec$LT$core..option..Option$LT$core..option..Option$LT$std..backtrace_rs..symbolize..gimli..Mapping$GT$$GT$$GT$$GT$17ha3f211ab6683b1cbE+0x30>
1000026e4: eb 02 00 94 	bl	0x100003290 <__ZN4core3ptr65drop_in_place$LT$std..backtrace_rs..symbolize..gimli..Mapping$GT$17h10b8ec4839ebd09fE>
1000026e8: f8 ff ff 17 	b	0x1000026c8 <__ZN4core3ptr144drop_in_place$LT$alloc..vec..Vec$LT$core..option..Option$LT$core..option..Option$LT$std..backtrace_rs..symbolize..gimli..Mapping$GT$$GT$$GT$$GT$17ha3f211ab6683b1cbE+0x30>
1000026ec: 68 02 40 f9 	ldr	x8, [x19]
1000026f0: 28 01 00 b4 	cbz	x8, 0x100002714 <__ZN4core3ptr144drop_in_place$LT$alloc..vec..Vec$LT$core..option..Option$LT$core..option..Option$LT$std..backtrace_rs..symbolize..gimli..Mapping$GT$$GT$$GT$$GT$17ha3f211ab6683b1cbE+0x7c>
1000026f4: 60 06 40 f9 	ldr	x0, [x19, #8]
1000026f8: 01 dd 78 d3 	lsl	x1, x8, #8
1000026fc: 02 01 80 52 	mov	w2, #8
100002700: fd 7b 43 a9 	ldp	x29, x30, [sp, #48]
100002704: f4 4f 42 a9 	ldp	x20, x19, [sp, #32]
100002708: f6 57 41 a9 	ldp	x22, x21, [sp, #16]
10000270c: f8 5f c4 a8 	ldp	x24, x23, [sp], #64
100002710: 27 fd ff 17 	b	0x100001bac <___rust_dealloc>
100002714: fd 7b 43 a9 	ldp	x29, x30, [sp, #48]
100002718: f4 4f 42 a9 	ldp	x20, x19, [sp, #32]
10000271c: f6 57 41 a9 	ldp	x22, x21, [sp, #16]
100002720: f8 5f c4 a8 	ldp	x24, x23, [sp], #64
100002724: c0 03 5f d6 	ret
100002728: f5 03 00 aa 	mov	x21, x0
10000272c: 9f 02 16 eb 	cmp	x20, x22
100002730: c0 00 00 54 	b.eq	0x100002748 <__ZN4core3ptr144drop_in_place$LT$alloc..vec..Vec$LT$core..option..Option$LT$core..option..Option$LT$std..backtrace_rs..symbolize..gimli..Mapping$GT$$GT$$GT$$GT$17ha3f211ab6683b1cbE+0xb0>
100002734: 97 02 04 91 	add	x23, x20, #256
100002738: e0 03 14 aa 	mov	x0, x20
10000273c: 46 ff ff 97 	bl	0x100002454 <__ZN4core3ptr121drop_in_place$LT$core..option..Option$LT$core..option..Option$LT$std..backtrace_rs..symbolize..gimli..Mapping$GT$$GT$$GT$17hbbec5fe61fe5378bE>
100002740: f4 03 17 aa 	mov	x20, x23
100002744: fa ff ff 17 	b	0x10000272c <__ZN4core3ptr144drop_in_place$LT$alloc..vec..Vec$LT$core..option..Option$LT$core..option..Option$LT$std..backtrace_rs..symbolize..gimli..Mapping$GT$$GT$$GT$$GT$17ha3f211ab6683b1cbE+0x94>
100002748: 60 06 40 a9 	ldp	x0, x1, [x19]
10000274c: 32 00 00 94 	bl	0x100002814 <__ZN4core3ptr151drop_in_place$LT$alloc..raw_vec..RawVec$LT$core..option..Option$LT$core..option..Option$LT$std..backtrace_rs..symbolize..gimli..Mapping$GT$$GT$$GT$$GT$17h60a0e8d99008474aE>
100002750: e0 03 15 aa 	mov	x0, x21
100002754: b0 be 00 94 	bl	0x100032214 <_writev+0x100032214>
100002758: 0f be 00 94 	bl	0x100031f94 <__ZN4core9panicking19panic_cannot_unwind17h96946ae592480b8aE>

000000010000275c <__ZN4core3ptr146drop_in_place$LT$alloc..vec..Vec$LT$addr2line..ResUnit$LT$gimli..read..endian_slice..EndianSlice$LT$gimli..endianity..LittleEndian$GT$$GT$$GT$$GT$17h120e3530aba06d90E>:
10000275c: f8 5f bc a9 	stp	x24, x23, [sp, #-64]!
100002760: f6 57 01 a9 	stp	x22, x21, [sp, #16]
100002764: f4 4f 02 a9 	stp	x20, x19, [sp, #32]
100002768: fd 7b 03 a9 	stp	x29, x30, [sp, #48]
10000276c: fd c3 00 91 	add	x29, sp, #48
100002770: f3 03 00 aa 	mov	x19, x0
100002774: 00 04 40 f9 	ldr	x0, [x0, #8]
100002778: 68 0a 40 f9 	ldr	x8, [x19, #16]
10000277c: 09 46 80 52 	mov	w9, #560
100002780: 15 7d 09 9b 	mul	x21, x8, x9
100002784: 16 00 15 8b 	add	x22, x0, x21
100002788: d5 00 00 b4 	cbz	x21, 0x1000027a0 <__ZN4core3ptr146drop_in_place$LT$alloc..vec..Vec$LT$addr2line..ResUnit$LT$gimli..read..endian_slice..EndianSlice$LT$gimli..endianity..LittleEndian$GT$$GT$$GT$$GT$17h120e3530aba06d90E+0x44>
10000278c: 14 c0 08 91 	add	x20, x0, #560
100002790: b5 c2 08 d1 	sub	x21, x21, #560
100002794: 35 ff ff 97 	bl	0x100002468 <__ZN4core3ptr123drop_in_place$LT$addr2line..ResUnit$LT$gimli..read..endian_slice..EndianSlice$LT$gimli..endianity..LittleEndian$GT$$GT$$GT$17hb4124b14496e1e89E>
100002798: e0 03 14 aa 	mov	x0, x20
10000279c: fb ff ff 17 	b	0x100002788 <__ZN4core3ptr146drop_in_place$LT$alloc..vec..Vec$LT$addr2line..ResUnit$LT$gimli..read..endian_slice..EndianSlice$LT$gimli..endianity..LittleEndian$GT$$GT$$GT$$GT$17h120e3530aba06d90E+0x2c>
1000027a0: 68 02 40 f9 	ldr	x8, [x19]
1000027a4: 48 01 00 b4 	cbz	x8, 0x1000027cc <__ZN4core3ptr146drop_in_place$LT$alloc..vec..Vec$LT$addr2line..ResUnit$LT$gimli..read..endian_slice..EndianSlice$LT$gimli..endianity..LittleEndian$GT$$GT$$GT$$GT$17h120e3530aba06d90E+0x70>
1000027a8: 60 06 40 f9 	ldr	x0, [x19, #8]
1000027ac: 09 46 80 52 	mov	w9, #560
1000027b0: 01 7d 09 9b 	mul	x1, x8, x9
1000027b4: 02 01 80 52 	mov	w2, #8
1000027b8: fd 7b 43 a9 	ldp	x29, x30, [sp, #48]
1000027bc: f4 4f 42 a9 	ldp	x20, x19, [sp, #32]
1000027c0: f6 57 41 a9 	ldp	x22, x21, [sp, #16]
1000027c4: f8 5f c4 a8 	ldp	x24, x23, [sp], #64
1000027c8: f9 fc ff 17 	b	0x100001bac <___rust_dealloc>
1000027cc: fd 7b 43 a9 	ldp	x29, x30, [sp, #48]
1000027d0: f4 4f 42 a9 	ldp	x20, x19, [sp, #32]
1000027d4: f6 57 41 a9 	ldp	x22, x21, [sp, #16]
1000027d8: f8 5f c4 a8 	ldp	x24, x23, [sp], #64
1000027dc: c0 03 5f d6 	ret
1000027e0: f5 03 00 aa 	mov	x21, x0
1000027e4: 9f 02 16 eb 	cmp	x20, x22
1000027e8: c0 00 00 54 	b.eq	0x100002800 <__ZN4core3ptr146drop_in_place$LT$alloc..vec..Vec$LT$addr2line..ResUnit$LT$gimli..read..endian_slice..EndianSlice$LT$gimli..endianity..LittleEndian$GT$$GT$$GT$$GT$17h120e3530aba06d90E+0xa4>
1000027ec: 97 c2 08 91 	add	x23, x20, #560
1000027f0: e0 03 14 aa 	mov	x0, x20
1000027f4: 1d ff ff 97 	bl	0x100002468 <__ZN4core3ptr123drop_in_place$LT$addr2line..ResUnit$LT$gimli..read..endian_slice..EndianSlice$LT$gimli..endianity..LittleEndian$GT$$GT$$GT$17hb4124b14496e1e89E>
1000027f8: f4 03 17 aa 	mov	x20, x23
1000027fc: fa ff ff 17 	b	0x1000027e4 <__ZN4core3ptr146drop_in_place$LT$alloc..vec..Vec$LT$addr2line..ResUnit$LT$gimli..read..endian_slice..EndianSlice$LT$gimli..endianity..LittleEndian$GT$$GT$$GT$$GT$17h120e3530aba06d90E+0x88>
100002800: 60 06 40 a9 	ldp	x0, x1, [x19]
100002804: 0b 00 00 94 	bl	0x100002830 <__ZN4core3ptr153drop_in_place$LT$alloc..raw_vec..RawVec$LT$addr2line..ResUnit$LT$gimli..read..endian_slice..EndianSlice$LT$gimli..endianity..LittleEndian$GT$$GT$$GT$$GT$17hac0204d3a3930b09E>
100002808: e0 03 15 aa 	mov	x0, x21
10000280c: 82 be 00 94 	bl	0x100032214 <_writev+0x100032214>
100002810: e1 bd 00 94 	bl	0x100031f94 <__ZN4core9panicking19panic_cannot_unwind17h96946ae592480b8aE>

0000000100002814 <__ZN4core3ptr151drop_in_place$LT$alloc..raw_vec..RawVec$LT$core..option..Option$LT$core..option..Option$LT$std..backtrace_rs..symbolize..gimli..Mapping$GT$$GT$$GT$$GT$17h60a0e8d99008474aE>:
100002814: c0 00 00 b4 	cbz	x0, 0x10000282c <__ZN4core3ptr151drop_in_place$LT$alloc..raw_vec..RawVec$LT$core..option..Option$LT$core..option..Option$LT$std..backtrace_rs..symbolize..gimli..Mapping$GT$$GT$$GT$$GT$17h60a0e8d99008474aE+0x18>
100002818: 08 dc 78 d3 	lsl	x8, x0, #8
10000281c: e0 03 01 aa 	mov	x0, x1
100002820: e1 03 08 aa 	mov	x1, x8
100002824: 02 01 80 52 	mov	w2, #8
100002828: e1 fc ff 17 	b	0x100001bac <___rust_dealloc>
10000282c: c0 03 5f d6 	ret

0000000100002830 <__ZN4core3ptr153drop_in_place$LT$alloc..raw_vec..RawVec$LT$addr2line..ResUnit$LT$gimli..read..endian_slice..EndianSlice$LT$gimli..endianity..LittleEndian$GT$$GT$$GT$$GT$17hac0204d3a3930b09E>:
100002830: e0 00 00 b4 	cbz	x0, 0x10000284c <__ZN4core3ptr153drop_in_place$LT$alloc..raw_vec..RawVec$LT$addr2line..ResUnit$LT$gimli..read..endian_slice..EndianSlice$LT$gimli..endianity..LittleEndian$GT$$GT$$GT$$GT$17hac0204d3a3930b09E+0x1c>
100002834: 08 46 80 52 	mov	w8, #560
100002838: 08 7c 08 9b 	mul	x8, x0, x8
10000283c: e0 03 01 aa 	mov	x0, x1
100002840: e1 03 08 aa 	mov	x1, x8
100002844: 02 01 80 52 	mov	w2, #8
100002848: d9 fc ff 17 	b	0x100001bac <___rust_dealloc>
10000284c: c0 03 5f d6 	ret

0000000100002850 <__ZN4core3ptr154drop_in_place$LT$alloc..sync..Arc$LT$gimli..read..dwarf..Dwarf$LT$gimli..read..endian_slice..EndianSlice$LT$gimli..endianity..LittleEndian$GT$$GT$$GT$$GT$17he9ccbfa1876da292E>:
100002850: 08 00 40 f9 	ldr	x8, [x0]
100002854: 09 00 80 92 	mov	x9, #-1
100002858: 08 01 69 f8 	<unknown>
10000285c: 1f 05 00 f1 	cmp	x8, #1
100002860: 61 00 00 54 	b.ne	0x10000286c <__ZN4core3ptr154drop_in_place$LT$alloc..sync..Arc$LT$gimli..read..dwarf..Dwarf$LT$gimli..read..endian_slice..EndianSlice$LT$gimli..endianity..LittleEndian$GT$$GT$$GT$$GT$17he9ccbfa1876da292E+0x1c>
100002864: bf 39 03 d5 	dmb	ishld
100002868: 92 12 00 14 	b	0x1000072b0 <__ZN5alloc4sync12Arc$LT$T$GT$9drop_slow17ha84afde1262a5facE>
10000286c: c0 03 5f d6 	ret

0000000100002870 <__ZN4core3ptr159drop_in_place$LT$alloc..sync..ArcInner$LT$gimli..read..dwarf..Dwarf$LT$gimli..read..endian_slice..EndianSlice$LT$gimli..endianity..LittleEndian$GT$$GT$$GT$$GT$17h2c4104788ff6ae0dE>:
100002870: 08 0c 4e f8 	ldr	x8, [x0, #224]!
100002874: e8 00 00 b4 	cbz	x8, 0x100002890 <__ZN4core3ptr159drop_in_place$LT$alloc..sync..ArcInner$LT$gimli..read..dwarf..Dwarf$LT$gimli..read..endian_slice..EndianSlice$LT$gimli..endianity..LittleEndian$GT$$GT$$GT$$GT$17h2c4104788ff6ae0dE+0x20>
100002878: 09 00 80 92 	mov	x9, #-1
10000287c: 08 01 69 f8 	<unknown>
100002880: 1f 05 00 f1 	cmp	x8, #1
100002884: 61 00 00 54 	b.ne	0x100002890 <__ZN4core3ptr159drop_in_place$LT$alloc..sync..ArcInner$LT$gimli..read..dwarf..Dwarf$LT$gimli..read..endian_slice..EndianSlice$LT$gimli..endianity..LittleEndian$GT$$GT$$GT$$GT$17h2c4104788ff6ae0dE+0x20>
100002888: bf 39 03 d5 	dmb	ishld
10000288c: 89 12 00 14 	b	0x1000072b0 <__ZN5alloc4sync12Arc$LT$T$GT$9drop_slow17ha84afde1262a5facE>
100002890: c0 03 5f d6 	ret

0000000100002894 <__ZN4core3ptr164drop_in_place$LT$alloc..vec..Vec$LT$addr2line..function..InlinedFunction$LT$gimli..read..endian_slice..EndianSlice$LT$gimli..endianity..LittleEndian$GT$$GT$$GT$$GT$17h988e497e90c58fb6E>:
100002894: 08 00 40 f9 	ldr	x8, [x0]
100002898: c8 00 00 b4 	cbz	x8, 0x1000028b0 <__ZN4core3ptr164drop_in_place$LT$alloc..vec..Vec$LT$addr2line..function..InlinedFunction$LT$gimli..read..endian_slice..EndianSlice$LT$gimli..endianity..LittleEndian$GT$$GT$$GT$$GT$17h988e497e90c58fb6E+0x1c>
10000289c: 00 04 40 f9 	ldr	x0, [x0, #8]
1000028a0: 08 09 08 8b 	add	x8, x8, x8, lsl #2
1000028a4: 01 f1 7d d3 	lsl	x1, x8, #3
1000028a8: 02 01 80 52 	mov	w2, #8
1000028ac: c0 fc ff 17 	b	0x100001bac <___rust_dealloc>
1000028b0: c0 03 5f d6 	ret

00000001000028b4 <__ZN4core3ptr164drop_in_place$LT$alloc..vec..Vec$LT$gimli..read..line..FileEntry$LT$gimli..read..endian_slice..EndianSlice$LT$gimli..endianity..LittleEndian$GT$$C$usize$GT$$GT$$GT$17h42b38631ffdedf64E>:
1000028b4: 08 00 40 f9 	ldr	x8, [x0]
1000028b8: a8 00 00 b4 	cbz	x8, 0x1000028cc <__ZN4core3ptr164drop_in_place$LT$alloc..vec..Vec$LT$gimli..read..line..FileEntry$LT$gimli..read..endian_slice..EndianSlice$LT$gimli..endianity..LittleEndian$GT$$C$usize$GT$$GT$$GT$17h42b38631ffdedf64E+0x18>
1000028bc: 00 04 40 f9 	ldr	x0, [x0, #8]
1000028c0: 01 e5 7a d3 	lsl	x1, x8, #6
1000028c4: 02 01 80 52 	mov	w2, #8
1000028c8: b9 fc ff 17 	b	0x100001bac <___rust_dealloc>
1000028cc: c0 03 5f d6 	ret

00000001000028d0 <__ZN4core3ptr168drop_in_place$LT$alloc..vec..Vec$LT$$RF$addr2line..function..InlinedFunction$LT$gimli..read..endian_slice..EndianSlice$LT$gimli..endianity..LittleEndian$GT$$GT$$GT$$GT$17h7a1cb6bfab59a95aE>:
1000028d0: c0 00 00 b4 	cbz	x0, 0x1000028e8 <__ZN4core3ptr168drop_in_place$LT$alloc..vec..Vec$LT$$RF$addr2line..function..InlinedFunction$LT$gimli..read..endian_slice..EndianSlice$LT$gimli..endianity..LittleEndian$GT$$GT$$GT$$GT$17h7a1cb6bfab59a95aE+0x18>
1000028d4: 08 f0 7d d3 	lsl	x8, x0, #3
1000028d8: e0 03 01 aa 	mov	x0, x1
1000028dc: e1 03 08 aa 	mov	x1, x8
1000028e0: 02 01 80 52 	mov	w2, #8
1000028e4: b2 fc ff 17 	b	0x100001bac <___rust_dealloc>
1000028e8: c0 03 5f d6 	ret

00000001000028ec <__ZN4core3ptr169drop_in_place$LT$alloc..vec..Vec$LT$gimli..read..unit..AttributeValue$LT$gimli..read..endian_slice..EndianSlice$LT$gimli..endianity..LittleEndian$GT$$C$usize$GT$$GT$$GT$17h1a1133fe3bc254eeE>:
1000028ec: 08 00 40 f9 	ldr	x8, [x0]
1000028f0: c8 00 00 b4 	cbz	x8, 0x100002908 <__ZN4core3ptr169drop_in_place$LT$alloc..vec..Vec$LT$gimli..read..unit..AttributeValue$LT$gimli..read..endian_slice..EndianSlice$LT$gimli..endianity..LittleEndian$GT$$C$usize$GT$$GT$$GT$17h1a1133fe3bc254eeE+0x1c>
1000028f4: 00 04 40 f9 	ldr	x0, [x0, #8]
1000028f8: 08 05 08 8b 	add	x8, x8, x8, lsl #1
1000028fc: 01 f1 7d d3 	lsl	x1, x8, #3
100002900: 02 01 80 52 	mov	w2, #8
100002904: aa fc ff 17 	b	0x100001bac <___rust_dealloc>
100002908: c0 03 5f d6 	ret

000000010000290c <__ZN4core3ptr169drop_in_place$LT$std..sync..remutex..ReentrantMutexGuard$LT$core..cell..RefCell$LT$std..io..buffered..linewriter..LineWriter$LT$std..io..stdio..StdoutRaw$GT$$GT$$GT$$GT$17hbb0bd1e478058badE>:
10000290c: fd 7b bf a9 	stp	x29, x30, [sp, #-16]!
100002910: fd 03 00 91 	mov	x29, sp
100002914: 08 38 40 b9 	ldr	w8, [x0, #56]
100002918: 08 05 00 71 	subs	w8, w8, #1
10000291c: 08 38 00 b9 	str	w8, [x0, #56]
100002920: 60 00 00 54 	b.eq	0x10000292c <__ZN4core3ptr169drop_in_place$LT$std..sync..remutex..ReentrantMutexGuard$LT$core..cell..RefCell$LT$std..io..buffered..linewriter..LineWriter$LT$std..io..stdio..StdoutRaw$GT$$GT$$GT$$GT$17hbb0bd1e478058badE+0x20>
100002924: fd 7b c1 a8 	ldp	x29, x30, [sp], #16
100002928: c0 03 5f d6 	ret
10000292c: 1f 04 00 f9 	str	xzr, [x0, #8]
100002930: 08 fc df c8 	ldar	x8, [x0]
100002934: 88 00 00 b4 	cbz	x8, 0x100002944 <__ZN4core3ptr169drop_in_place$LT$std..sync..remutex..ReentrantMutexGuard$LT$core..cell..RefCell$LT$std..io..buffered..linewriter..LineWriter$LT$std..io..stdio..StdoutRaw$GT$$GT$$GT$$GT$17hbb0bd1e478058badE+0x38>
100002938: e0 03 08 aa 	mov	x0, x8
10000293c: fd 7b c1 a8 	ldp	x29, x30, [sp], #16
100002940: a7 be 00 14 	b	0x1000323dc <_writev+0x1000323dc>
100002944: 4c bb 00 94 	bl	0x100031674 <__ZN3std10sys_common8lazy_box16LazyBox$LT$T$GT$10initialize17h9622545c4db8899fE>
100002948: e8 03 00 aa 	mov	x8, x0
10000294c: fb ff ff 17 	b	0x100002938 <__ZN4core3ptr169drop_in_place$LT$std..sync..remutex..ReentrantMutexGuard$LT$core..cell..RefCell$LT$std..io..buffered..linewriter..LineWriter$LT$std..io..stdio..StdoutRaw$GT$$GT$$GT$$GT$17hbb0bd1e478058badE+0x2c>

0000000100002950 <__ZN4core3ptr176drop_in_place$LT$alloc..boxed..Box$LT$$u5b$addr2line..function..InlinedFunction$LT$gimli..read..endian_slice..EndianSlice$LT$gimli..endianity..LittleEndian$GT$$GT$$u5d$$GT$$GT$17hdb9b4ca5dadd773aE>:
100002950: a1 00 00 b4 	cbz	x1, 0x100002964 <__ZN4core3ptr176drop_in_place$LT$alloc..boxed..Box$LT$$u5b$addr2line..function..InlinedFunction$LT$gimli..read..endian_slice..EndianSlice$LT$gimli..endianity..LittleEndian$GT$$GT$$u5d$$GT$$GT$17hdb9b4ca5dadd773aE+0x14>
100002954: 28 08 01 8b 	add	x8, x1, x1, lsl #2
100002958: 01 f1 7d d3 	lsl	x1, x8, #3
10000295c: 02 01 80 52 	mov	w2, #8
100002960: 93 fc ff 17 	b	0x100001bac <___rust_dealloc>
100002964: c0 03 5f d6 	ret

0000000100002968 <__ZN4core3ptr177drop_in_place$LT$core..option..Option$LT$alloc..boxed..Box$LT$addr2line..ResDwarf$LT$gimli..read..endian_slice..EndianSlice$LT$gimli..endianity..LittleEndian$GT$$GT$$GT$$GT$$GT$17h077802e12921af6eE>:
100002968: f4 4f be a9 	stp	x20, x19, [sp, #-32]!
10000296c: fd 7b 01 a9 	stp	x29, x30, [sp, #16]
100002970: fd 43 00 91 	add	x29, sp, #16
100002974: f3 03 00 aa 	mov	x19, x0
100002978: 00 00 40 f9 	ldr	x0, [x0]
10000297c: 00 01 00 b4 	cbz	x0, 0x10000299c <__ZN4core3ptr177drop_in_place$LT$core..option..Option$LT$alloc..boxed..Box$LT$addr2line..ResDwarf$LT$gimli..read..endian_slice..EndianSlice$LT$gimli..endianity..LittleEndian$GT$$GT$$GT$$GT$$GT$17h077802e12921af6eE+0x34>
100002980: d8 fe ff 97 	bl	0x1000024e0 <__ZN4core3ptr124drop_in_place$LT$addr2line..ResDwarf$LT$gimli..read..endian_slice..EndianSlice$LT$gimli..endianity..LittleEndian$GT$$GT$$GT$17h7022d754d85cab9aE>
100002984: 60 02 40 f9 	ldr	x0, [x19]
100002988: 01 08 80 52 	mov	w1, #64
10000298c: 02 01 80 52 	mov	w2, #8
100002990: fd 7b 41 a9 	ldp	x29, x30, [sp, #16]
100002994: f4 4f c2 a8 	ldp	x20, x19, [sp], #32
100002998: 85 fc ff 17 	b	0x100001bac <___rust_dealloc>
10000299c: fd 7b 41 a9 	ldp	x29, x30, [sp, #16]
1000029a0: f4 4f c2 a8 	ldp	x20, x19, [sp], #32
1000029a4: c0 03 5f d6 	ret
1000029a8: f4 03 00 aa 	mov	x20, x0
1000029ac: 60 02 40 f9 	ldr	x0, [x19]
1000029b0: 6d 12 00 94 	bl	0x100007364 <__ZN5alloc5alloc8box_free17h328b2d346ba2467bE>
1000029b4: e0 03 14 aa 	mov	x0, x20
1000029b8: 17 be 00 94 	bl	0x100032214 <_writev+0x100032214>

00000001000029bc <__ZN4core3ptr181drop_in_place$LT$core..option..Option$LT$gimli..read..line..IncompleteLineProgram$LT$gimli..read..endian_slice..EndianSlice$LT$gimli..endianity..LittleEndian$GT$$C$usize$GT$$GT$$GT$17ha1fd49f00f3a8c07E>:
1000029bc: f4 4f be a9 	stp	x20, x19, [sp, #-32]!
1000029c0: fd 7b 01 a9 	stp	x29, x30, [sp, #16]
1000029c4: fd 43 00 91 	add	x29, sp, #16
1000029c8: 08 14 40 f9 	ldr	x8, [x0, #40]
1000029cc: 1f bd 00 f1 	cmp	x8, #47
1000029d0: a0 03 00 54 	b.eq	0x100002a44 <__ZN4core3ptr181drop_in_place$LT$core..option..Option$LT$gimli..read..line..IncompleteLineProgram$LT$gimli..read..endian_slice..EndianSlice$LT$gimli..endianity..LittleEndian$GT$$C$usize$GT$$GT$$GT$17ha1fd49f00f3a8c07E+0x88>
1000029d4: f3 03 00 aa 	mov	x19, x0
1000029d8: 08 44 40 f9 	ldr	x8, [x0, #136]
1000029dc: a8 00 00 b4 	cbz	x8, 0x1000029f0 <__ZN4core3ptr181drop_in_place$LT$core..option..Option$LT$gimli..read..line..IncompleteLineProgram$LT$gimli..read..endian_slice..EndianSlice$LT$gimli..endianity..LittleEndian$GT$$C$usize$GT$$GT$$GT$17ha1fd49f00f3a8c07E+0x34>
1000029e0: 60 4a 40 f9 	ldr	x0, [x19, #144]
1000029e4: 01 f5 7e d3 	lsl	x1, x8, #2
1000029e8: 42 00 80 52 	mov	w2, #2
1000029ec: 70 fc ff 97 	bl	0x100001bac <___rust_dealloc>
1000029f0: 68 52 40 f9 	ldr	x8, [x19, #160]
1000029f4: c8 00 00 b4 	cbz	x8, 0x100002a0c <__ZN4core3ptr181drop_in_place$LT$core..option..Option$LT$gimli..read..line..IncompleteLineProgram$LT$gimli..read..endian_slice..EndianSlice$LT$gimli..endianity..LittleEndian$GT$$C$usize$GT$$GT$$GT$17ha1fd49f00f3a8c07E+0x50>
1000029f8: 60 56 40 f9 	ldr	x0, [x19, #168]
1000029fc: 08 05 08 8b 	add	x8, x8, x8, lsl #1
100002a00: 01 f1 7d d3 	lsl	x1, x8, #3
100002a04: 02 01 80 52 	mov	w2, #8
100002a08: 69 fc ff 97 	bl	0x100001bac <___rust_dealloc>
100002a0c: 68 5e 40 f9 	ldr	x8, [x19, #184]
100002a10: a8 00 00 b4 	cbz	x8, 0x100002a24 <__ZN4core3ptr181drop_in_place$LT$core..option..Option$LT$gimli..read..line..IncompleteLineProgram$LT$gimli..read..endian_slice..EndianSlice$LT$gimli..endianity..LittleEndian$GT$$C$usize$GT$$GT$$GT$17ha1fd49f00f3a8c07E+0x68>
100002a14: 60 62 40 f9 	ldr	x0, [x19, #192]
100002a18: 01 f5 7e d3 	lsl	x1, x8, #2
100002a1c: 42 00 80 52 	mov	w2, #2
100002a20: 63 fc ff 97 	bl	0x100001bac <___rust_dealloc>
100002a24: 68 6a 40 f9 	ldr	x8, [x19, #208]
100002a28: e8 00 00 b4 	cbz	x8, 0x100002a44 <__ZN4core3ptr181drop_in_place$LT$core..option..Option$LT$gimli..read..line..IncompleteLineProgram$LT$gimli..read..endian_slice..EndianSlice$LT$gimli..endianity..LittleEndian$GT$$C$usize$GT$$GT$$GT$17ha1fd49f00f3a8c07E+0x88>
100002a2c: 60 6e 40 f9 	ldr	x0, [x19, #216]
100002a30: 01 e5 7a d3 	lsl	x1, x8, #6
100002a34: 02 01 80 52 	mov	w2, #8
100002a38: fd 7b 41 a9 	ldp	x29, x30, [sp, #16]
100002a3c: f4 4f c2 a8 	ldp	x20, x19, [sp], #32
100002a40: 5b fc ff 17 	b	0x100001bac <___rust_dealloc>
100002a44: fd 7b 41 a9 	ldp	x29, x30, [sp, #16]
100002a48: f4 4f c2 a8 	ldp	x20, x19, [sp], #32
100002a4c: c0 03 5f d6 	ret

0000000100002a50 <__ZN4core3ptr184drop_in_place$LT$core..result..Result$LT$addr2line..function..Functions$LT$gimli..read..endian_slice..EndianSlice$LT$gimli..endianity..LittleEndian$GT$$GT$$C$gimli..read..Error$GT$$GT$17h7f843c92bbfcd967E>:
100002a50: f6 57 bd a9 	stp	x22, x21, [sp, #-48]!
100002a54: f4 4f 01 a9 	stp	x20, x19, [sp, #16]
100002a58: fd 7b 02 a9 	stp	x29, x30, [sp, #32]
100002a5c: fd 83 00 91 	add	x29, sp, #32
100002a60: 08 00 40 f9 	ldr	x8, [x0]
100002a64: a8 05 00 b4 	cbz	x8, 0x100002b18 <__ZN4core3ptr184drop_in_place$LT$core..result..Result$LT$addr2line..function..Functions$LT$gimli..read..endian_slice..EndianSlice$LT$gimli..endianity..LittleEndian$GT$$GT$$C$gimli..read..Error$GT$$GT$17h7f843c92bbfcd967E+0xc8>
100002a68: f3 03 00 aa 	mov	x19, x0
100002a6c: 09 04 40 f9 	ldr	x9, [x0, #8]
100002a70: 09 04 00 b4 	cbz	x9, 0x100002af0 <__ZN4core3ptr184drop_in_place$LT$core..result..Result$LT$addr2line..function..Functions$LT$gimli..read..endian_slice..EndianSlice$LT$gimli..endianity..LittleEndian$GT$$GT$$C$gimli..read..Error$GT$$GT$17h7f843c92bbfcd967E+0xa0>
100002a74: 14 e1 00 91 	add	x20, x8, #56
100002a78: 28 0d 09 8b 	add	x8, x9, x9, lsl #3
100002a7c: 15 f1 7d d3 	lsl	x21, x8, #3
100002a80: 04 00 00 14 	b	0x100002a90 <__ZN4core3ptr184drop_in_place$LT$core..result..Result$LT$addr2line..function..Functions$LT$gimli..read..endian_slice..EndianSlice$LT$gimli..endianity..LittleEndian$GT$$GT$$C$gimli..read..Error$GT$$GT$17h7f843c92bbfcd967E+0x40>
100002a84: 94 22 01 91 	add	x20, x20, #72
100002a88: b5 22 01 f1 	subs	x21, x21, #72
100002a8c: 40 02 00 54 	b.eq	0x100002ad4 <__ZN4core3ptr184drop_in_place$LT$core..result..Result$LT$addr2line..function..Functions$LT$gimli..read..endian_slice..EndianSlice$LT$gimli..endianity..LittleEndian$GT$$GT$$C$gimli..read..Error$GT$$GT$17h7f843c92bbfcd967E+0x84>
100002a90: 88 02 5d f8 	ldur	x8, [x20, #-48]
100002a94: 88 ff ff b4 	cbz	x8, 0x100002a84 <__ZN4core3ptr184drop_in_place$LT$core..result..Result$LT$addr2line..function..Functions$LT$gimli..read..endian_slice..EndianSlice$LT$gimli..endianity..LittleEndian$GT$$GT$$C$gimli..read..Error$GT$$GT$17h7f843c92bbfcd967E+0x34>
100002a98: 80 82 5e f8 	ldur	x0, [x20, #-24]
100002a9c: 40 ff ff b4 	cbz	x0, 0x100002a84 <__ZN4core3ptr184drop_in_place$LT$core..result..Result$LT$addr2line..function..Functions$LT$gimli..read..endian_slice..EndianSlice$LT$gimli..endianity..LittleEndian$GT$$GT$$C$gimli..read..Error$GT$$GT$17h7f843c92bbfcd967E+0x34>
100002aa0: 88 02 5f f8 	ldur	x8, [x20, #-16]
100002aa4: a8 00 00 b4 	cbz	x8, 0x100002ab8 <__ZN4core3ptr184drop_in_place$LT$core..result..Result$LT$addr2line..function..Functions$LT$gimli..read..endian_slice..EndianSlice$LT$gimli..endianity..LittleEndian$GT$$GT$$C$gimli..read..Error$GT$$GT$17h7f843c92bbfcd967E+0x68>
100002aa8: 08 09 08 8b 	add	x8, x8, x8, lsl #2
100002aac: 01 f1 7d d3 	lsl	x1, x8, #3
100002ab0: 02 01 80 52 	mov	w2, #8
100002ab4: 3e fc ff 97 	bl	0x100001bac <___rust_dealloc>
100002ab8: 88 02 40 f9 	ldr	x8, [x20]
100002abc: 48 fe ff b4 	cbz	x8, 0x100002a84 <__ZN4core3ptr184drop_in_place$LT$core..result..Result$LT$addr2line..function..Functions$LT$gimli..read..endian_slice..EndianSlice$LT$gimli..endianity..LittleEndian$GT$$GT$$C$gimli..read..Error$GT$$GT$17h7f843c92bbfcd967E+0x34>
100002ac0: 80 82 5f f8 	ldur	x0, [x20, #-8]
100002ac4: 01 e9 7b d3 	lsl	x1, x8, #5
100002ac8: 02 01 80 52 	mov	w2, #8
100002acc: 38 fc ff 97 	bl	0x100001bac <___rust_dealloc>
100002ad0: ed ff ff 17 	b	0x100002a84 <__ZN4core3ptr184drop_in_place$LT$core..result..Result$LT$addr2line..function..Functions$LT$gimli..read..endian_slice..EndianSlice$LT$gimli..endianity..LittleEndian$GT$$GT$$C$gimli..read..Error$GT$$GT$17h7f843c92bbfcd967E+0x34>
100002ad4: 68 06 40 f9 	ldr	x8, [x19, #8]
100002ad8: c8 00 00 b4 	cbz	x8, 0x100002af0 <__ZN4core3ptr184drop_in_place$LT$core..result..Result$LT$addr2line..function..Functions$LT$gimli..read..endian_slice..EndianSlice$LT$gimli..endianity..LittleEndian$GT$$GT$$C$gimli..read..Error$GT$$GT$17h7f843c92bbfcd967E+0xa0>
100002adc: 60 02 40 f9 	ldr	x0, [x19]
100002ae0: 08 0d 08 8b 	add	x8, x8, x8, lsl #3
100002ae4: 01 f1 7d d3 	lsl	x1, x8, #3
100002ae8: 02 01 80 52 	mov	w2, #8
100002aec: 30 fc ff 97 	bl	0x100001bac <___rust_dealloc>
100002af0: 68 0e 40 f9 	ldr	x8, [x19, #24]
100002af4: 28 01 00 b4 	cbz	x8, 0x100002b18 <__ZN4core3ptr184drop_in_place$LT$core..result..Result$LT$addr2line..function..Functions$LT$gimli..read..endian_slice..EndianSlice$LT$gimli..endianity..LittleEndian$GT$$GT$$C$gimli..read..Error$GT$$GT$17h7f843c92bbfcd967E+0xc8>
100002af8: 60 0a 40 f9 	ldr	x0, [x19, #16]
100002afc: 08 05 08 8b 	add	x8, x8, x8, lsl #1
100002b00: 01 f1 7d d3 	lsl	x1, x8, #3
100002b04: 02 01 80 52 	mov	w2, #8
100002b08: fd 7b 42 a9 	ldp	x29, x30, [sp, #32]
100002b0c: f4 4f 41 a9 	ldp	x20, x19, [sp, #16]
100002b10: f6 57 c3 a8 	ldp	x22, x21, [sp], #48
100002b14: 26 fc ff 17 	b	0x100001bac <___rust_dealloc>
100002b18: fd 7b 42 a9 	ldp	x29, x30, [sp, #32]
100002b1c: f4 4f 41 a9 	ldp	x20, x19, [sp, #16]
100002b20: f6 57 c3 a8 	ldp	x22, x21, [sp], #48
100002b24: c0 03 5f d6 	ret

0000000100002b28 <__ZN4core3ptr205drop_in_place$LT$$LT$alloc..boxed..Box$LT$dyn$u20$core..error..Error$u2b$core..marker..Sync$u2b$core..marker..Send$GT$$u20$as$u20$core..convert..From$LT$alloc..string..String$GT$$GT$..from..StringError$GT$17hd77eda84c3ac6f7aE>:
100002b28: 01 00 40 f9 	ldr	x1, [x0]
100002b2c: 81 00 00 b4 	cbz	x1, 0x100002b3c <__ZN4core3ptr205drop_in_place$LT$$LT$alloc..boxed..Box$LT$dyn$u20$core..error..Error$u2b$core..marker..Sync$u2b$core..marker..Send$GT$$u20$as$u20$core..convert..From$LT$alloc..string..String$GT$$GT$..from..StringError$GT$17hd77eda84c3ac6f7aE+0x14>
100002b30: 00 04 40 f9 	ldr	x0, [x0, #8]
100002b34: 22 00 80 52 	mov	w2, #1
100002b38: 1d fc ff 17 	b	0x100001bac <___rust_dealloc>
100002b3c: c0 03 5f d6 	ret

0000000100002b40 <__ZN4core3ptr217drop_in_place$LT$addr2line..lazy..LazyCell$LT$core..result..Result$LT$addr2line..function..Functions$LT$gimli..read..endian_slice..EndianSlice$LT$gimli..endianity..LittleEndian$GT$$GT$$C$gimli..read..Error$GT$$GT$$GT$17h93f11ffb04dd0a0aE>:
100002b40: 08 00 40 f9 	ldr	x8, [x0]
100002b44: 68 00 00 b4 	cbz	x8, 0x100002b50 <__ZN4core3ptr217drop_in_place$LT$addr2line..lazy..LazyCell$LT$core..result..Result$LT$addr2line..function..Functions$LT$gimli..read..endian_slice..EndianSlice$LT$gimli..endianity..LittleEndian$GT$$GT$$C$gimli..read..Error$GT$$GT$$GT$17h93f11ffb04dd0a0aE+0x10>
100002b48: 00 20 00 91 	add	x0, x0, #8
100002b4c: c1 ff ff 17 	b	0x100002a50 <__ZN4core3ptr184drop_in_place$LT$core..result..Result$LT$addr2line..function..Functions$LT$gimli..read..endian_slice..EndianSlice$LT$gimli..endianity..LittleEndian$GT$$GT$$C$gimli..read..Error$GT$$GT$17h7f843c92bbfcd967E>
100002b50: c0 03 5f d6 	ret

0000000100002b54 <__ZN4core3ptr250drop_in_place$LT$$LP$gimli..read..UnitOffset$C$addr2line..lazy..LazyCell$LT$core..result..Result$LT$addr2line..function..Function$LT$gimli..read..endian_slice..EndianSlice$LT$gimli..endianity..LittleEndian$GT$$GT$$C$gimli..read..Error$GT$$GT$$RP$$GT$17hb7c161727398eb67E>:
100002b54: f4 4f be a9 	stp	x20, x19, [sp, #-32]!
100002b58: fd 7b 01 a9 	stp	x29, x30, [sp, #16]
100002b5c: fd 43 00 91 	add	x29, sp, #16
100002b60: 08 04 40 f9 	ldr	x8, [x0, #8]
100002b64: 48 02 00 b4 	cbz	x8, 0x100002bac <__ZN4core3ptr250drop_in_place$LT$$LP$gimli..read..UnitOffset$C$addr2line..lazy..LazyCell$LT$core..result..Result$LT$addr2line..function..Function$LT$gimli..read..endian_slice..EndianSlice$LT$gimli..endianity..LittleEndian$GT$$GT$$C$gimli..read..Error$GT$$GT$$RP$$GT$17hb7c161727398eb67E+0x58>
100002b68: f3 03 00 aa 	mov	x19, x0
100002b6c: 00 10 40 f9 	ldr	x0, [x0, #32]
100002b70: e0 01 00 b4 	cbz	x0, 0x100002bac <__ZN4core3ptr250drop_in_place$LT$$LP$gimli..read..UnitOffset$C$addr2line..lazy..LazyCell$LT$core..result..Result$LT$addr2line..function..Function$LT$gimli..read..endian_slice..EndianSlice$LT$gimli..endianity..LittleEndian$GT$$GT$$C$gimli..read..Error$GT$$GT$$RP$$GT$17hb7c161727398eb67E+0x58>
100002b74: 68 16 40 f9 	ldr	x8, [x19, #40]
100002b78: a8 00 00 b4 	cbz	x8, 0x100002b8c <__ZN4core3ptr250drop_in_place$LT$$LP$gimli..read..UnitOffset$C$addr2line..lazy..LazyCell$LT$core..result..Result$LT$addr2line..function..Function$LT$gimli..read..endian_slice..EndianSlice$LT$gimli..endianity..LittleEndian$GT$$GT$$C$gimli..read..Error$GT$$GT$$RP$$GT$17hb7c161727398eb67E+0x38>
100002b7c: 08 09 08 8b 	add	x8, x8, x8, lsl #2
100002b80: 01 f1 7d d3 	lsl	x1, x8, #3
100002b84: 02 01 80 52 	mov	w2, #8
100002b88: 09 fc ff 97 	bl	0x100001bac <___rust_dealloc>
100002b8c: 68 1e 40 f9 	ldr	x8, [x19, #56]
100002b90: e8 00 00 b4 	cbz	x8, 0x100002bac <__ZN4core3ptr250drop_in_place$LT$$LP$gimli..read..UnitOffset$C$addr2line..lazy..LazyCell$LT$core..result..Result$LT$addr2line..function..Function$LT$gimli..read..endian_slice..EndianSlice$LT$gimli..endianity..LittleEndian$GT$$GT$$C$gimli..read..Error$GT$$GT$$RP$$GT$17hb7c161727398eb67E+0x58>
100002b94: 60 1a 40 f9 	ldr	x0, [x19, #48]
100002b98: 01 e9 7b d3 	lsl	x1, x8, #5
100002b9c: 02 01 80 52 	mov	w2, #8
100002ba0: fd 7b 41 a9 	ldp	x29, x30, [sp, #16]
100002ba4: f4 4f c2 a8 	ldp	x20, x19, [sp], #32
100002ba8: 01 fc ff 17 	b	0x100001bac <___rust_dealloc>
100002bac: fd 7b 41 a9 	ldp	x29, x30, [sp, #16]
100002bb0: f4 4f c2 a8 	ldp	x20, x19, [sp], #32
100002bb4: c0 03 5f d6 	ret

0000000100002bb8 <__ZN4core3ptr273drop_in_place$LT$alloc..vec..Vec$LT$$LP$gimli..read..UnitOffset$C$addr2line..lazy..LazyCell$LT$core..result..Result$LT$addr2line..function..Function$LT$gimli..read..endian_slice..EndianSlice$LT$gimli..endianity..LittleEndian$GT$$GT$$C$gimli..read..Error$GT$$GT$$RP$$GT$$GT$17h0503a970b0ee141aE>:
100002bb8: f6 57 bd a9 	stp	x22, x21, [sp, #-48]!
100002bbc: f4 4f 01 a9 	stp	x20, x19, [sp, #16]
100002bc0: fd 7b 02 a9 	stp	x29, x30, [sp, #32]
100002bc4: fd 83 00 91 	add	x29, sp, #32
100002bc8: f3 03 00 aa 	mov	x19, x0
100002bcc: 08 08 40 f9 	ldr	x8, [x0, #16]
100002bd0: 48 03 00 b4 	cbz	x8, 0x100002c38 <__ZN4core3ptr273drop_in_place$LT$alloc..vec..Vec$LT$$LP$gimli..read..UnitOffset$C$addr2line..lazy..LazyCell$LT$core..result..Result$LT$addr2line..function..Function$LT$gimli..read..endian_slice..EndianSlice$LT$gimli..endianity..LittleEndian$GT$$GT$$C$gimli..read..Error$GT$$GT$$RP$$GT$$GT$17h0503a970b0ee141aE+0x80>
100002bd4: 69 06 40 f9 	ldr	x9, [x19, #8]
100002bd8: 34 e1 00 91 	add	x20, x9, #56
100002bdc: 08 0d 08 8b 	add	x8, x8, x8, lsl #3
100002be0: 15 f1 7d d3 	lsl	x21, x8, #3
100002be4: 04 00 00 14 	b	0x100002bf4 <__ZN4core3ptr273drop_in_place$LT$alloc..vec..Vec$LT$$LP$gimli..read..UnitOffset$C$addr2line..lazy..LazyCell$LT$core..result..Result$LT$addr2line..function..Function$LT$gimli..read..endian_slice..EndianSlice$LT$gimli..endianity..LittleEndian$GT$$GT$$C$gimli..read..Error$GT$$GT$$RP$$GT$$GT$17h0503a970b0ee141aE+0x3c>
100002be8: 94 22 01 91 	add	x20, x20, #72
100002bec: b5 22 01 f1 	subs	x21, x21, #72
100002bf0: 40 02 00 54 	b.eq	0x100002c38 <__ZN4core3ptr273drop_in_place$LT$alloc..vec..Vec$LT$$LP$gimli..read..UnitOffset$C$addr2line..lazy..LazyCell$LT$core..result..Result$LT$addr2line..function..Function$LT$gimli..read..endian_slice..EndianSlice$LT$gimli..endianity..LittleEndian$GT$$GT$$C$gimli..read..Error$GT$$GT$$RP$$GT$$GT$17h0503a970b0ee141aE+0x80>
100002bf4: 88 02 5d f8 	ldur	x8, [x20, #-48]
100002bf8: 88 ff ff b4 	cbz	x8, 0x100002be8 <__ZN4core3ptr273drop_in_place$LT$alloc..vec..Vec$LT$$LP$gimli..read..UnitOffset$C$addr2line..lazy..LazyCell$LT$core..result..Result$LT$addr2line..function..Function$LT$gimli..read..endian_slice..EndianSlice$LT$gimli..endianity..LittleEndian$GT$$GT$$C$gimli..read..Error$GT$$GT$$RP$$GT$$GT$17h0503a970b0ee141aE+0x30>
100002bfc: 80 82 5e f8 	ldur	x0, [x20, #-24]
100002c00: 40 ff ff b4 	cbz	x0, 0x100002be8 <__ZN4core3ptr273drop_in_place$LT$alloc..vec..Vec$LT$$LP$gimli..read..UnitOffset$C$addr2line..lazy..LazyCell$LT$core..result..Result$LT$addr2line..function..Function$LT$gimli..read..endian_slice..EndianSlice$LT$gimli..endianity..LittleEndian$GT$$GT$$C$gimli..read..Error$GT$$GT$$RP$$GT$$GT$17h0503a970b0ee141aE+0x30>
100002c04: 88 02 5f f8 	ldur	x8, [x20, #-16]
100002c08: a8 00 00 b4 	cbz	x8, 0x100002c1c <__ZN4core3ptr273drop_in_place$LT$alloc..vec..Vec$LT$$LP$gimli..read..UnitOffset$C$addr2line..lazy..LazyCell$LT$core..result..Result$LT$addr2line..function..Function$LT$gimli..read..endian_slice..EndianSlice$LT$gimli..endianity..LittleEndian$GT$$GT$$C$gimli..read..Error$GT$$GT$$RP$$GT$$GT$17h0503a970b0ee141aE+0x64>
100002c0c: 08 09 08 8b 	add	x8, x8, x8, lsl #2
100002c10: 01 f1 7d d3 	lsl	x1, x8, #3
100002c14: 02 01 80 52 	mov	w2, #8
100002c18: e5 fb ff 97 	bl	0x100001bac <___rust_dealloc>
100002c1c: 88 02 40 f9 	ldr	x8, [x20]
100002c20: 48 fe ff b4 	cbz	x8, 0x100002be8 <__ZN4core3ptr273drop_in_place$LT$alloc..vec..Vec$LT$$LP$gimli..read..UnitOffset$C$addr2line..lazy..LazyCell$LT$core..result..Result$LT$addr2line..function..Function$LT$gimli..read..endian_slice..EndianSlice$LT$gimli..endianity..LittleEndian$GT$$GT$$C$gimli..read..Error$GT$$GT$$RP$$GT$$GT$17h0503a970b0ee141aE+0x30>
100002c24: 80 82 5f f8 	ldur	x0, [x20, #-8]
100002c28: 01 e9 7b d3 	lsl	x1, x8, #5
100002c2c: 02 01 80 52 	mov	w2, #8
100002c30: df fb ff 97 	bl	0x100001bac <___rust_dealloc>
100002c34: ed ff ff 17 	b	0x100002be8 <__ZN4core3ptr273drop_in_place$LT$alloc..vec..Vec$LT$$LP$gimli..read..UnitOffset$C$addr2line..lazy..LazyCell$LT$core..result..Result$LT$addr2line..function..Function$LT$gimli..read..endian_slice..EndianSlice$LT$gimli..endianity..LittleEndian$GT$$GT$$C$gimli..read..Error$GT$$GT$$RP$$GT$$GT$17h0503a970b0ee141aE+0x30>
100002c38: 68 02 40 f9 	ldr	x8, [x19]
100002c3c: 28 01 00 b4 	cbz	x8, 0x100002c60 <__ZN4core3ptr273drop_in_place$LT$alloc..vec..Vec$LT$$LP$gimli..read..UnitOffset$C$addr2line..lazy..LazyCell$LT$core..result..Result$LT$addr2line..function..Function$LT$gimli..read..endian_slice..EndianSlice$LT$gimli..endianity..LittleEndian$GT$$GT$$C$gimli..read..Error$GT$$GT$$RP$$GT$$GT$17h0503a970b0ee141aE+0xa8>
100002c40: 60 06 40 f9 	ldr	x0, [x19, #8]
100002c44: 08 0d 08 8b 	add	x8, x8, x8, lsl #3
100002c48: 01 f1 7d d3 	lsl	x1, x8, #3
100002c4c: 02 01 80 52 	mov	w2, #8
100002c50: fd 7b 42 a9 	ldp	x29, x30, [sp, #32]
100002c54: f4 4f 41 a9 	ldp	x20, x19, [sp, #16]
100002c58: f6 57 c3 a8 	ldp	x22, x21, [sp], #48
100002c5c: d4 fb ff 17 	b	0x100001bac <___rust_dealloc>
100002c60: fd 7b 42 a9 	ldp	x29, x30, [sp, #32]
100002c64: f4 4f 41 a9 	ldp	x20, x19, [sp, #16]
100002c68: f6 57 c3 a8 	ldp	x22, x21, [sp], #48
100002c6c: c0 03 5f d6 	ret

0000000100002c70 <__ZN4core3ptr275drop_in_place$LT$gimli..read..line..LineRows$LT$gimli..read..endian_slice..EndianSlice$LT$gimli..endianity..LittleEndian$GT$$C$gimli..read..line..IncompleteLineProgram$LT$gimli..read..endian_slice..EndianSlice$LT$gimli..endianity..LittleEndian$GT$$C$usize$GT$$C$usize$GT$$GT$17h7f09106c0603a218E>:
100002c70: f4 4f be a9 	stp	x20, x19, [sp, #-32]!
100002c74: fd 7b 01 a9 	stp	x29, x30, [sp, #16]
100002c78: fd 43 00 91 	add	x29, sp, #16
100002c7c: f3 03 00 aa 	mov	x19, x0
100002c80: 08 6c 40 f9 	ldr	x8, [x0, #216]
100002c84: a8 00 00 b4 	cbz	x8, 0x100002c98 <__ZN4core3ptr275drop_in_place$LT$gimli..read..line..LineRows$LT$gimli..read..endian_slice..EndianSlice$LT$gimli..endianity..LittleEndian$GT$$C$gimli..read..line..IncompleteLineProgram$LT$gimli..read..endian_slice..EndianSlice$LT$gimli..endianity..LittleEndian$GT$$C$usize$GT$$C$usize$GT$$GT$17h7f09106c0603a218E+0x28>
100002c88: 60 72 40 f9 	ldr	x0, [x19, #224]
100002c8c: 01 f5 7e d3 	lsl	x1, x8, #2
100002c90: 42 00 80 52 	mov	w2, #2
100002c94: c6 fb ff 97 	bl	0x100001bac <___rust_dealloc>
100002c98: 68 7a 40 f9 	ldr	x8, [x19, #240]
100002c9c: c8 00 00 b4 	cbz	x8, 0x100002cb4 <__ZN4core3ptr275drop_in_place$LT$gimli..read..line..LineRows$LT$gimli..read..endian_slice..EndianSlice$LT$gimli..endianity..LittleEndian$GT$$C$gimli..read..line..IncompleteLineProgram$LT$gimli..read..endian_slice..EndianSlice$LT$gimli..endianity..LittleEndian$GT$$C$usize$GT$$C$usize$GT$$GT$17h7f09106c0603a218E+0x44>
100002ca0: 60 7e 40 f9 	ldr	x0, [x19, #248]
100002ca4: 08 05 08 8b 	add	x8, x8, x8, lsl #1
100002ca8: 01 f1 7d d3 	lsl	x1, x8, #3
100002cac: 02 01 80 52 	mov	w2, #8
100002cb0: bf fb ff 97 	bl	0x100001bac <___rust_dealloc>
100002cb4: 68 86 40 f9 	ldr	x8, [x19, #264]
100002cb8: a8 00 00 b4 	cbz	x8, 0x100002ccc <__ZN4core3ptr275drop_in_place$LT$gimli..read..line..LineRows$LT$gimli..read..endian_slice..EndianSlice$LT$gimli..endianity..LittleEndian$GT$$C$gimli..read..line..IncompleteLineProgram$LT$gimli..read..endian_slice..EndianSlice$LT$gimli..endianity..LittleEndian$GT$$C$usize$GT$$C$usize$GT$$GT$17h7f09106c0603a218E+0x5c>
100002cbc: 60 8a 40 f9 	ldr	x0, [x19, #272]
100002cc0: 01 f5 7e d3 	lsl	x1, x8, #2
100002cc4: 42 00 80 52 	mov	w2, #2
100002cc8: b9 fb ff 97 	bl	0x100001bac <___rust_dealloc>
100002ccc: 68 92 40 f9 	ldr	x8, [x19, #288]
100002cd0: e8 00 00 b4 	cbz	x8, 0x100002cec <__ZN4core3ptr275drop_in_place$LT$gimli..read..line..LineRows$LT$gimli..read..endian_slice..EndianSlice$LT$gimli..endianity..LittleEndian$GT$$C$gimli..read..line..IncompleteLineProgram$LT$gimli..read..endian_slice..EndianSlice$LT$gimli..endianity..LittleEndian$GT$$C$usize$GT$$C$usize$GT$$GT$17h7f09106c0603a218E+0x7c>
100002cd4: 60 96 40 f9 	ldr	x0, [x19, #296]
100002cd8: 01 e5 7a d3 	lsl	x1, x8, #6
100002cdc: 02 01 80 52 	mov	w2, #8
100002ce0: fd 7b 41 a9 	ldp	x29, x30, [sp, #16]
100002ce4: f4 4f c2 a8 	ldp	x20, x19, [sp], #32
100002ce8: b1 fb ff 17 	b	0x100001bac <___rust_dealloc>
100002cec: fd 7b 41 a9 	ldp	x29, x30, [sp, #16]
100002cf0: f4 4f c2 a8 	ldp	x20, x19, [sp], #32
100002cf4: c0 03 5f d6 	ret

0000000100002cf8 <__ZN4core3ptr285drop_in_place$LT$alloc..boxed..Box$LT$$u5b$$LP$gimli..read..UnitOffset$C$addr2line..lazy..LazyCell$LT$core..result..Result$LT$addr2line..function..Function$LT$gimli..read..endian_slice..EndianSlice$LT$gimli..endianity..LittleEndian$GT$$GT$$C$gimli..read..Error$GT$$GT$$RP$$u5d$$GT$$GT$17h0076bfa4c1c26149E>:
100002cf8: f6 57 bd a9 	stp	x22, x21, [sp, #-48]!
100002cfc: f4 4f 01 a9 	stp	x20, x19, [sp, #16]
100002d00: fd 7b 02 a9 	stp	x29, x30, [sp, #32]
100002d04: fd 83 00 91 	add	x29, sp, #32
100002d08: 08 04 40 f9 	ldr	x8, [x0, #8]
100002d0c: a8 04 00 b4 	cbz	x8, 0x100002da0 <__ZN4core3ptr285drop_in_place$LT$alloc..boxed..Box$LT$$u5b$$LP$gimli..read..UnitOffset$C$addr2line..lazy..LazyCell$LT$core..result..Result$LT$addr2line..function..Function$LT$gimli..read..endian_slice..EndianSlice$LT$gimli..endianity..LittleEndian$GT$$GT$$C$gimli..read..Error$GT$$GT$$RP$$u5d$$GT$$GT$17h0076bfa4c1c26149E+0xa8>
100002d10: f3 03 00 aa 	mov	x19, x0
100002d14: 09 00 40 f9 	ldr	x9, [x0]
100002d18: 34 e1 00 91 	add	x20, x9, #56
100002d1c: 08 0d 08 8b 	add	x8, x8, x8, lsl #3
100002d20: 15 f1 7d d3 	lsl	x21, x8, #3
100002d24: 04 00 00 14 	b	0x100002d34 <__ZN4core3ptr285drop_in_place$LT$alloc..boxed..Box$LT$$u5b$$LP$gimli..read..UnitOffset$C$addr2line..lazy..LazyCell$LT$core..result..Result$LT$addr2line..function..Function$LT$gimli..read..endian_slice..EndianSlice$LT$gimli..endianity..LittleEndian$GT$$GT$$C$gimli..read..Error$GT$$GT$$RP$$u5d$$GT$$GT$17h0076bfa4c1c26149E+0x3c>
100002d28: 94 22 01 91 	add	x20, x20, #72
100002d2c: b5 22 01 f1 	subs	x21, x21, #72
100002d30: 40 02 00 54 	b.eq	0x100002d78 <__ZN4core3ptr285drop_in_place$LT$alloc..boxed..Box$LT$$u5b$$LP$gimli..read..UnitOffset$C$addr2line..lazy..LazyCell$LT$core..result..Result$LT$addr2line..function..Function$LT$gimli..read..endian_slice..EndianSlice$LT$gimli..endianity..LittleEndian$GT$$GT$$C$gimli..read..Error$GT$$GT$$RP$$u5d$$GT$$GT$17h0076bfa4c1c26149E+0x80>
100002d34: 88 02 5d f8 	ldur	x8, [x20, #-48]
100002d38: 88 ff ff b4 	cbz	x8, 0x100002d28 <__ZN4core3ptr285drop_in_place$LT$alloc..boxed..Box$LT$$u5b$$LP$gimli..read..UnitOffset$C$addr2line..lazy..LazyCell$LT$core..result..Result$LT$addr2line..function..Function$LT$gimli..read..endian_slice..EndianSlice$LT$gimli..endianity..LittleEndian$GT$$GT$$C$gimli..read..Error$GT$$GT$$RP$$u5d$$GT$$GT$17h0076bfa4c1c26149E+0x30>
100002d3c: 80 82 5e f8 	ldur	x0, [x20, #-24]
100002d40: 40 ff ff b4 	cbz	x0, 0x100002d28 <__ZN4core3ptr285drop_in_place$LT$alloc..boxed..Box$LT$$u5b$$LP$gimli..read..UnitOffset$C$addr2line..lazy..LazyCell$LT$core..result..Result$LT$addr2line..function..Function$LT$gimli..read..endian_slice..EndianSlice$LT$gimli..endianity..LittleEndian$GT$$GT$$C$gimli..read..Error$GT$$GT$$RP$$u5d$$GT$$GT$17h0076bfa4c1c26149E+0x30>
100002d44: 88 02 5f f8 	ldur	x8, [x20, #-16]
100002d48: a8 00 00 b4 	cbz	x8, 0x100002d5c <__ZN4core3ptr285drop_in_place$LT$alloc..boxed..Box$LT$$u5b$$LP$gimli..read..UnitOffset$C$addr2line..lazy..LazyCell$LT$core..result..Result$LT$addr2line..function..Function$LT$gimli..read..endian_slice..EndianSlice$LT$gimli..endianity..LittleEndian$GT$$GT$$C$gimli..read..Error$GT$$GT$$RP$$u5d$$GT$$GT$17h0076bfa4c1c26149E+0x64>
100002d4c: 08 09 08 8b 	add	x8, x8, x8, lsl #2
100002d50: 01 f1 7d d3 	lsl	x1, x8, #3
100002d54: 02 01 80 52 	mov	w2, #8
100002d58: 95 fb ff 97 	bl	0x100001bac <___rust_dealloc>
100002d5c: 88 02 40 f9 	ldr	x8, [x20]
100002d60: 48 fe ff b4 	cbz	x8, 0x100002d28 <__ZN4core3ptr285drop_in_place$LT$alloc..boxed..Box$LT$$u5b$$LP$gimli..read..UnitOffset$C$addr2line..lazy..LazyCell$LT$core..result..Result$LT$addr2line..function..Function$LT$gimli..read..endian_slice..EndianSlice$LT$gimli..endianity..LittleEndian$GT$$GT$$C$gimli..read..Error$GT$$GT$$RP$$u5d$$GT$$GT$17h0076bfa4c1c26149E+0x30>
100002d64: 80 82 5f f8 	ldur	x0, [x20, #-8]
100002d68: 01 e9 7b d3 	lsl	x1, x8, #5
100002d6c: 02 01 80 52 	mov	w2, #8
100002d70: 8f fb ff 97 	bl	0x100001bac <___rust_dealloc>
100002d74: ed ff ff 17 	b	0x100002d28 <__ZN4core3ptr285drop_in_place$LT$alloc..boxed..Box$LT$$u5b$$LP$gimli..read..UnitOffset$C$addr2line..lazy..LazyCell$LT$core..result..Result$LT$addr2line..function..Function$LT$gimli..read..endian_slice..EndianSlice$LT$gimli..endianity..LittleEndian$GT$$GT$$C$gimli..read..Error$GT$$GT$$RP$$u5d$$GT$$GT$17h0076bfa4c1c26149E+0x30>
100002d78: 68 06 40 f9 	ldr	x8, [x19, #8]
100002d7c: 28 01 00 b4 	cbz	x8, 0x100002da0 <__ZN4core3ptr285drop_in_place$LT$alloc..boxed..Box$LT$$u5b$$LP$gimli..read..UnitOffset$C$addr2line..lazy..LazyCell$LT$core..result..Result$LT$addr2line..function..Function$LT$gimli..read..endian_slice..EndianSlice$LT$gimli..endianity..LittleEndian$GT$$GT$$C$gimli..read..Error$GT$$GT$$RP$$u5d$$GT$$GT$17h0076bfa4c1c26149E+0xa8>
100002d80: 60 02 40 f9 	ldr	x0, [x19]
100002d84: 08 0d 08 8b 	add	x8, x8, x8, lsl #3
100002d88: 01 f1 7d d3 	lsl	x1, x8, #3
100002d8c: 02 01 80 52 	mov	w2, #8
100002d90: fd 7b 42 a9 	ldp	x29, x30, [sp, #32]
100002d94: f4 4f 41 a9 	ldp	x20, x19, [sp, #16]
100002d98: f6 57 c3 a8 	ldp	x22, x21, [sp], #48
100002d9c: 84 fb ff 17 	b	0x100001bac <___rust_dealloc>
100002da0: fd 7b 42 a9 	ldp	x29, x30, [sp, #32]
100002da4: f4 4f 41 a9 	ldp	x20, x19, [sp, #16]
100002da8: f6 57 c3 a8 	ldp	x22, x21, [sp], #48
100002dac: c0 03 5f d6 	ret

0000000100002db0 <__ZN4core3ptr37drop_in_place$LT$std..fs..ReadDir$GT$17h1dd8889677af8c53E>:
100002db0: 08 00 40 f9 	ldr	x8, [x0]
100002db4: 09 00 80 92 	mov	x9, #-1
100002db8: 08 01 69 f8 	<unknown>
100002dbc: 1f 05 00 f1 	cmp	x8, #1
100002dc0: 81 00 00 54 	b.ne	0x100002dd0 <__ZN4core3ptr37drop_in_place$LT$std..fs..ReadDir$GT$17h1dd8889677af8c53E+0x20>
100002dc4: bf 39 03 d5 	dmb	ishld
100002dc8: 00 00 40 f9 	ldr	x0, [x0]
100002dcc: 18 11 00 14 	b	0x10000722c <__ZN5alloc4sync12Arc$LT$T$GT$9drop_slow17h7c8fd6e9dfe88e59E>
100002dd0: c0 03 5f d6 	ret

0000000100002dd4 <__ZN4core3ptr38drop_in_place$LT$std..fs..DirEntry$GT$17he1768ad8631dcef6E>:
100002dd4: 08 0c 42 f9 	ldr	x8, [x0, #1048]
100002dd8: 09 00 80 92 	mov	x9, #-1
100002ddc: 08 01 69 f8 	<unknown>
100002de0: 1f 05 00 f1 	cmp	x8, #1
100002de4: 81 00 00 54 	b.ne	0x100002df4 <__ZN4core3ptr38drop_in_place$LT$std..fs..DirEntry$GT$17he1768ad8631dcef6E+0x20>
100002de8: bf 39 03 d5 	dmb	ishld
100002dec: 00 0c 42 f9 	ldr	x0, [x0, #1048]
100002df0: 0f 11 00 14 	b	0x10000722c <__ZN5alloc4sync12Arc$LT$T$GT$9drop_slow17h7c8fd6e9dfe88e59E>
100002df4: c0 03 5f d6 	ret

0000000100002df8 <__ZN4core3ptr40drop_in_place$LT$std..thread..Thread$GT$17he78dcd15d1849beeE>:
100002df8: 08 00 40 f9 	ldr	x8, [x0]
100002dfc: 09 00 80 92 	mov	x9, #-1
100002e00: 08 01 69 f8 	<unknown>
100002e04: 1f 05 00 f1 	cmp	x8, #1
100002e08: 81 00 00 54 	b.ne	0x100002e18 <__ZN4core3ptr40drop_in_place$LT$std..thread..Thread$GT$17he78dcd15d1849beeE+0x20>
100002e0c: bf 39 03 d5 	dmb	ishld
100002e10: 00 00 40 f9 	ldr	x0, [x0]
100002e14: e7 10 00 14 	b	0x1000071b0 <__ZN5alloc4sync12Arc$LT$T$GT$9drop_slow17h44ded8e8f5693dacE>
100002e18: c0 03 5f d6 	ret

0000000100002e1c <__ZN4core3ptr42drop_in_place$LT$std..io..error..Error$GT$17hd151a948ad356709E>:
100002e1c: f4 4f be a9 	stp	x20, x19, [sp, #-32]!
100002e20: fd 7b 01 a9 	stp	x29, x30, [sp, #16]
100002e24: fd 43 00 91 	add	x29, sp, #16
100002e28: 14 00 40 f9 	ldr	x20, [x0]
100002e2c: 88 06 40 92 	and	x8, x20, #0x3
100002e30: 1f 05 00 f1 	cmp	x8, #1
100002e34: 41 02 00 54 	b.ne	0x100002e7c <__ZN4core3ptr42drop_in_place$LT$std..io..error..Error$GT$17hd151a948ad356709E+0x60>
100002e38: f3 03 14 aa 	mov	x19, x20
100002e3c: 60 fe 5f f8 	ldr	x0, [x19, #-1]!
100002e40: 68 06 40 f9 	ldr	x8, [x19, #8]
100002e44: 08 01 40 f9 	ldr	x8, [x8]
100002e48: 00 01 3f d6 	blr	x8
100002e4c: 88 72 40 f8 	ldur	x8, [x20, #7]
100002e50: 01 05 40 f9 	ldr	x1, [x8, #8]
100002e54: 81 00 00 b4 	cbz	x1, 0x100002e64 <__ZN4core3ptr42drop_in_place$LT$std..io..error..Error$GT$17hd151a948ad356709E+0x48>
100002e58: 02 09 40 f9 	ldr	x2, [x8, #16]
100002e5c: 60 02 40 f9 	ldr	x0, [x19]
100002e60: 53 fb ff 97 	bl	0x100001bac <___rust_dealloc>
100002e64: e0 03 13 aa 	mov	x0, x19
100002e68: 01 03 80 52 	mov	w1, #24
100002e6c: 02 01 80 52 	mov	w2, #8
100002e70: fd 7b 41 a9 	ldp	x29, x30, [sp, #16]
100002e74: f4 4f c2 a8 	ldp	x20, x19, [sp], #32
100002e78: 4d fb ff 17 	b	0x100001bac <___rust_dealloc>
100002e7c: fd 7b 41 a9 	ldp	x29, x30, [sp, #16]
100002e80: f4 4f c2 a8 	ldp	x20, x19, [sp], #32
100002e84: c0 03 5f d6 	ret
100002e88: e8 03 14 aa 	mov	x8, x20
100002e8c: f4 03 00 aa 	mov	x20, x0
100002e90: 00 f1 5f f8 	ldur	x0, [x8, #-1]
100002e94: 08 71 40 f8 	ldur	x8, [x8, #7]
100002e98: 01 89 40 a9 	ldp	x1, x2, [x8, #8]
100002e9c: 2f 11 00 94 	bl	0x100007358 <__ZN5alloc5alloc8box_free17h0b15272aacb880a7E>
100002ea0: e0 03 13 aa 	mov	x0, x19
100002ea4: 33 11 00 94 	bl	0x100007370 <__ZN5alloc5alloc8box_free17h6f0f6e1382d9c275E>
100002ea8: e0 03 14 aa 	mov	x0, x20
100002eac: da bc 00 94 	bl	0x100032214 <_writev+0x100032214>

0000000100002eb0 <__ZN4core3ptr432drop_in_place$LT$core..slice..sort..merge_sort..BufGuard$LT$addr2line..UnitRange$C$alloc..slice..stable_sort$LT$addr2line..UnitRange$C$alloc..slice..$LT$impl$u20$$u5b$addr2line..UnitRange$u5d$$GT$..sort_by_key$LT$u64$C$addr2line..ResDwarf$LT$gimli..read..endian_slice..EndianSlice$LT$gimli..endianity..LittleEndian$GT$$GT$..parse..$u7b$$u7b$closure$u7d$$u7d$$GT$..$u7b$$u7b$closure$u7d$$u7d$$GT$..$u7b$$u7b$closure$u7d$$u7d$$GT$$GT$17h27af13144da0ea2dE>:
100002eb0: e8 03 01 aa 	mov	x8, x1
100002eb4: 01 e8 7b d3 	lsl	x1, x0, #5
100002eb8: e0 03 08 aa 	mov	x0, x8
100002ebc: 02 01 80 52 	mov	w2, #8
100002ec0: 3b fb ff 17 	b	0x100001bac <___rust_dealloc>

0000000100002ec4 <__ZN4core3ptr44drop_in_place$LT$addr2line..LineSequence$GT$17h70ea1cffbc73ab1bE>:
100002ec4: a1 00 00 b4 	cbz	x1, 0x100002ed8 <__ZN4core3ptr44drop_in_place$LT$addr2line..LineSequence$GT$17h70ea1cffbc73ab1bE+0x14>
100002ec8: 28 04 01 8b 	add	x8, x1, x1, lsl #1
100002ecc: 01 f1 7d d3 	lsl	x1, x8, #3
100002ed0: 02 01 80 52 	mov	w2, #8
100002ed4: 36 fb ff 17 	b	0x100001bac <___rust_dealloc>
100002ed8: c0 03 5f d6 	ret

0000000100002edc <__ZN4core3ptr44drop_in_place$LT$object..read..ObjectMap$GT$17he2efdc1bb3bad225E>:
100002edc: f4 4f be a9 	stp	x20, x19, [sp, #-32]!
100002ee0: fd 7b 01 a9 	stp	x29, x30, [sp, #16]
100002ee4: fd 43 00 91 	add	x29, sp, #16
100002ee8: f3 03 00 aa 	mov	x19, x0
100002eec: 08 00 40 f9 	ldr	x8, [x0]
100002ef0: c8 00 00 b4 	cbz	x8, 0x100002f08 <__ZN4core3ptr44drop_in_place$LT$object..read..ObjectMap$GT$17he2efdc1bb3bad225E+0x2c>
100002ef4: 60 06 40 f9 	ldr	x0, [x19, #8]
100002ef8: 08 09 08 8b 	add	x8, x8, x8, lsl #2
100002efc: 01 f1 7d d3 	lsl	x1, x8, #3
100002f00: 02 01 80 52 	mov	w2, #8
100002f04: 2a fb ff 97 	bl	0x100001bac <___rust_dealloc>
100002f08: 68 0e 40 f9 	ldr	x8, [x19, #24]
100002f0c: e8 00 00 b4 	cbz	x8, 0x100002f28 <__ZN4core3ptr44drop_in_place$LT$object..read..ObjectMap$GT$17he2efdc1bb3bad225E+0x4c>
100002f10: 60 12 40 f9 	ldr	x0, [x19, #32]
100002f14: 01 ed 7c d3 	lsl	x1, x8, #4
100002f18: 02 01 80 52 	mov	w2, #8
100002f1c: fd 7b 41 a9 	ldp	x29, x30, [sp, #16]
100002f20: f4 4f c2 a8 	ldp	x20, x19, [sp], #32
100002f24: 22 fb ff 17 	b	0x100001bac <___rust_dealloc>
100002f28: fd 7b 41 a9 	ldp	x29, x30, [sp, #16]
100002f2c: f4 4f c2 a8 	ldp	x20, x19, [sp], #32
100002f30: c0 03 5f d6 	ret

0000000100002f34 <__ZN4core3ptr44drop_in_place$LT$std..thread..PanicGuard$GT$17hf8a9297b91586ccaE>:
100002f34: ff 43 02 d1 	sub	sp, sp, #144
100002f38: fd 7b 08 a9 	stp	x29, x30, [sp, #128]
100002f3c: fd 03 02 91 	add	x29, sp, #128
100002f40: 88 cd 1e 10 	adr	x8, #252336
100002f44: 1f 20 03 d5 	nop
100002f48: 29 00 80 52 	mov	w9, #1
100002f4c: 6a d6 17 10 	adr	x10, #195276
100002f50: 1f 20 03 d5 	nop
100002f54: a8 a7 3d a9 	stp	x8, x9, [x29, #-40]
100002f58: bf 83 1c f8 	stur	xzr, [x29, #-56]
100002f5c: aa ff 3e a9 	stp	x10, xzr, [x29, #-24]
100002f60: 28 01 14 10 	adr	x8, #163876
100002f64: 1f 20 03 d5 	nop
100002f68: aa e3 00 d1 	sub	x10, x29, #56
100002f6c: ea a3 03 a9 	stp	x10, x8, [sp, #56]
100002f70: 48 c7 1e 10 	adr	x8, #252136
100002f74: 1f 20 03 d5 	nop
100002f78: 4a 00 80 52 	mov	w10, #2
100002f7c: e8 ab 01 a9 	stp	x8, x10, [sp, #24]
100002f80: ff 07 00 f9 	str	xzr, [sp, #8]
100002f84: e8 e3 00 91 	add	x8, sp, #56
100002f88: e8 a7 02 a9 	stp	x8, x9, [sp, #40]
100002f8c: a0 23 00 d1 	sub	x0, x29, #8
100002f90: e1 23 00 91 	add	x1, sp, #8
100002f94: 5b 52 00 94 	bl	0x100017900 <__ZN3std2io5Write9write_fmt17hd64c4cf6e7adea59E>
100002f98: f8 01 00 94 	bl	0x100003778 <__ZN4core3ptr81drop_in_place$LT$core..result..Result$LT$$LP$$RP$$C$std..io..error..Error$GT$$GT$17ha466d504a0d62c65E>
100002f9c: b1 66 00 94 	bl	0x10001ca60 <__ZN3std3sys4unix14abort_internal17hcf18847ef2ef966fE>

0000000100002fa0 <__ZN4core3ptr46drop_in_place$LT$alloc..vec..Vec$LT$u8$GT$$GT$17h180447c5569aa0b2E>:
100002fa0: 01 00 40 f9 	ldr	x1, [x0]
100002fa4: 81 00 00 b4 	cbz	x1, 0x100002fb4 <__ZN4core3ptr46drop_in_place$LT$alloc..vec..Vec$LT$u8$GT$$GT$17h180447c5569aa0b2E+0x14>
100002fa8: 00 04 40 f9 	ldr	x0, [x0, #8]
100002fac: 22 00 80 52 	mov	w2, #1
100002fb0: ff fa ff 17 	b	0x100001bac <___rust_dealloc>
100002fb4: c0 03 5f d6 	ret

0000000100002fb8 <__ZN4core3ptr46drop_in_place$LT$std..io..stdio..StdinLock$GT$17hf48161c2286ab973E>:
100002fb8: f4 4f be a9 	stp	x20, x19, [sp, #-32]!
100002fbc: fd 7b 01 a9 	stp	x29, x30, [sp, #16]
100002fc0: fd 43 00 91 	add	x29, sp, #16
100002fc4: f3 03 00 aa 	mov	x19, x0
100002fc8: 3f 1c 00 72 	tst	w1, #0xff
100002fcc: a1 00 00 54 	b.ne	0x100002fe0 <__ZN4core3ptr46drop_in_place$LT$std..io..stdio..StdinLock$GT$17hf48161c2286ab973E+0x28>
100002fd0: 1f 20 03 d5 	nop
100002fd4: e8 8c 20 58 	ldr	x8, 0x100044170 <__ZN3std9panicking11panic_count18GLOBAL_PANIC_COUNT17hee88fca68ccc06c0E>
100002fd8: 1f f9 40 f2 	tst	x8, #0x7fffffffffffffff
100002fdc: 21 01 00 54 	b.ne	0x100003000 <__ZN4core3ptr46drop_in_place$LT$std..io..stdio..StdinLock$GT$17hf48161c2286ab973E+0x48>
100002fe0: 60 fe df c8 	ldar	x0, [x19]
100002fe4: 80 00 00 b4 	cbz	x0, 0x100002ff4 <__ZN4core3ptr46drop_in_place$LT$std..io..stdio..StdinLock$GT$17hf48161c2286ab973E+0x3c>
100002fe8: fd 7b 41 a9 	ldp	x29, x30, [sp, #16]
100002fec: f4 4f c2 a8 	ldp	x20, x19, [sp], #32
100002ff0: fb bc 00 14 	b	0x1000323dc <_writev+0x1000323dc>
100002ff4: e0 03 13 aa 	mov	x0, x19
100002ff8: 9f b9 00 94 	bl	0x100031674 <__ZN3std10sys_common8lazy_box16LazyBox$LT$T$GT$10initialize17h9622545c4db8899fE>
100002ffc: fb ff ff 17 	b	0x100002fe8 <__ZN4core3ptr46drop_in_place$LT$std..io..stdio..StdinLock$GT$17hf48161c2286ab973E+0x30>
100003000: b4 b9 00 94 	bl	0x1000316d0 <__ZN3std9panicking11panic_count17is_zero_slow_path17ha3f313883ae89ea0E>
100003004: e0 fe 07 37 	tbnz	w0, #0, 0x100002fe0 <__ZN4core3ptr46drop_in_place$LT$std..io..stdio..StdinLock$GT$17hf48161c2286ab973E+0x28>
100003008: 28 00 80 52 	mov	w8, #1
10000300c: 68 22 00 39 	strb	w8, [x19, #8]
100003010: f4 ff ff 17 	b	0x100002fe0 <__ZN4core3ptr46drop_in_place$LT$std..io..stdio..StdinLock$GT$17hf48161c2286ab973E+0x28>

0000000100003014 <__ZN4core3ptr47drop_in_place$LT$alloc..ffi..c_str..CString$GT$17h62b90f41b461bca4E>:
100003014: 08 00 40 f9 	ldr	x8, [x0]
100003018: 1f 01 00 39 	strb	wzr, [x8]
10000301c: 01 04 40 f9 	ldr	x1, [x0, #8]
100003020: 81 00 00 b4 	cbz	x1, 0x100003030 <__ZN4core3ptr47drop_in_place$LT$alloc..ffi..c_str..CString$GT$17h62b90f41b461bca4E+0x1c>
100003024: 00 00 40 f9 	ldr	x0, [x0]
100003028: 22 00 80 52 	mov	w2, #1
10000302c: e0 fa ff 17 	b	0x100001bac <___rust_dealloc>
100003030: c0 03 5f d6 	ret

0000000100003034 <__ZN4core3ptr491drop_in_place$LT$core..slice..sort..merge_sort..BufGuard$LT$addr2line..function..FunctionAddress$C$alloc..slice..stable_sort$LT$addr2line..function..FunctionAddress$C$alloc..slice..$LT$impl$u20$$u5b$addr2line..function..FunctionAddress$u5d$$GT$..sort_by_key$LT$u64$C$addr2line..function..Functions$LT$gimli..read..endian_slice..EndianSlice$LT$gimli..endianity..LittleEndian$GT$$GT$..parse..$u7b$$u7b$closure$u7d$$u7d$$GT$..$u7b$$u7b$closure$u7d$$u7d$$GT$..$u7b$$u7b$closure$u7d$$u7d$$GT$$GT$17h2cad9ef2099480beE>:
100003034: e8 03 01 aa 	mov	x8, x1
100003038: 09 04 00 8b 	add	x9, x0, x0, lsl #1
10000303c: 21 f1 7d d3 	lsl	x1, x9, #3
100003040: e0 03 08 aa 	mov	x0, x8
100003044: 02 01 80 52 	mov	w2, #8
100003048: d9 fa ff 17 	b	0x100001bac <___rust_dealloc>

000000010000304c <__ZN4core3ptr50drop_in_place$LT$alloc..borrow..Cow$LT$str$GT$$GT$17ha805b238788f4ff1E>:
10000304c: 08 00 40 f9 	ldr	x8, [x0]
100003050: c8 00 00 b4 	cbz	x8, 0x100003068 <__ZN4core3ptr50drop_in_place$LT$alloc..borrow..Cow$LT$str$GT$$GT$17ha805b238788f4ff1E+0x1c>
100003054: 01 04 40 f9 	ldr	x1, [x0, #8]
100003058: 81 00 00 b4 	cbz	x1, 0x100003068 <__ZN4core3ptr50drop_in_place$LT$alloc..borrow..Cow$LT$str$GT$$GT$17ha805b238788f4ff1E+0x1c>
10000305c: 00 08 40 f9 	ldr	x0, [x0, #16]
100003060: 22 00 80 52 	mov	w2, #1
100003064: d2 fa ff 17 	b	0x100001bac <___rust_dealloc>
100003068: c0 03 5f d6 	ret

000000010000306c <__ZN4core3ptr52drop_in_place$LT$gimli..read..abbrev..Attributes$GT$17h5dff0fe8bc0e8d08E>:
10000306c: 08 00 40 f9 	ldr	x8, [x0]
100003070: e8 00 00 b4 	cbz	x8, 0x10000308c <__ZN4core3ptr52drop_in_place$LT$gimli..read..abbrev..Attributes$GT$17h5dff0fe8bc0e8d08E+0x20>
100003074: 08 04 40 f9 	ldr	x8, [x0, #8]
100003078: a8 00 00 b4 	cbz	x8, 0x10000308c <__ZN4core3ptr52drop_in_place$LT$gimli..read..abbrev..Attributes$GT$17h5dff0fe8bc0e8d08E+0x20>
10000307c: 00 08 40 f9 	ldr	x0, [x0, #16]
100003080: 01 ed 7c d3 	lsl	x1, x8, #4
100003084: 02 01 80 52 	mov	w2, #8
100003088: c9 fa ff 17 	b	0x100001bac <___rust_dealloc>
10000308c: c0 03 5f d6 	ret

0000000100003090 <__ZN4core3ptr55drop_in_place$LT$gimli..read..abbrev..Abbreviations$GT$17h527ed8f8312b5c9eE>:
100003090: ff 43 02 d1 	sub	sp, sp, #144
100003094: f6 57 06 a9 	stp	x22, x21, [sp, #96]
100003098: f4 4f 07 a9 	stp	x20, x19, [sp, #112]
10000309c: fd 7b 08 a9 	stp	x29, x30, [sp, #128]
1000030a0: fd 03 02 91 	add	x29, sp, #128
1000030a4: f3 03 00 aa 	mov	x19, x0
1000030a8: 08 14 40 f9 	ldr	x8, [x0, #40]
1000030ac: 48 02 00 b4 	cbz	x8, 0x1000030f4 <__ZN4core3ptr55drop_in_place$LT$gimli..read..abbrev..Abbreviations$GT$17h527ed8f8312b5c9eE+0x64>
1000030b0: 69 12 40 f9 	ldr	x9, [x19, #32]
1000030b4: 34 41 00 91 	add	x20, x9, #16
1000030b8: 09 0e 80 52 	mov	w9, #112
1000030bc: 15 7d 09 9b 	mul	x21, x8, x9
1000030c0: 04 00 00 14 	b	0x1000030d0 <__ZN4core3ptr55drop_in_place$LT$gimli..read..abbrev..Abbreviations$GT$17h527ed8f8312b5c9eE+0x40>
1000030c4: 94 c2 01 91 	add	x20, x20, #112
1000030c8: b5 c2 01 f1 	subs	x21, x21, #112
1000030cc: 40 01 00 54 	b.eq	0x1000030f4 <__ZN4core3ptr55drop_in_place$LT$gimli..read..abbrev..Abbreviations$GT$17h527ed8f8312b5c9eE+0x64>
1000030d0: 88 02 5f f8 	ldur	x8, [x20, #-16]
1000030d4: 88 ff ff b4 	cbz	x8, 0x1000030c4 <__ZN4core3ptr55drop_in_place$LT$gimli..read..abbrev..Abbreviations$GT$17h527ed8f8312b5c9eE+0x34>
1000030d8: 88 82 5f f8 	ldur	x8, [x20, #-8]
1000030dc: 48 ff ff b4 	cbz	x8, 0x1000030c4 <__ZN4core3ptr55drop_in_place$LT$gimli..read..abbrev..Abbreviations$GT$17h527ed8f8312b5c9eE+0x34>
1000030e0: 80 02 40 f9 	ldr	x0, [x20]
1000030e4: 01 ed 7c d3 	lsl	x1, x8, #4
1000030e8: 02 01 80 52 	mov	w2, #8
1000030ec: b0 fa ff 97 	bl	0x100001bac <___rust_dealloc>
1000030f0: f5 ff ff 17 	b	0x1000030c4 <__ZN4core3ptr55drop_in_place$LT$gimli..read..abbrev..Abbreviations$GT$17h527ed8f8312b5c9eE+0x34>
1000030f4: 68 0e 40 f9 	ldr	x8, [x19, #24]
1000030f8: c8 00 00 b4 	cbz	x8, 0x100003110 <__ZN4core3ptr55drop_in_place$LT$gimli..read..abbrev..Abbreviations$GT$17h527ed8f8312b5c9eE+0x80>
1000030fc: 60 12 40 f9 	ldr	x0, [x19, #32]
100003100: 09 0e 80 52 	mov	w9, #112
100003104: 01 7d 09 9b 	mul	x1, x8, x9
100003108: 02 01 80 52 	mov	w2, #8
10000310c: a8 fa ff 97 	bl	0x100001bac <___rust_dealloc>
100003110: 6a 06 40 f9 	ldr	x10, [x19, #8]
100003114: 0a 01 00 b4 	cbz	x10, 0x100003134 <__ZN4core3ptr55drop_in_place$LT$gimli..read..abbrev..Abbreviations$GT$17h527ed8f8312b5c9eE+0xa4>
100003118: 08 00 80 d2 	mov	x8, #0
10000311c: 69 0a 40 f9 	ldr	x9, [x19, #16]
100003120: 6b 02 40 f9 	ldr	x11, [x19]
100003124: ff 2f 00 a9 	stp	xzr, x11, [sp]
100003128: ea 0b 00 f9 	str	x10, [sp, #16]
10000312c: eb ab 02 a9 	stp	x11, x10, [sp, #40]
100003130: 04 00 00 14 	b	0x100003140 <__ZN4core3ptr55drop_in_place$LT$gimli..read..abbrev..Abbreviations$GT$17h527ed8f8312b5c9eE+0xb0>
100003134: 09 00 80 d2 	mov	x9, #0
100003138: 48 00 80 52 	mov	w8, #2
10000313c: e8 03 00 f9 	str	x8, [sp]
100003140: e8 13 00 f9 	str	x8, [sp, #32]
100003144: e9 23 00 f9 	str	x9, [sp, #64]
100003148: a0 e3 00 d1 	sub	x0, x29, #56
10000314c: e1 03 00 91 	mov	x1, sp
100003150: 6f 0f 00 94 	bl	0x100006f0c <__ZN5alloc11collections5btree3map25IntoIter$LT$K$C$V$C$A$GT$10dying_next17h1f8099a75a03f531E>
100003154: a8 03 5d f8 	ldur	x8, [x29, #-48]
100003158: 68 02 00 b4 	cbz	x8, 0x1000031a4 <__ZN4core3ptr55drop_in_place$LT$gimli..read..abbrev..Abbreviations$GT$17h527ed8f8312b5c9eE+0x114>
10000315c: 13 0e 80 52 	mov	w19, #112
100003160: 06 00 00 14 	b	0x100003178 <__ZN4core3ptr55drop_in_place$LT$gimli..read..abbrev..Abbreviations$GT$17h527ed8f8312b5c9eE+0xe8>
100003164: a0 e3 00 d1 	sub	x0, x29, #56
100003168: e1 03 00 91 	mov	x1, sp
10000316c: 68 0f 00 94 	bl	0x100006f0c <__ZN5alloc11collections5btree3map25IntoIter$LT$K$C$V$C$A$GT$10dying_next17h1f8099a75a03f531E>
100003170: a8 03 5d f8 	ldur	x8, [x29, #-48]
100003174: 88 01 00 b4 	cbz	x8, 0x1000031a4 <__ZN4core3ptr55drop_in_place$LT$gimli..read..abbrev..Abbreviations$GT$17h527ed8f8312b5c9eE+0x114>
100003178: a9 83 5d f8 	ldur	x9, [x29, #-40]
10000317c: 28 21 13 9b 	madd	x8, x9, x19, x8
100003180: 09 01 40 f9 	ldr	x9, [x8]
100003184: 09 ff ff b4 	cbz	x9, 0x100003164 <__ZN4core3ptr55drop_in_place$LT$gimli..read..abbrev..Abbreviations$GT$17h527ed8f8312b5c9eE+0xd4>
100003188: 09 05 40 f9 	ldr	x9, [x8, #8]
10000318c: c9 fe ff b4 	cbz	x9, 0x100003164 <__ZN4core3ptr55drop_in_place$LT$gimli..read..abbrev..Abbreviations$GT$17h527ed8f8312b5c9eE+0xd4>
100003190: 00 09 40 f9 	ldr	x0, [x8, #16]
100003194: 21 ed 7c d3 	lsl	x1, x9, #4
100003198: 02 01 80 52 	mov	w2, #8
10000319c: 84 fa ff 97 	bl	0x100001bac <___rust_dealloc>
1000031a0: f1 ff ff 17 	b	0x100003164 <__ZN4core3ptr55drop_in_place$LT$gimli..read..abbrev..Abbreviations$GT$17h527ed8f8312b5c9eE+0xd4>
1000031a4: fd 7b 48 a9 	ldp	x29, x30, [sp, #128]
1000031a8: f4 4f 47 a9 	ldp	x20, x19, [sp, #112]
1000031ac: f6 57 46 a9 	ldp	x22, x21, [sp, #96]
1000031b0: ff 43 02 91 	add	sp, sp, #144
1000031b4: c0 03 5f d6 	ret

00000001000031b8 <__ZN4core3ptr60drop_in_place$LT$alloc..vec..Vec$LT$$RF$$u5b$u8$u5d$$GT$$GT$17h727884cf5547536fE>:
1000031b8: 08 00 40 f9 	ldr	x8, [x0]
1000031bc: a8 00 00 b4 	cbz	x8, 0x1000031d0 <__ZN4core3ptr60drop_in_place$LT$alloc..vec..Vec$LT$$RF$$u5b$u8$u5d$$GT$$GT$17h727884cf5547536fE+0x18>
1000031c0: 00 04 40 f9 	ldr	x0, [x0, #8]
1000031c4: 01 ed 7c d3 	lsl	x1, x8, #4
1000031c8: 02 01 80 52 	mov	w2, #8
1000031cc: 78 fa ff 17 	b	0x100001bac <___rust_dealloc>
1000031d0: c0 03 5f d6 	ret

00000001000031d4 <__ZN4core3ptr62drop_in_place$LT$std..sys_common..once..queue..WaiterQueue$GT$17h9335750b829034b3E>:
1000031d4: db 66 00 14 	b	0x10001cd40 <__ZN83_$LT$std..sys_common..once..queue..WaiterQueue$u20$as$u20$core..ops..drop..Drop$GT$4drop17h3538337b186ed534E>

00000001000031d8 <__ZN4core3ptr64drop_in_place$LT$alloc..vec..Vec$LT$addr2line..UnitRange$GT$$GT$17hd018cdeb8d2175ccE>:
1000031d8: 08 00 40 f9 	ldr	x8, [x0]
1000031dc: a8 00 00 b4 	cbz	x8, 0x1000031f0 <__ZN4core3ptr64drop_in_place$LT$alloc..vec..Vec$LT$addr2line..UnitRange$GT$$GT$17hd018cdeb8d2175ccE+0x18>
1000031e0: 00 04 40 f9 	ldr	x0, [x0, #8]
1000031e4: 01 e9 7b d3 	lsl	x1, x8, #5
1000031e8: 02 01 80 52 	mov	w2, #8
1000031ec: 70 fa ff 17 	b	0x100001bac <___rust_dealloc>
1000031f0: c0 03 5f d6 	ret

00000001000031f4 <__ZN4core3ptr64drop_in_place$LT$std..backtrace_rs..print..BacktraceFrameFmt$GT$17h23c26fab0444a032E>:
1000031f4: 08 08 40 f9 	ldr	x8, [x0, #16]
1000031f8: 08 05 00 91 	add	x8, x8, #1
1000031fc: 08 08 00 f9 	str	x8, [x0, #16]
100003200: c0 03 5f d6 	ret

0000000100003204 <__ZN4core3ptr65drop_in_place$LT$alloc..vec..Vec$LT$alloc..string..String$GT$$GT$17hf7cfaee6b764effcE>:
100003204: f6 57 bd a9 	stp	x22, x21, [sp, #-48]!
100003208: f4 4f 01 a9 	stp	x20, x19, [sp, #16]
10000320c: fd 7b 02 a9 	stp	x29, x30, [sp, #32]
100003210: fd 83 00 91 	add	x29, sp, #32
100003214: f3 03 00 aa 	mov	x19, x0
100003218: 08 08 40 f9 	ldr	x8, [x0, #16]
10000321c: e8 01 00 b4 	cbz	x8, 0x100003258 <__ZN4core3ptr65drop_in_place$LT$alloc..vec..Vec$LT$alloc..string..String$GT$$GT$17hf7cfaee6b764effcE+0x54>
100003220: 69 06 40 f9 	ldr	x9, [x19, #8]
100003224: 34 21 00 91 	add	x20, x9, #8
100003228: 08 05 08 8b 	add	x8, x8, x8, lsl #1
10000322c: 15 f1 7d d3 	lsl	x21, x8, #3
100003230: 04 00 00 14 	b	0x100003240 <__ZN4core3ptr65drop_in_place$LT$alloc..vec..Vec$LT$alloc..string..String$GT$$GT$17hf7cfaee6b764effcE+0x3c>
100003234: 94 62 00 91 	add	x20, x20, #24
100003238: b5 62 00 f1 	subs	x21, x21, #24
10000323c: e0 00 00 54 	b.eq	0x100003258 <__ZN4core3ptr65drop_in_place$LT$alloc..vec..Vec$LT$alloc..string..String$GT$$GT$17hf7cfaee6b764effcE+0x54>
100003240: 81 82 5f f8 	ldur	x1, [x20, #-8]
100003244: 81 ff ff b4 	cbz	x1, 0x100003234 <__ZN4core3ptr65drop_in_place$LT$alloc..vec..Vec$LT$alloc..string..String$GT$$GT$17hf7cfaee6b764effcE+0x30>
100003248: 80 02 40 f9 	ldr	x0, [x20]
10000324c: 22 00 80 52 	mov	w2, #1
100003250: 57 fa ff 97 	bl	0x100001bac <___rust_dealloc>
100003254: f8 ff ff 17 	b	0x100003234 <__ZN4core3ptr65drop_in_place$LT$alloc..vec..Vec$LT$alloc..string..String$GT$$GT$17hf7cfaee6b764effcE+0x30>
100003258: 68 02 40 f9 	ldr	x8, [x19]
10000325c: 28 01 00 b4 	cbz	x8, 0x100003280 <__ZN4core3ptr65drop_in_place$LT$alloc..vec..Vec$LT$alloc..string..String$GT$$GT$17hf7cfaee6b764effcE+0x7c>
100003260: 60 06 40 f9 	ldr	x0, [x19, #8]
100003264: 08 05 08 8b 	add	x8, x8, x8, lsl #1
100003268: 01 f1 7d d3 	lsl	x1, x8, #3
10000326c: 02 01 80 52 	mov	w2, #8
100003270: fd 7b 42 a9 	ldp	x29, x30, [sp, #32]
100003274: f4 4f 41 a9 	ldp	x20, x19, [sp, #16]
100003278: f6 57 c3 a8 	ldp	x22, x21, [sp], #48
10000327c: 4c fa ff 17 	b	0x100001bac <___rust_dealloc>
100003280: fd 7b 42 a9 	ldp	x29, x30, [sp, #32]
100003284: f4 4f 41 a9 	ldp	x20, x19, [sp, #16]
100003288: f6 57 c3 a8 	ldp	x22, x21, [sp], #48
10000328c: c0 03 5f d6 	ret

0000000100003290 <__ZN4core3ptr65drop_in_place$LT$std..backtrace_rs..symbolize..gimli..Mapping$GT$17h10b8ec4839ebd09fE>:
100003290: f6 57 bd a9 	stp	x22, x21, [sp, #-48]!
100003294: f4 4f 01 a9 	stp	x20, x19, [sp, #16]
100003298: fd 7b 02 a9 	stp	x29, x30, [sp, #32]
10000329c: fd 83 00 91 	add	x29, sp, #32
1000032a0: f3 03 00 aa 	mov	x19, x0
1000032a4: 00 00 02 91 	add	x0, x0, #128
1000032a8: 8e fc ff 97 	bl	0x1000024e0 <__ZN4core3ptr124drop_in_place$LT$addr2line..ResDwarf$LT$gimli..read..endian_slice..EndianSlice$LT$gimli..endianity..LittleEndian$GT$$GT$$GT$17h7022d754d85cab9aE>
1000032ac: e0 03 13 aa 	mov	x0, x19
1000032b0: 8f 00 00 94 	bl	0x1000034ec <__ZN4core3ptr71drop_in_place$LT$std..backtrace_rs..symbolize..gimli..macho..Object$GT$17h5ba33d7e38f843c4E>
1000032b4: 60 06 4c a9 	ldp	x0, x1, [x19, #192]
1000032b8: 2b bc 00 94 	bl	0x100032364 <_writev+0x100032364>
1000032bc: 68 72 40 f9 	ldr	x8, [x19, #224]
1000032c0: e8 01 00 b4 	cbz	x8, 0x1000032fc <__ZN4core3ptr65drop_in_place$LT$std..backtrace_rs..symbolize..gimli..Mapping$GT$17h10b8ec4839ebd09fE+0x6c>
1000032c4: 69 6e 40 f9 	ldr	x9, [x19, #216]
1000032c8: 34 21 00 91 	add	x20, x9, #8
1000032cc: 08 05 08 8b 	add	x8, x8, x8, lsl #1
1000032d0: 15 f1 7d d3 	lsl	x21, x8, #3
1000032d4: 04 00 00 14 	b	0x1000032e4 <__ZN4core3ptr65drop_in_place$LT$std..backtrace_rs..symbolize..gimli..Mapping$GT$17h10b8ec4839ebd09fE+0x54>
1000032d8: 94 62 00 91 	add	x20, x20, #24
1000032dc: b5 62 00 f1 	subs	x21, x21, #24
1000032e0: e0 00 00 54 	b.eq	0x1000032fc <__ZN4core3ptr65drop_in_place$LT$std..backtrace_rs..symbolize..gimli..Mapping$GT$17h10b8ec4839ebd09fE+0x6c>
1000032e4: 81 82 5f f8 	ldur	x1, [x20, #-8]
1000032e8: 81 ff ff b4 	cbz	x1, 0x1000032d8 <__ZN4core3ptr65drop_in_place$LT$std..backtrace_rs..symbolize..gimli..Mapping$GT$17h10b8ec4839ebd09fE+0x48>
1000032ec: 80 02 40 f9 	ldr	x0, [x20]
1000032f0: 22 00 80 52 	mov	w2, #1
1000032f4: 2e fa ff 97 	bl	0x100001bac <___rust_dealloc>
1000032f8: f8 ff ff 17 	b	0x1000032d8 <__ZN4core3ptr65drop_in_place$LT$std..backtrace_rs..symbolize..gimli..Mapping$GT$17h10b8ec4839ebd09fE+0x48>
1000032fc: 68 6a 40 f9 	ldr	x8, [x19, #208]
100003300: c8 00 00 b4 	cbz	x8, 0x100003318 <__ZN4core3ptr65drop_in_place$LT$std..backtrace_rs..symbolize..gimli..Mapping$GT$17h10b8ec4839ebd09fE+0x88>
100003304: 60 6e 40 f9 	ldr	x0, [x19, #216]
100003308: 08 05 08 8b 	add	x8, x8, x8, lsl #1
10000330c: 01 f1 7d d3 	lsl	x1, x8, #3
100003310: 02 01 80 52 	mov	w2, #8
100003314: 26 fa ff 97 	bl	0x100001bac <___rust_dealloc>
100003318: 68 76 40 f9 	ldr	x8, [x19, #232]
10000331c: c8 00 00 b4 	cbz	x8, 0x100003334 <__ZN4core3ptr65drop_in_place$LT$std..backtrace_rs..symbolize..gimli..Mapping$GT$17h10b8ec4839ebd09fE+0xa4>
100003320: 60 06 4f a9 	ldp	x0, x1, [x19, #240]
100003324: fd 7b 42 a9 	ldp	x29, x30, [sp, #32]
100003328: f4 4f 41 a9 	ldp	x20, x19, [sp, #16]
10000332c: f6 57 c3 a8 	ldp	x22, x21, [sp], #48
100003330: 0d bc 00 14 	b	0x100032364 <_writev+0x100032364>
100003334: fd 7b 42 a9 	ldp	x29, x30, [sp, #32]
100003338: f4 4f 41 a9 	ldp	x20, x19, [sp, #16]
10000333c: f6 57 c3 a8 	ldp	x22, x21, [sp], #48
100003340: c0 03 5f d6 	ret
100003344: f4 03 00 aa 	mov	x20, x0
100003348: 04 00 00 14 	b	0x100003358 <__ZN4core3ptr65drop_in_place$LT$std..backtrace_rs..symbolize..gimli..Mapping$GT$17h10b8ec4839ebd09fE+0xc8>
10000334c: f4 03 00 aa 	mov	x20, x0
100003350: e0 03 13 aa 	mov	x0, x19
100003354: 66 00 00 94 	bl	0x1000034ec <__ZN4core3ptr71drop_in_place$LT$std..backtrace_rs..symbolize..gimli..macho..Object$GT$17h5ba33d7e38f843c4E>
100003358: 60 06 4c a9 	ldp	x0, x1, [x19, #192]
10000335c: 34 00 00 94 	bl	0x10000342c <__ZN4core3ptr68drop_in_place$LT$std..backtrace_rs..symbolize..gimli..mmap..Mmap$GT$17h71078b3983dda579E>
100003360: 60 42 03 91 	add	x0, x19, #208
100003364: 3b 00 00 94 	bl	0x100003450 <__ZN4core3ptr70drop_in_place$LT$std..backtrace_rs..symbolize..gimli..stash..Stash$GT$17hc83bd28d29e15343E>
100003368: e0 03 14 aa 	mov	x0, x20
10000336c: aa bb 00 94 	bl	0x100032214 <_writev+0x100032214>
100003370: 09 bb 00 94 	bl	0x100031f94 <__ZN4core9panicking19panic_cannot_unwind17h96946ae592480b8aE>
100003374: 08 bb 00 94 	bl	0x100031f94 <__ZN4core9panicking19panic_cannot_unwind17h96946ae592480b8aE>

0000000100003378 <__ZN4core3ptr67drop_in_place$LT$alloc..vec..Vec$LT$addr2line..LineSequence$GT$$GT$17hdfcf72e80ef1ddf3E>:
100003378: f6 57 bd a9 	stp	x22, x21, [sp, #-48]!
10000337c: f4 4f 01 a9 	stp	x20, x19, [sp, #16]
100003380: fd 7b 02 a9 	stp	x29, x30, [sp, #32]
100003384: fd 83 00 91 	add	x29, sp, #32
100003388: f3 03 00 aa 	mov	x19, x0
10000338c: 08 08 40 f9 	ldr	x8, [x0, #16]
100003390: 08 02 00 b4 	cbz	x8, 0x1000033d0 <__ZN4core3ptr67drop_in_place$LT$alloc..vec..Vec$LT$addr2line..LineSequence$GT$$GT$17hdfcf72e80ef1ddf3E+0x58>
100003394: 69 06 40 f9 	ldr	x9, [x19, #8]
100003398: 34 21 00 91 	add	x20, x9, #8
10000339c: 15 e9 7b d3 	lsl	x21, x8, #5
1000033a0: 04 00 00 14 	b	0x1000033b0 <__ZN4core3ptr67drop_in_place$LT$alloc..vec..Vec$LT$addr2line..LineSequence$GT$$GT$17hdfcf72e80ef1ddf3E+0x38>
1000033a4: 94 82 00 91 	add	x20, x20, #32
1000033a8: b5 82 00 f1 	subs	x21, x21, #32
1000033ac: 20 01 00 54 	b.eq	0x1000033d0 <__ZN4core3ptr67drop_in_place$LT$alloc..vec..Vec$LT$addr2line..LineSequence$GT$$GT$17hdfcf72e80ef1ddf3E+0x58>
1000033b0: 88 02 40 f9 	ldr	x8, [x20]
1000033b4: 88 ff ff b4 	cbz	x8, 0x1000033a4 <__ZN4core3ptr67drop_in_place$LT$alloc..vec..Vec$LT$addr2line..LineSequence$GT$$GT$17hdfcf72e80ef1ddf3E+0x2c>
1000033b8: 80 82 5f f8 	ldur	x0, [x20, #-8]
1000033bc: 08 05 08 8b 	add	x8, x8, x8, lsl #1
1000033c0: 01 f1 7d d3 	lsl	x1, x8, #3
1000033c4: 02 01 80 52 	mov	w2, #8
1000033c8: f9 f9 ff 97 	bl	0x100001bac <___rust_dealloc>
1000033cc: f6 ff ff 17 	b	0x1000033a4 <__ZN4core3ptr67drop_in_place$LT$alloc..vec..Vec$LT$addr2line..LineSequence$GT$$GT$17hdfcf72e80ef1ddf3E+0x2c>
1000033d0: 68 02 40 f9 	ldr	x8, [x19]
1000033d4: 08 01 00 b4 	cbz	x8, 0x1000033f4 <__ZN4core3ptr67drop_in_place$LT$alloc..vec..Vec$LT$addr2line..LineSequence$GT$$GT$17hdfcf72e80ef1ddf3E+0x7c>
1000033d8: 60 06 40 f9 	ldr	x0, [x19, #8]
1000033dc: 01 e9 7b d3 	lsl	x1, x8, #5
1000033e0: 02 01 80 52 	mov	w2, #8
1000033e4: fd 7b 42 a9 	ldp	x29, x30, [sp, #32]
1000033e8: f4 4f 41 a9 	ldp	x20, x19, [sp, #16]
1000033ec: f6 57 c3 a8 	ldp	x22, x21, [sp], #48
1000033f0: ef f9 ff 17 	b	0x100001bac <___rust_dealloc>
1000033f4: fd 7b 42 a9 	ldp	x29, x30, [sp, #32]
1000033f8: f4 4f 41 a9 	ldp	x20, x19, [sp, #16]
1000033fc: f6 57 c3 a8 	ldp	x22, x21, [sp], #48
100003400: c0 03 5f d6 	ret

0000000100003404 <__ZN4core3ptr68drop_in_place$LT$core..option..Option$LT$std..thread..Thread$GT$$GT$17hf85563fed8ffa158E>:
100003404: 08 00 40 f9 	ldr	x8, [x0]
100003408: 08 01 00 b4 	cbz	x8, 0x100003428 <__ZN4core3ptr68drop_in_place$LT$core..option..Option$LT$std..thread..Thread$GT$$GT$17hf85563fed8ffa158E+0x24>
10000340c: 09 00 80 92 	mov	x9, #-1
100003410: 08 01 69 f8 	<unknown>
100003414: 1f 05 00 f1 	cmp	x8, #1
100003418: 81 00 00 54 	b.ne	0x100003428 <__ZN4core3ptr68drop_in_place$LT$core..option..Option$LT$std..thread..Thread$GT$$GT$17hf85563fed8ffa158E+0x24>
10000341c: bf 39 03 d5 	dmb	ishld
100003420: 00 00 40 f9 	ldr	x0, [x0]
100003424: 63 0f 00 14 	b	0x1000071b0 <__ZN5alloc4sync12Arc$LT$T$GT$9drop_slow17h44ded8e8f5693dacE>
100003428: c0 03 5f d6 	ret

000000010000342c <__ZN4core3ptr68drop_in_place$LT$std..backtrace_rs..symbolize..gimli..mmap..Mmap$GT$17h71078b3983dda579E>:
10000342c: ce bb 00 14 	b	0x100032364 <_writev+0x100032364>

0000000100003430 <__ZN4core3ptr70drop_in_place$LT$core..option..Option$LT$alloc..string..String$GT$$GT$17ha3807e88125ebd8dE>:
100003430: e8 03 00 aa 	mov	x8, x0
100003434: 00 04 40 f9 	ldr	x0, [x0, #8]
100003438: a0 00 00 b4 	cbz	x0, 0x10000344c <__ZN4core3ptr70drop_in_place$LT$core..option..Option$LT$alloc..string..String$GT$$GT$17ha3807e88125ebd8dE+0x1c>
10000343c: 01 01 40 f9 	ldr	x1, [x8]
100003440: 61 00 00 b4 	cbz	x1, 0x10000344c <__ZN4core3ptr70drop_in_place$LT$core..option..Option$LT$alloc..string..String$GT$$GT$17ha3807e88125ebd8dE+0x1c>
100003444: 22 00 80 52 	mov	w2, #1
100003448: d9 f9 ff 17 	b	0x100001bac <___rust_dealloc>
10000344c: c0 03 5f d6 	ret

0000000100003450 <__ZN4core3ptr70drop_in_place$LT$std..backtrace_rs..symbolize..gimli..stash..Stash$GT$17hc83bd28d29e15343E>:
100003450: f6 57 bd a9 	stp	x22, x21, [sp, #-48]!
100003454: f4 4f 01 a9 	stp	x20, x19, [sp, #16]
100003458: fd 7b 02 a9 	stp	x29, x30, [sp, #32]
10000345c: fd 83 00 91 	add	x29, sp, #32
100003460: f3 03 00 aa 	mov	x19, x0
100003464: 08 08 40 f9 	ldr	x8, [x0, #16]
100003468: e8 01 00 b4 	cbz	x8, 0x1000034a4 <__ZN4core3ptr70drop_in_place$LT$std..backtrace_rs..symbolize..gimli..stash..Stash$GT$17hc83bd28d29e15343E+0x54>
10000346c: 69 06 40 f9 	ldr	x9, [x19, #8]
100003470: 34 21 00 91 	add	x20, x9, #8
100003474: 08 05 08 8b 	add	x8, x8, x8, lsl #1
100003478: 15 f1 7d d3 	lsl	x21, x8, #3
10000347c: 04 00 00 14 	b	0x10000348c <__ZN4core3ptr70drop_in_place$LT$std..backtrace_rs..symbolize..gimli..stash..Stash$GT$17hc83bd28d29e15343E+0x3c>
100003480: 94 62 00 91 	add	x20, x20, #24
100003484: b5 62 00 f1 	subs	x21, x21, #24
100003488: e0 00 00 54 	b.eq	0x1000034a4 <__ZN4core3ptr70drop_in_place$LT$std..backtrace_rs..symbolize..gimli..stash..Stash$GT$17hc83bd28d29e15343E+0x54>
10000348c: 81 82 5f f8 	ldur	x1, [x20, #-8]
100003490: 81 ff ff b4 	cbz	x1, 0x100003480 <__ZN4core3ptr70drop_in_place$LT$std..backtrace_rs..symbolize..gimli..stash..Stash$GT$17hc83bd28d29e15343E+0x30>
100003494: 80 02 40 f9 	ldr	x0, [x20]
100003498: 22 00 80 52 	mov	w2, #1
10000349c: c4 f9 ff 97 	bl	0x100001bac <___rust_dealloc>
1000034a0: f8 ff ff 17 	b	0x100003480 <__ZN4core3ptr70drop_in_place$LT$std..backtrace_rs..symbolize..gimli..stash..Stash$GT$17hc83bd28d29e15343E+0x30>
1000034a4: 68 02 40 f9 	ldr	x8, [x19]
1000034a8: c8 00 00 b4 	cbz	x8, 0x1000034c0 <__ZN4core3ptr70drop_in_place$LT$std..backtrace_rs..symbolize..gimli..stash..Stash$GT$17hc83bd28d29e15343E+0x70>
1000034ac: 60 06 40 f9 	ldr	x0, [x19, #8]
1000034b0: 08 05 08 8b 	add	x8, x8, x8, lsl #1
1000034b4: 01 f1 7d d3 	lsl	x1, x8, #3
1000034b8: 02 01 80 52 	mov	w2, #8
1000034bc: bc f9 ff 97 	bl	0x100001bac <___rust_dealloc>
1000034c0: 68 0e 40 f9 	ldr	x8, [x19, #24]
1000034c4: c8 00 00 b4 	cbz	x8, 0x1000034dc <__ZN4core3ptr70drop_in_place$LT$std..backtrace_rs..symbolize..gimli..stash..Stash$GT$17hc83bd28d29e15343E+0x8c>
1000034c8: 60 06 42 a9 	ldp	x0, x1, [x19, #32]
1000034cc: fd 7b 42 a9 	ldp	x29, x30, [sp, #32]
1000034d0: f4 4f 41 a9 	ldp	x20, x19, [sp, #16]
1000034d4: f6 57 c3 a8 	ldp	x22, x21, [sp], #48
1000034d8: a3 bb 00 14 	b	0x100032364 <_writev+0x100032364>
1000034dc: fd 7b 42 a9 	ldp	x29, x30, [sp, #32]
1000034e0: f4 4f 41 a9 	ldp	x20, x19, [sp, #16]
1000034e4: f6 57 c3 a8 	ldp	x22, x21, [sp], #48
1000034e8: c0 03 5f d6 	ret

00000001000034ec <__ZN4core3ptr71drop_in_place$LT$std..backtrace_rs..symbolize..gimli..macho..Object$GT$17h5ba33d7e38f843c4E>:
1000034ec: f8 5f bc a9 	stp	x24, x23, [sp, #-64]!
1000034f0: f6 57 01 a9 	stp	x22, x21, [sp, #16]
1000034f4: f4 4f 02 a9 	stp	x20, x19, [sp, #32]
1000034f8: fd 7b 03 a9 	stp	x29, x30, [sp, #48]
1000034fc: fd c3 00 91 	add	x29, sp, #48
100003500: f3 03 00 aa 	mov	x19, x0
100003504: 08 30 40 f9 	ldr	x8, [x0, #96]
100003508: c8 00 00 b4 	cbz	x8, 0x100003520 <__ZN4core3ptr71drop_in_place$LT$std..backtrace_rs..symbolize..gimli..macho..Object$GT$17h5ba33d7e38f843c4E+0x34>
10000350c: 60 36 40 f9 	ldr	x0, [x19, #104]
100003510: 08 05 08 8b 	add	x8, x8, x8, lsl #1
100003514: 01 f1 7d d3 	lsl	x1, x8, #3
100003518: 02 01 80 52 	mov	w2, #8
10000351c: a4 f9 ff 97 	bl	0x100001bac <___rust_dealloc>
100003520: 60 0e 40 f9 	ldr	x0, [x19, #24]
100003524: a0 01 00 b4 	cbz	x0, 0x100003558 <__ZN4core3ptr71drop_in_place$LT$std..backtrace_rs..symbolize..gimli..macho..Object$GT$17h5ba33d7e38f843c4E+0x6c>
100003528: 68 0a 40 f9 	ldr	x8, [x19, #16]
10000352c: a8 00 00 b4 	cbz	x8, 0x100003540 <__ZN4core3ptr71drop_in_place$LT$std..backtrace_rs..symbolize..gimli..macho..Object$GT$17h5ba33d7e38f843c4E+0x54>
100003530: 08 09 08 8b 	add	x8, x8, x8, lsl #2
100003534: 01 f1 7d d3 	lsl	x1, x8, #3
100003538: 02 01 80 52 	mov	w2, #8
10000353c: 9c f9 ff 97 	bl	0x100001bac <___rust_dealloc>
100003540: 68 16 40 f9 	ldr	x8, [x19, #40]
100003544: a8 00 00 b4 	cbz	x8, 0x100003558 <__ZN4core3ptr71drop_in_place$LT$std..backtrace_rs..symbolize..gimli..macho..Object$GT$17h5ba33d7e38f843c4E+0x6c>
100003548: 60 1a 40 f9 	ldr	x0, [x19, #48]
10000354c: 01 ed 7c d3 	lsl	x1, x8, #4
100003550: 02 01 80 52 	mov	w2, #8
100003554: 96 f9 ff 97 	bl	0x100001bac <___rust_dealloc>
100003558: 68 2e 40 f9 	ldr	x8, [x19, #88]
10000355c: 08 03 00 b4 	cbz	x8, 0x1000035bc <__ZN4core3ptr71drop_in_place$LT$std..backtrace_rs..symbolize..gimli..macho..Object$GT$17h5ba33d7e38f843c4E+0xd0>
100003560: 60 2a 40 f9 	ldr	x0, [x19, #80]
100003564: 16 20 08 8b 	add	x22, x0, x8, lsl #8
100003568: 15 dd 78 d3 	lsl	x21, x8, #8
10000356c: 04 00 00 14 	b	0x10000357c <__ZN4core3ptr71drop_in_place$LT$std..backtrace_rs..symbolize..gimli..macho..Object$GT$17h5ba33d7e38f843c4E+0x90>
100003570: e0 03 14 aa 	mov	x0, x20
100003574: b5 02 04 f1 	subs	x21, x21, #256
100003578: e0 00 00 54 	b.eq	0x100003594 <__ZN4core3ptr71drop_in_place$LT$std..backtrace_rs..symbolize..gimli..macho..Object$GT$17h5ba33d7e38f843c4E+0xa8>
10000357c: 14 00 04 91 	add	x20, x0, #256
100003580: 08 e0 41 39 	ldrb	w8, [x0, #120]
100003584: 1f 05 00 71 	cmp	w8, #1
100003588: 48 ff ff 54 	b.hi	0x100003570 <__ZN4core3ptr71drop_in_place$LT$std..backtrace_rs..symbolize..gimli..macho..Object$GT$17h5ba33d7e38f843c4E+0x84>
10000358c: 41 ff ff 97 	bl	0x100003290 <__ZN4core3ptr65drop_in_place$LT$std..backtrace_rs..symbolize..gimli..Mapping$GT$17h10b8ec4839ebd09fE>
100003590: f8 ff ff 17 	b	0x100003570 <__ZN4core3ptr71drop_in_place$LT$std..backtrace_rs..symbolize..gimli..macho..Object$GT$17h5ba33d7e38f843c4E+0x84>
100003594: 68 2e 40 f9 	ldr	x8, [x19, #88]
100003598: 28 01 00 b4 	cbz	x8, 0x1000035bc <__ZN4core3ptr71drop_in_place$LT$std..backtrace_rs..symbolize..gimli..macho..Object$GT$17h5ba33d7e38f843c4E+0xd0>
10000359c: 60 2a 40 f9 	ldr	x0, [x19, #80]
1000035a0: 01 dd 78 d3 	lsl	x1, x8, #8
1000035a4: 02 01 80 52 	mov	w2, #8
1000035a8: fd 7b 43 a9 	ldp	x29, x30, [sp, #48]
1000035ac: f4 4f 42 a9 	ldp	x20, x19, [sp, #32]
1000035b0: f6 57 41 a9 	ldp	x22, x21, [sp, #16]
1000035b4: f8 5f c4 a8 	ldp	x24, x23, [sp], #64
1000035b8: 7d f9 ff 17 	b	0x100001bac <___rust_dealloc>
1000035bc: fd 7b 43 a9 	ldp	x29, x30, [sp, #48]
1000035c0: f4 4f 42 a9 	ldp	x20, x19, [sp, #32]
1000035c4: f6 57 41 a9 	ldp	x22, x21, [sp, #16]
1000035c8: f8 5f c4 a8 	ldp	x24, x23, [sp], #64
1000035cc: c0 03 5f d6 	ret
1000035d0: f5 03 00 aa 	mov	x21, x0
1000035d4: 9f 02 16 eb 	cmp	x20, x22
1000035d8: c0 00 00 54 	b.eq	0x1000035f0 <__ZN4core3ptr71drop_in_place$LT$std..backtrace_rs..symbolize..gimli..macho..Object$GT$17h5ba33d7e38f843c4E+0x104>
1000035dc: 97 02 04 91 	add	x23, x20, #256
1000035e0: e0 03 14 aa 	mov	x0, x20
1000035e4: 9c fb ff 97 	bl	0x100002454 <__ZN4core3ptr121drop_in_place$LT$core..option..Option$LT$core..option..Option$LT$std..backtrace_rs..symbolize..gimli..Mapping$GT$$GT$$GT$17hbbec5fe61fe5378bE>
1000035e8: f4 03 17 aa 	mov	x20, x23
1000035ec: fa ff ff 17 	b	0x1000035d4 <__ZN4core3ptr71drop_in_place$LT$std..backtrace_rs..symbolize..gimli..macho..Object$GT$17h5ba33d7e38f843c4E+0xe8>
1000035f0: 60 06 45 a9 	ldp	x0, x1, [x19, #80]
1000035f4: 62 0f 00 94 	bl	0x10000737c <__ZN5alloc5alloc8box_free17he830c6f2a7165079E>
1000035f8: e0 03 15 aa 	mov	x0, x21
1000035fc: 06 bb 00 94 	bl	0x100032214 <_writev+0x100032214>
100003600: 65 ba 00 94 	bl	0x100031f94 <__ZN4core9panicking19panic_cannot_unwind17h96946ae592480b8aE>

0000000100003604 <__ZN4core3ptr71drop_in_place$LT$std..sync..rwlock..RwLockReadGuard$LT$$LP$$RP$$GT$$GT$17h0c173c356809a364E>:
100003604: fd 7b bf a9 	stp	x29, x30, [sp, #-16]!
100003608: fd 03 00 91 	mov	x29, sp
10000360c: 08 04 40 f9 	ldr	x8, [x0, #8]
100003610: 00 fd df c8 	ldar	x0, [x8]
100003614: c0 00 00 b4 	cbz	x0, 0x10000362c <__ZN4core3ptr71drop_in_place$LT$std..sync..rwlock..RwLockReadGuard$LT$$LP$$RP$$GT$$GT$17h0c173c356809a364E+0x28>
100003618: 08 20 03 91 	add	x8, x0, #200
10000361c: 09 00 80 92 	mov	x9, #-1
100003620: 08 01 29 f8 	<unknown>
100003624: fd 7b c1 a8 	ldp	x29, x30, [sp], #16
100003628: 7f bb 00 14 	b	0x100032424 <_writev+0x100032424>
10000362c: e0 03 08 aa 	mov	x0, x8
100003630: cc b7 00 94 	bl	0x100031560 <__ZN3std10sys_common8lazy_box16LazyBox$LT$T$GT$10initialize17h3e4967693257493fE>
100003634: f9 ff ff 17 	b	0x100003618 <__ZN4core3ptr71drop_in_place$LT$std..sync..rwlock..RwLockReadGuard$LT$$LP$$RP$$GT$$GT$17h0c173c356809a364E+0x14>

0000000100003638 <__ZN4core3ptr72drop_in_place$LT$alloc..collections..btree..mem..replace..PanicGuard$GT$17h551057327056d890E>:
100003638: 5d 98 00 14 	b	0x1000297ac <__ZN93_$LT$alloc..collections..btree..mem..replace..PanicGuard$u20$as$u20$core..ops..drop..Drop$GT$4drop17h8c3be4cd531b0420E>

000000010000363c <__ZN4core3ptr72drop_in_place$LT$core..option..Option$LT$object..read..ObjectMap$GT$$GT$17hd31effb3b2d3147fE>:
10000363c: f4 4f be a9 	stp	x20, x19, [sp, #-32]!
100003640: fd 7b 01 a9 	stp	x29, x30, [sp, #16]
100003644: fd 43 00 91 	add	x29, sp, #16
100003648: f3 03 00 aa 	mov	x19, x0
10000364c: 00 04 40 f9 	ldr	x0, [x0, #8]
100003650: e0 01 00 b4 	cbz	x0, 0x10000368c <__ZN4core3ptr72drop_in_place$LT$core..option..Option$LT$object..read..ObjectMap$GT$$GT$17hd31effb3b2d3147fE+0x50>
100003654: 68 02 40 f9 	ldr	x8, [x19]
100003658: a8 00 00 b4 	cbz	x8, 0x10000366c <__ZN4core3ptr72drop_in_place$LT$core..option..Option$LT$object..read..ObjectMap$GT$$GT$17hd31effb3b2d3147fE+0x30>
10000365c: 08 09 08 8b 	add	x8, x8, x8, lsl #2
100003660: 01 f1 7d d3 	lsl	x1, x8, #3
100003664: 02 01 80 52 	mov	w2, #8
100003668: 51 f9 ff 97 	bl	0x100001bac <___rust_dealloc>
10000366c: 68 0e 40 f9 	ldr	x8, [x19, #24]
100003670: e8 00 00 b4 	cbz	x8, 0x10000368c <__ZN4core3ptr72drop_in_place$LT$core..option..Option$LT$object..read..ObjectMap$GT$$GT$17hd31effb3b2d3147fE+0x50>
100003674: 60 12 40 f9 	ldr	x0, [x19, #32]
100003678: 01 ed 7c d3 	lsl	x1, x8, #4
10000367c: 02 01 80 52 	mov	w2, #8
100003680: fd 7b 41 a9 	ldp	x29, x30, [sp, #16]
100003684: f4 4f c2 a8 	ldp	x20, x19, [sp], #32
100003688: 49 f9 ff 17 	b	0x100001bac <___rust_dealloc>
10000368c: fd 7b 41 a9 	ldp	x29, x30, [sp, #16]
100003690: f4 4f c2 a8 	ldp	x20, x19, [sp], #32
100003694: c0 03 5f d6 	ret

0000000100003698 <__ZN4core3ptr73drop_in_place$LT$std..sys..unix..locks..pthread_mutex..AllocatedMutex$GT$17hece7977b6b556119E>:
100003698: 45 bb 00 14 	b	0x1000323ac <_writev+0x1000323ac>

000000010000369c <__ZN4core3ptr75drop_in_place$LT$core..option..Option$LT$alloc..ffi..c_str..CString$GT$$GT$17h7544ed3db3331950E>:
10000369c: 08 00 40 f9 	ldr	x8, [x0]
1000036a0: e8 00 00 b4 	cbz	x8, 0x1000036bc <__ZN4core3ptr75drop_in_place$LT$core..option..Option$LT$alloc..ffi..c_str..CString$GT$$GT$17h7544ed3db3331950E+0x20>
1000036a4: 1f 01 00 39 	strb	wzr, [x8]
1000036a8: 01 04 40 f9 	ldr	x1, [x0, #8]
1000036ac: 81 00 00 b4 	cbz	x1, 0x1000036bc <__ZN4core3ptr75drop_in_place$LT$core..option..Option$LT$alloc..ffi..c_str..CString$GT$$GT$17h7544ed3db3331950E+0x20>
1000036b0: 00 00 40 f9 	ldr	x0, [x0]
1000036b4: 22 00 80 52 	mov	w2, #1
1000036b8: 3d f9 ff 17 	b	0x100001bac <___rust_dealloc>
1000036bc: c0 03 5f d6 	ret

00000001000036c0 <__ZN4core3ptr75drop_in_place$LT$std..sys..unix..locks..pthread_mutex..PthreadMutexAttr$GT$17hbd4c028a71c71b92E>:
1000036c0: 4a bb 00 14 	b	0x1000323e8 <_writev+0x1000323e8>

00000001000036c4 <__ZN4core3ptr75drop_in_place$LT$std..sys..unix..locks..pthread_rwlock..AllocatedRwLock$GT$17h52be0a2f4d19d89dE>:
1000036c4: 52 bb 00 14 	b	0x10003240c <_writev+0x10003240c>

00000001000036c8 <__ZN4core3ptr77drop_in_place$LT$alloc..boxed..Box$LT$$u5b$alloc..string..String$u5d$$GT$$GT$17ha6b7c53b1839abc5E>:
1000036c8: f6 57 bd a9 	stp	x22, x21, [sp, #-48]!
1000036cc: f4 4f 01 a9 	stp	x20, x19, [sp, #16]
1000036d0: fd 7b 02 a9 	stp	x29, x30, [sp, #32]
1000036d4: fd 83 00 91 	add	x29, sp, #32
1000036d8: 08 04 40 f9 	ldr	x8, [x0, #8]
1000036dc: 48 03 00 b4 	cbz	x8, 0x100003744 <__ZN4core3ptr77drop_in_place$LT$alloc..boxed..Box$LT$$u5b$alloc..string..String$u5d$$GT$$GT$17ha6b7c53b1839abc5E+0x7c>
1000036e0: f3 03 00 aa 	mov	x19, x0
1000036e4: 09 00 40 f9 	ldr	x9, [x0]
1000036e8: 34 21 00 91 	add	x20, x9, #8
1000036ec: 08 05 08 8b 	add	x8, x8, x8, lsl #1
1000036f0: 15 f1 7d d3 	lsl	x21, x8, #3
1000036f4: 04 00 00 14 	b	0x100003704 <__ZN4core3ptr77drop_in_place$LT$alloc..boxed..Box$LT$$u5b$alloc..string..String$u5d$$GT$$GT$17ha6b7c53b1839abc5E+0x3c>
1000036f8: 94 62 00 91 	add	x20, x20, #24
1000036fc: b5 62 00 f1 	subs	x21, x21, #24
100003700: e0 00 00 54 	b.eq	0x10000371c <__ZN4core3ptr77drop_in_place$LT$alloc..boxed..Box$LT$$u5b$alloc..string..String$u5d$$GT$$GT$17ha6b7c53b1839abc5E+0x54>
100003704: 81 82 5f f8 	ldur	x1, [x20, #-8]
100003708: 81 ff ff b4 	cbz	x1, 0x1000036f8 <__ZN4core3ptr77drop_in_place$LT$alloc..boxed..Box$LT$$u5b$alloc..string..String$u5d$$GT$$GT$17ha6b7c53b1839abc5E+0x30>
10000370c: 80 02 40 f9 	ldr	x0, [x20]
100003710: 22 00 80 52 	mov	w2, #1
100003714: 26 f9 ff 97 	bl	0x100001bac <___rust_dealloc>
100003718: f8 ff ff 17 	b	0x1000036f8 <__ZN4core3ptr77drop_in_place$LT$alloc..boxed..Box$LT$$u5b$alloc..string..String$u5d$$GT$$GT$17ha6b7c53b1839abc5E+0x30>
10000371c: 68 06 40 f9 	ldr	x8, [x19, #8]
100003720: 28 01 00 b4 	cbz	x8, 0x100003744 <__ZN4core3ptr77drop_in_place$LT$alloc..boxed..Box$LT$$u5b$alloc..string..String$u5d$$GT$$GT$17ha6b7c53b1839abc5E+0x7c>
100003724: 60 02 40 f9 	ldr	x0, [x19]
100003728: 08 05 08 8b 	add	x8, x8, x8, lsl #1
10000372c: 01 f1 7d d3 	lsl	x1, x8, #3
100003730: 02 01 80 52 	mov	w2, #8
100003734: fd 7b 42 a9 	ldp	x29, x30, [sp, #32]
100003738: f4 4f 41 a9 	ldp	x20, x19, [sp, #16]
10000373c: f6 57 c3 a8 	ldp	x22, x21, [sp], #48
100003740: 1b f9 ff 17 	b	0x100001bac <___rust_dealloc>
100003744: fd 7b 42 a9 	ldp	x29, x30, [sp, #32]
100003748: f4 4f 41 a9 	ldp	x20, x19, [sp, #16]
10000374c: f6 57 c3 a8 	ldp	x22, x21, [sp], #48
100003750: c0 03 5f d6 	ret

0000000100003754 <__ZN4core3ptr78drop_in_place$LT$alloc..vec..Vec$LT$gimli..read..line..FileEntryFormat$GT$$GT$17ha2db4e571bf659f0E>:
100003754: 08 00 40 f9 	ldr	x8, [x0]
100003758: a8 00 00 b4 	cbz	x8, 0x10000376c <__ZN4core3ptr78drop_in_place$LT$alloc..vec..Vec$LT$gimli..read..line..FileEntryFormat$GT$$GT$17ha2db4e571bf659f0E+0x18>
10000375c: 00 04 40 f9 	ldr	x0, [x0, #8]
100003760: 01 f5 7e d3 	lsl	x1, x8, #2
100003764: 42 00 80 52 	mov	w2, #2
100003768: 11 f9 ff 17 	b	0x100001bac <___rust_dealloc>
10000376c: c0 03 5f d6 	ret

0000000100003770 <__ZN4core3ptr81drop_in_place$LT$$LP$usize$C$std..backtrace_rs..symbolize..gimli..Mapping$RP$$GT$17hd1c931cf88df3a91E>:
100003770: 00 20 00 91 	add	x0, x0, #8
100003774: c7 fe ff 17 	b	0x100003290 <__ZN4core3ptr65drop_in_place$LT$std..backtrace_rs..symbolize..gimli..Mapping$GT$17h10b8ec4839ebd09fE>

0000000100003778 <__ZN4core3ptr81drop_in_place$LT$core..result..Result$LT$$LP$$RP$$C$std..io..error..Error$GT$$GT$17ha466d504a0d62c65E>:
100003778: f6 57 bd a9 	stp	x22, x21, [sp, #-48]!
10000377c: f4 4f 01 a9 	stp	x20, x19, [sp, #16]
100003780: fd 7b 02 a9 	stp	x29, x30, [sp, #32]
100003784: fd 83 00 91 	add	x29, sp, #32
100003788: e0 02 00 b4 	cbz	x0, 0x1000037e4 <__ZN4core3ptr81drop_in_place$LT$core..result..Result$LT$$LP$$RP$$C$std..io..error..Error$GT$$GT$17ha466d504a0d62c65E+0x6c>
10000378c: f4 03 00 aa 	mov	x20, x0
100003790: 08 04 40 92 	and	x8, x0, #0x3
100003794: 1f 05 00 f1 	cmp	x8, #1
100003798: 61 02 00 54 	b.ne	0x1000037e4 <__ZN4core3ptr81drop_in_place$LT$core..result..Result$LT$$LP$$RP$$C$std..io..error..Error$GT$$GT$17ha466d504a0d62c65E+0x6c>
10000379c: f3 03 14 aa 	mov	x19, x20
1000037a0: 60 fe 5f f8 	ldr	x0, [x19, #-1]!
1000037a4: 68 06 40 f9 	ldr	x8, [x19, #8]
1000037a8: 08 01 40 f9 	ldr	x8, [x8]
1000037ac: 00 01 3f d6 	blr	x8
1000037b0: 88 72 40 f8 	ldur	x8, [x20, #7]
1000037b4: 01 05 40 f9 	ldr	x1, [x8, #8]
1000037b8: 81 00 00 b4 	cbz	x1, 0x1000037c8 <__ZN4core3ptr81drop_in_place$LT$core..result..Result$LT$$LP$$RP$$C$std..io..error..Error$GT$$GT$17ha466d504a0d62c65E+0x50>
1000037bc: 02 09 40 f9 	ldr	x2, [x8, #16]
1000037c0: 60 02 40 f9 	ldr	x0, [x19]
1000037c4: fa f8 ff 97 	bl	0x100001bac <___rust_dealloc>
1000037c8: e0 03 13 aa 	mov	x0, x19
1000037cc: 01 03 80 52 	mov	w1, #24
1000037d0: 02 01 80 52 	mov	w2, #8
1000037d4: fd 7b 42 a9 	ldp	x29, x30, [sp, #32]
1000037d8: f4 4f 41 a9 	ldp	x20, x19, [sp, #16]
1000037dc: f6 57 c3 a8 	ldp	x22, x21, [sp], #48
1000037e0: f3 f8 ff 17 	b	0x100001bac <___rust_dealloc>
1000037e4: fd 7b 42 a9 	ldp	x29, x30, [sp, #32]
1000037e8: f4 4f 41 a9 	ldp	x20, x19, [sp, #16]
1000037ec: f6 57 c3 a8 	ldp	x22, x21, [sp], #48
1000037f0: c0 03 5f d6 	ret
1000037f4: f5 03 00 aa 	mov	x21, x0
1000037f8: 80 f2 5f f8 	ldur	x0, [x20, #-1]
1000037fc: 88 72 40 f8 	ldur	x8, [x20, #7]
100003800: 01 89 40 a9 	ldp	x1, x2, [x8, #8]
100003804: d5 0e 00 94 	bl	0x100007358 <__ZN5alloc5alloc8box_free17h0b15272aacb880a7E>
100003808: e0 03 13 aa 	mov	x0, x19
10000380c: d9 0e 00 94 	bl	0x100007370 <__ZN5alloc5alloc8box_free17h6f0f6e1382d9c275E>
100003810: e0 03 15 aa 	mov	x0, x21
100003814: 80 ba 00 94 	bl	0x100032214 <_writev+0x100032214>

0000000100003818 <__ZN4core3ptr82drop_in_place$LT$alloc..sync..ArcInner$LT$std..sys..unix..fs..InnerReadDir$GT$$GT$17ha3d7c638a76ee920E>:
100003818: f4 4f be a9 	stp	x20, x19, [sp, #-32]!
10000381c: fd 7b 01 a9 	stp	x29, x30, [sp, #16]
100003820: fd 43 00 91 	add	x29, sp, #16
100003824: f3 03 00 aa 	mov	x19, x0
100003828: 00 40 00 91 	add	x0, x0, #16
10000382c: 5c 61 00 94 	bl	0x10001bd9c <__ZN65_$LT$std..sys..unix..fs..Dir$u20$as$u20$core..ops..drop..Drop$GT$4drop17hf26003a20ae3ccd1E>
100003830: 61 0e 40 f9 	ldr	x1, [x19, #24]
100003834: c1 00 00 b4 	cbz	x1, 0x10000384c <__ZN4core3ptr82drop_in_place$LT$alloc..sync..ArcInner$LT$std..sys..unix..fs..InnerReadDir$GT$$GT$17ha3d7c638a76ee920E+0x34>
100003838: 60 12 40 f9 	ldr	x0, [x19, #32]
10000383c: 22 00 80 52 	mov	w2, #1
100003840: fd 7b 41 a9 	ldp	x29, x30, [sp, #16]
100003844: f4 4f c2 a8 	ldp	x20, x19, [sp], #32
100003848: d9 f8 ff 17 	b	0x100001bac <___rust_dealloc>
10000384c: fd 7b 41 a9 	ldp	x29, x30, [sp, #16]
100003850: f4 4f c2 a8 	ldp	x20, x19, [sp], #32
100003854: c0 03 5f d6 	ret
100003858: f4 03 00 aa 	mov	x20, x0
10000385c: 60 62 00 91 	add	x0, x19, #24
100003860: b2 fc ff 97 	bl	0x100002b28 <__ZN4core3ptr205drop_in_place$LT$$LT$alloc..boxed..Box$LT$dyn$u20$core..error..Error$u2b$core..marker..Sync$u2b$core..marker..Send$GT$$u20$as$u20$core..convert..From$LT$alloc..string..String$GT$$GT$..from..StringError$GT$17hd77eda84c3ac6f7aE>
100003864: e0 03 14 aa 	mov	x0, x20
100003868: 6b ba 00 94 	bl	0x100032214 <_writev+0x100032214>

000000010000386c <__ZN4core3ptr83drop_in_place$LT$std..sys_common..thread_info..set..$u7b$$u7b$closure$u7d$$u7d$$GT$17he4a9c16221a05de0E>:
10000386c: 08 00 40 f9 	ldr	x8, [x0]
100003870: 09 00 80 92 	mov	x9, #-1
100003874: 08 01 69 f8 	<unknown>
100003878: 1f 05 00 f1 	cmp	x8, #1
10000387c: 81 00 00 54 	b.ne	0x10000388c <__ZN4core3ptr83drop_in_place$LT$std..sys_common..thread_info..set..$u7b$$u7b$closure$u7d$$u7d$$GT$17he4a9c16221a05de0E+0x20>
100003880: bf 39 03 d5 	dmb	ishld
100003884: 00 00 40 f9 	ldr	x0, [x0]
100003888: 4a 0e 00 14 	b	0x1000071b0 <__ZN5alloc4sync12Arc$LT$T$GT$9drop_slow17h44ded8e8f5693dacE>
10000388c: c0 03 5f d6 	ret

0000000100003890 <__ZN4core3ptr84drop_in_place$LT$std..io..stdio..set_output_capture..$u7b$$u7b$closure$u7d$$u7d$$GT$17hbfaa05d2534d24d0E>:
100003890: 08 00 40 f9 	ldr	x8, [x0]
100003894: 08 01 00 b4 	cbz	x8, 0x1000038b4 <__ZN4core3ptr84drop_in_place$LT$std..io..stdio..set_output_capture..$u7b$$u7b$closure$u7d$$u7d$$GT$17hbfaa05d2534d24d0E+0x24>
100003898: 09 00 80 92 	mov	x9, #-1
10000389c: 08 01 69 f8 	<unknown>
1000038a0: 1f 05 00 f1 	cmp	x8, #1
1000038a4: 81 00 00 54 	b.ne	0x1000038b4 <__ZN4core3ptr84drop_in_place$LT$std..io..stdio..set_output_capture..$u7b$$u7b$closure$u7d$$u7d$$GT$17hbfaa05d2534d24d0E+0x24>
1000038a8: bf 39 03 d5 	dmb	ishld
1000038ac: 00 00 40 f9 	ldr	x0, [x0]
1000038b0: 16 0e 00 14 	b	0x100007108 <__ZN5alloc4sync12Arc$LT$T$GT$9drop_slow17h0a775a8ce062156eE>
1000038b4: c0 03 5f d6 	ret

00000001000038b8 <__ZN4core3ptr86drop_in_place$LT$core..result..Result$LT$addr2line..Lines$C$gimli..read..Error$GT$$GT$17h0a0320443a858bceE>:
1000038b8: f6 57 bd a9 	stp	x22, x21, [sp, #-48]!
1000038bc: f4 4f 01 a9 	stp	x20, x19, [sp, #16]
1000038c0: fd 7b 02 a9 	stp	x29, x30, [sp, #32]
1000038c4: fd 83 00 91 	add	x29, sp, #32
1000038c8: 08 00 40 f9 	ldr	x8, [x0]
1000038cc: 48 06 00 b4 	cbz	x8, 0x100003994 <__ZN4core3ptr86drop_in_place$LT$core..result..Result$LT$addr2line..Lines$C$gimli..read..Error$GT$$GT$17h0a0320443a858bceE+0xdc>
1000038d0: f3 03 00 aa 	mov	x19, x0
1000038d4: 09 04 40 f9 	ldr	x9, [x0, #8]
1000038d8: a9 02 00 b4 	cbz	x9, 0x10000392c <__ZN4core3ptr86drop_in_place$LT$core..result..Result$LT$addr2line..Lines$C$gimli..read..Error$GT$$GT$17h0a0320443a858bceE+0x74>
1000038dc: 14 21 00 91 	add	x20, x8, #8
1000038e0: 28 05 09 8b 	add	x8, x9, x9, lsl #1
1000038e4: 15 f1 7d d3 	lsl	x21, x8, #3
1000038e8: 04 00 00 14 	b	0x1000038f8 <__ZN4core3ptr86drop_in_place$LT$core..result..Result$LT$addr2line..Lines$C$gimli..read..Error$GT$$GT$17h0a0320443a858bceE+0x40>
1000038ec: 94 62 00 91 	add	x20, x20, #24
1000038f0: b5 62 00 f1 	subs	x21, x21, #24
1000038f4: e0 00 00 54 	b.eq	0x100003910 <__ZN4core3ptr86drop_in_place$LT$core..result..Result$LT$addr2line..Lines$C$gimli..read..Error$GT$$GT$17h0a0320443a858bceE+0x58>
1000038f8: 81 82 5f f8 	ldur	x1, [x20, #-8]
1000038fc: 81 ff ff b4 	cbz	x1, 0x1000038ec <__ZN4core3ptr86drop_in_place$LT$core..result..Result$LT$addr2line..Lines$C$gimli..read..Error$GT$$GT$17h0a0320443a858bceE+0x34>
100003900: 80 02 40 f9 	ldr	x0, [x20]
100003904: 22 00 80 52 	mov	w2, #1
100003908: a9 f8 ff 97 	bl	0x100001bac <___rust_dealloc>
10000390c: f8 ff ff 17 	b	0x1000038ec <__ZN4core3ptr86drop_in_place$LT$core..result..Result$LT$addr2line..Lines$C$gimli..read..Error$GT$$GT$17h0a0320443a858bceE+0x34>
100003910: 68 06 40 f9 	ldr	x8, [x19, #8]
100003914: c8 00 00 b4 	cbz	x8, 0x10000392c <__ZN4core3ptr86drop_in_place$LT$core..result..Result$LT$addr2line..Lines$C$gimli..read..Error$GT$$GT$17h0a0320443a858bceE+0x74>
100003918: 60 02 40 f9 	ldr	x0, [x19]
10000391c: 08 05 08 8b 	add	x8, x8, x8, lsl #1
100003920: 01 f1 7d d3 	lsl	x1, x8, #3
100003924: 02 01 80 52 	mov	w2, #8
100003928: a1 f8 ff 97 	bl	0x100001bac <___rust_dealloc>
10000392c: 68 0e 40 f9 	ldr	x8, [x19, #24]
100003930: 28 03 00 b4 	cbz	x8, 0x100003994 <__ZN4core3ptr86drop_in_place$LT$core..result..Result$LT$addr2line..Lines$C$gimli..read..Error$GT$$GT$17h0a0320443a858bceE+0xdc>
100003934: 69 0a 40 f9 	ldr	x9, [x19, #16]
100003938: 34 21 00 91 	add	x20, x9, #8
10000393c: 15 e9 7b d3 	lsl	x21, x8, #5
100003940: 04 00 00 14 	b	0x100003950 <__ZN4core3ptr86drop_in_place$LT$core..result..Result$LT$addr2line..Lines$C$gimli..read..Error$GT$$GT$17h0a0320443a858bceE+0x98>
100003944: 94 82 00 91 	add	x20, x20, #32
100003948: b5 82 00 f1 	subs	x21, x21, #32
10000394c: 20 01 00 54 	b.eq	0x100003970 <__ZN4core3ptr86drop_in_place$LT$core..result..Result$LT$addr2line..Lines$C$gimli..read..Error$GT$$GT$17h0a0320443a858bceE+0xb8>
100003950: 88 02 40 f9 	ldr	x8, [x20]
100003954: 88 ff ff b4 	cbz	x8, 0x100003944 <__ZN4core3ptr86drop_in_place$LT$core..result..Result$LT$addr2line..Lines$C$gimli..read..Error$GT$$GT$17h0a0320443a858bceE+0x8c>
100003958: 80 82 5f f8 	ldur	x0, [x20, #-8]
10000395c: 08 05 08 8b 	add	x8, x8, x8, lsl #1
100003960: 01 f1 7d d3 	lsl	x1, x8, #3
100003964: 02 01 80 52 	mov	w2, #8
100003968: 91 f8 ff 97 	bl	0x100001bac <___rust_dealloc>
10000396c: f6 ff ff 17 	b	0x100003944 <__ZN4core3ptr86drop_in_place$LT$core..result..Result$LT$addr2line..Lines$C$gimli..read..Error$GT$$GT$17h0a0320443a858bceE+0x8c>
100003970: 68 0e 40 f9 	ldr	x8, [x19, #24]
100003974: 08 01 00 b4 	cbz	x8, 0x100003994 <__ZN4core3ptr86drop_in_place$LT$core..result..Result$LT$addr2line..Lines$C$gimli..read..Error$GT$$GT$17h0a0320443a858bceE+0xdc>
100003978: 60 0a 40 f9 	ldr	x0, [x19, #16]
10000397c: 01 e9 7b d3 	lsl	x1, x8, #5
100003980: 02 01 80 52 	mov	w2, #8
100003984: fd 7b 42 a9 	ldp	x29, x30, [sp, #32]
100003988: f4 4f 41 a9 	ldp	x20, x19, [sp, #16]
10000398c: f6 57 c3 a8 	ldp	x22, x21, [sp], #48
100003990: 87 f8 ff 17 	b	0x100001bac <___rust_dealloc>
100003994: fd 7b 42 a9 	ldp	x29, x30, [sp, #32]
100003998: f4 4f 41 a9 	ldp	x20, x19, [sp, #16]
10000399c: f6 57 c3 a8 	ldp	x22, x21, [sp], #48
1000039a0: c0 03 5f d6 	ret

00000001000039a4 <__ZN4core3ptr88drop_in_place$LT$alloc..vec..Vec$LT$std..backtrace_rs..symbolize..gimli..Library$GT$$GT$17h56656f032d8b4b22E>:
1000039a4: f6 57 bd a9 	stp	x22, x21, [sp, #-48]!
1000039a8: f4 4f 01 a9 	stp	x20, x19, [sp, #16]
1000039ac: fd 7b 02 a9 	stp	x29, x30, [sp, #32]
1000039b0: fd 83 00 91 	add	x29, sp, #32
1000039b4: f3 03 00 aa 	mov	x19, x0
1000039b8: 08 08 40 f9 	ldr	x8, [x0, #16]
1000039bc: a8 02 00 b4 	cbz	x8, 0x100003a10 <__ZN4core3ptr88drop_in_place$LT$alloc..vec..Vec$LT$std..backtrace_rs..symbolize..gimli..Library$GT$$GT$17h56656f032d8b4b22E+0x6c>
1000039c0: 69 06 40 f9 	ldr	x9, [x19, #8]
1000039c4: 34 a1 00 91 	add	x20, x9, #40
1000039c8: 09 07 80 52 	mov	w9, #56
1000039cc: 15 7d 09 9b 	mul	x21, x8, x9
1000039d0: 04 00 00 14 	b	0x1000039e0 <__ZN4core3ptr88drop_in_place$LT$alloc..vec..Vec$LT$std..backtrace_rs..symbolize..gimli..Library$GT$$GT$17h56656f032d8b4b22E+0x3c>
1000039d4: 94 e2 00 91 	add	x20, x20, #56
1000039d8: b5 e2 00 f1 	subs	x21, x21, #56
1000039dc: a0 01 00 54 	b.eq	0x100003a10 <__ZN4core3ptr88drop_in_place$LT$alloc..vec..Vec$LT$std..backtrace_rs..symbolize..gimli..Library$GT$$GT$17h56656f032d8b4b22E+0x6c>
1000039e0: 81 02 5e f8 	ldur	x1, [x20, #-32]
1000039e4: 81 00 00 b4 	cbz	x1, 0x1000039f4 <__ZN4core3ptr88drop_in_place$LT$alloc..vec..Vec$LT$std..backtrace_rs..symbolize..gimli..Library$GT$$GT$17h56656f032d8b4b22E+0x50>
1000039e8: 80 82 5e f8 	ldur	x0, [x20, #-24]
1000039ec: 22 00 80 52 	mov	w2, #1
1000039f0: 6f f8 ff 97 	bl	0x100001bac <___rust_dealloc>
1000039f4: 88 82 5f f8 	ldur	x8, [x20, #-8]
1000039f8: e8 fe ff b4 	cbz	x8, 0x1000039d4 <__ZN4core3ptr88drop_in_place$LT$alloc..vec..Vec$LT$std..backtrace_rs..symbolize..gimli..Library$GT$$GT$17h56656f032d8b4b22E+0x30>
1000039fc: 80 02 40 f9 	ldr	x0, [x20]
100003a00: 01 ed 7c d3 	lsl	x1, x8, #4
100003a04: 02 01 80 52 	mov	w2, #8
100003a08: 69 f8 ff 97 	bl	0x100001bac <___rust_dealloc>
100003a0c: f2 ff ff 17 	b	0x1000039d4 <__ZN4core3ptr88drop_in_place$LT$alloc..vec..Vec$LT$std..backtrace_rs..symbolize..gimli..Library$GT$$GT$17h56656f032d8b4b22E+0x30>
100003a10: 68 02 40 f9 	ldr	x8, [x19]
100003a14: 28 01 00 b4 	cbz	x8, 0x100003a38 <__ZN4core3ptr88drop_in_place$LT$alloc..vec..Vec$LT$std..backtrace_rs..symbolize..gimli..Library$GT$$GT$17h56656f032d8b4b22E+0x94>
100003a18: 60 06 40 f9 	ldr	x0, [x19, #8]
100003a1c: 09 07 80 52 	mov	w9, #56
100003a20: 01 7d 09 9b 	mul	x1, x8, x9
100003a24: 02 01 80 52 	mov	w2, #8
100003a28: fd 7b 42 a9 	ldp	x29, x30, [sp, #32]
100003a2c: f4 4f 41 a9 	ldp	x20, x19, [sp, #16]
100003a30: f6 57 c3 a8 	ldp	x22, x21, [sp], #48
100003a34: 5e f8 ff 17 	b	0x100001bac <___rust_dealloc>
100003a38: fd 7b 42 a9 	ldp	x29, x30, [sp, #32]
100003a3c: f4 4f 41 a9 	ldp	x20, x19, [sp, #16]
100003a40: f6 57 c3 a8 	ldp	x22, x21, [sp], #48
100003a44: c0 03 5f d6 	ret

0000000100003a48 <__ZN4core3ptr88drop_in_place$LT$std..io..Write..write_fmt..Adapter$LT$alloc..vec..Vec$LT$u8$GT$$GT$$GT$17h7edf2c9655691069E>:
100003a48: f4 4f be a9 	stp	x20, x19, [sp, #-32]!
100003a4c: fd 7b 01 a9 	stp	x29, x30, [sp, #16]
100003a50: fd 43 00 91 	add	x29, sp, #16
100003a54: 14 00 40 f9 	ldr	x20, [x0]
100003a58: 88 06 40 92 	and	x8, x20, #0x3
100003a5c: 9f 02 00 f1 	cmp	x20, #0
100003a60: 00 19 41 fa 	ccmp	x8, #1, #0, ne
100003a64: 80 00 00 54 	b.eq	0x100003a74 <__ZN4core3ptr88drop_in_place$LT$std..io..Write..write_fmt..Adapter$LT$alloc..vec..Vec$LT$u8$GT$$GT$$GT$17h7edf2c9655691069E+0x2c>
100003a68: fd 7b 41 a9 	ldp	x29, x30, [sp, #16]
100003a6c: f4 4f c2 a8 	ldp	x20, x19, [sp], #32
100003a70: c0 03 5f d6 	ret
100003a74: f3 03 14 aa 	mov	x19, x20
100003a78: 60 fe 5f f8 	ldr	x0, [x19, #-1]!
100003a7c: 68 06 40 f9 	ldr	x8, [x19, #8]
100003a80: 08 01 40 f9 	ldr	x8, [x8]
100003a84: 00 01 3f d6 	blr	x8
100003a88: 88 72 40 f8 	ldur	x8, [x20, #7]
100003a8c: 01 05 40 f9 	ldr	x1, [x8, #8]
100003a90: 81 00 00 b4 	cbz	x1, 0x100003aa0 <__ZN4core3ptr88drop_in_place$LT$std..io..Write..write_fmt..Adapter$LT$alloc..vec..Vec$LT$u8$GT$$GT$$GT$17h7edf2c9655691069E+0x58>
100003a94: 02 09 40 f9 	ldr	x2, [x8, #16]
100003a98: 60 02 40 f9 	ldr	x0, [x19]
100003a9c: 44 f8 ff 97 	bl	0x100001bac <___rust_dealloc>
100003aa0: e0 03 13 aa 	mov	x0, x19
100003aa4: 01 03 80 52 	mov	w1, #24
100003aa8: 02 01 80 52 	mov	w2, #8
100003aac: fd 7b 41 a9 	ldp	x29, x30, [sp, #16]
100003ab0: f4 4f c2 a8 	ldp	x20, x19, [sp], #32
100003ab4: 3e f8 ff 17 	b	0x100001bac <___rust_dealloc>
100003ab8: e8 03 14 aa 	mov	x8, x20
100003abc: f4 03 00 aa 	mov	x20, x0
100003ac0: 00 f1 5f f8 	ldur	x0, [x8, #-1]
100003ac4: 08 71 40 f8 	ldur	x8, [x8, #7]
100003ac8: 01 89 40 a9 	ldp	x1, x2, [x8, #8]
100003acc: 23 0e 00 94 	bl	0x100007358 <__ZN5alloc5alloc8box_free17h0b15272aacb880a7E>
100003ad0: e0 03 13 aa 	mov	x0, x19
100003ad4: 27 0e 00 94 	bl	0x100007370 <__ZN5alloc5alloc8box_free17h6f0f6e1382d9c275E>
100003ad8: e0 03 14 aa 	mov	x0, x20
100003adc: ce b9 00 94 	bl	0x100032214 <_writev+0x100032214>

0000000100003ae0 <__ZN4core3ptr89drop_in_place$LT$core..slice..sort..InsertionHole$LT$object..read..ObjectMapEntry$GT$$GT$17h633e7ed91fc45022E>:
100003ae0: 00 04 40 ad 	ldp	q0, q1, [x0]
100003ae4: 08 10 40 f9 	ldr	x8, [x0, #32]
100003ae8: 28 10 00 f9 	str	x8, [x1, #32]
100003aec: 20 04 00 ad 	stp	q0, q1, [x1]
100003af0: c0 03 5f d6 	ret

0000000100003af4 <__ZN4core3ptr90drop_in_place$LT$std..io..buffered..bufwriter..BufWriter$LT$W$GT$..flush_buf..BufGuard$GT$17hc2c1ec6897ecd8d0E>:
100003af4: f4 4f be a9 	stp	x20, x19, [sp, #-32]!
100003af8: fd 7b 01 a9 	stp	x29, x30, [sp, #16]
100003afc: fd 43 00 91 	add	x29, sp, #16
100003b00: a0 01 00 b4 	cbz	x0, 0x100003b34 <__ZN4core3ptr90drop_in_place$LT$std..io..buffered..bufwriter..BufWriter$LT$W$GT$..flush_buf..BufGuard$GT$17hc2c1ec6897ecd8d0E+0x40>
100003b04: f3 03 01 aa 	mov	x19, x1
100003b08: 21 08 40 f9 	ldr	x1, [x1, #16]
100003b0c: 34 00 00 eb 	subs	x20, x1, x0
100003b10: 83 01 00 54 	b.lo	0x100003b40 <__ZN4core3ptr90drop_in_place$LT$std..io..buffered..bufwriter..BufWriter$LT$W$GT$..flush_buf..BufGuard$GT$17hc2c1ec6897ecd8d0E+0x4c>
100003b14: 7f 0a 00 f9 	str	xzr, [x19, #16]
100003b18: e0 00 00 54 	b.eq	0x100003b34 <__ZN4core3ptr90drop_in_place$LT$std..io..buffered..bufwriter..BufWriter$LT$W$GT$..flush_buf..BufGuard$GT$17hc2c1ec6897ecd8d0E+0x40>
100003b1c: 68 06 40 f9 	ldr	x8, [x19, #8]
100003b20: 01 01 00 8b 	add	x1, x8, x0
100003b24: e0 03 08 aa 	mov	x0, x8
100003b28: e2 03 14 aa 	mov	x2, x20
100003b2c: 05 ba 00 94 	bl	0x100032340 <_writev+0x100032340>
100003b30: 74 0a 00 f9 	str	x20, [x19, #16]
100003b34: fd 7b 41 a9 	ldp	x29, x30, [sp, #16]
100003b38: f4 4f c2 a8 	ldp	x20, x19, [sp], #32
100003b3c: c0 03 5f d6 	ret
100003b40: c2 57 1e 10 	adr	x2, #248568
100003b44: 1f 20 03 d5 	nop
100003b48: 81 b9 00 94 	bl	0x10003214c <__ZN4core5slice5index24slice_end_index_len_fail17hce3cc2869df0d02eE>

0000000100003b4c <__ZN4core3ptr91drop_in_place$LT$core..slice..sort..InsertionHole$LT$$LP$$RF$$u5b$u8$u5d$$C$u64$RP$$GT$$GT$17h4818ebefe307fe99E>:
100003b4c: 00 00 c0 3d 	ldr	q0, [x0]
100003b50: 08 08 40 f9 	ldr	x8, [x0, #16]
100003b54: 28 08 00 f9 	str	x8, [x1, #16]
100003b58: 20 00 80 3d 	str	q0, [x1]
100003b5c: c0 03 5f d6 	ret

0000000100003b60 <__ZN4core3ptr95drop_in_place$LT$core..option..IntoIter$LT$std..backtrace_rs..symbolize..gimli..Library$GT$$GT$17h8c542955647b6844E>:
100003b60: f4 4f be a9 	stp	x20, x19, [sp, #-32]!
100003b64: fd 7b 01 a9 	stp	x29, x30, [sp, #16]
100003b68: fd 43 00 91 	add	x29, sp, #16
100003b6c: f3 03 00 aa 	mov	x19, x0
100003b70: 00 08 40 f9 	ldr	x0, [x0, #16]
100003b74: a0 01 00 b4 	cbz	x0, 0x100003ba8 <__ZN4core3ptr95drop_in_place$LT$core..option..IntoIter$LT$std..backtrace_rs..symbolize..gimli..Library$GT$$GT$17h8c542955647b6844E+0x48>
100003b78: 61 06 40 f9 	ldr	x1, [x19, #8]
100003b7c: 61 00 00 b4 	cbz	x1, 0x100003b88 <__ZN4core3ptr95drop_in_place$LT$core..option..IntoIter$LT$std..backtrace_rs..symbolize..gimli..Library$GT$$GT$17h8c542955647b6844E+0x28>
100003b80: 22 00 80 52 	mov	w2, #1
100003b84: 0a f8 ff 97 	bl	0x100001bac <___rust_dealloc>
100003b88: 68 12 40 f9 	ldr	x8, [x19, #32]
100003b8c: e8 00 00 b4 	cbz	x8, 0x100003ba8 <__ZN4core3ptr95drop_in_place$LT$core..option..IntoIter$LT$std..backtrace_rs..symbolize..gimli..Library$GT$$GT$17h8c542955647b6844E+0x48>
100003b90: 60 16 40 f9 	ldr	x0, [x19, #40]
100003b94: 01 ed 7c d3 	lsl	x1, x8, #4
100003b98: 02 01 80 52 	mov	w2, #8
100003b9c: fd 7b 41 a9 	ldp	x29, x30, [sp, #16]
100003ba0: f4 4f c2 a8 	ldp	x20, x19, [sp], #32
100003ba4: 02 f8 ff 17 	b	0x100001bac <___rust_dealloc>
100003ba8: fd 7b 41 a9 	ldp	x29, x30, [sp, #16]
100003bac: f4 4f c2 a8 	ldp	x20, x19, [sp], #32
100003bb0: c0 03 5f d6 	ret

0000000100003bb4 <__ZN4core3ptr95drop_in_place$LT$std..io..buffered..linewriter..LineWriter$LT$std..io..stdio..StdoutRaw$GT$$GT$17hadf2a713e0ca96b4E>:
100003bb4: f6 57 bd a9 	stp	x22, x21, [sp, #-48]!
100003bb8: f4 4f 01 a9 	stp	x20, x19, [sp, #16]
100003bbc: fd 7b 02 a9 	stp	x29, x30, [sp, #32]
100003bc0: fd 83 00 91 	add	x29, sp, #32
100003bc4: f3 03 00 aa 	mov	x19, x0
100003bc8: 08 60 40 39 	ldrb	w8, [x0, #24]
100003bcc: e8 02 00 35 	cbnz	w8, 0x100003c28 <__ZN4core3ptr95drop_in_place$LT$std..io..buffered..linewriter..LineWriter$LT$std..io..stdio..StdoutRaw$GT$$GT$17hadf2a713e0ca96b4E+0x74>
100003bd0: e0 03 13 aa 	mov	x0, x19
100003bd4: 11 49 00 94 	bl	0x100016018 <__ZN3std2io8buffered9bufwriter18BufWriter$LT$W$GT$9flush_buf17h14581d732cce1309E>
100003bd8: f5 03 00 aa 	mov	x21, x0
100003bdc: 60 02 00 b4 	cbz	x0, 0x100003c28 <__ZN4core3ptr95drop_in_place$LT$std..io..buffered..linewriter..LineWriter$LT$std..io..stdio..StdoutRaw$GT$$GT$17hadf2a713e0ca96b4E+0x74>
100003be0: a8 06 40 92 	and	x8, x21, #0x3
100003be4: 1f 05 00 f1 	cmp	x8, #1
100003be8: 01 02 00 54 	b.ne	0x100003c28 <__ZN4core3ptr95drop_in_place$LT$std..io..buffered..linewriter..LineWriter$LT$std..io..stdio..StdoutRaw$GT$$GT$17hadf2a713e0ca96b4E+0x74>
100003bec: f4 03 15 aa 	mov	x20, x21
100003bf0: 80 fe 5f f8 	ldr	x0, [x20, #-1]!
100003bf4: 88 06 40 f9 	ldr	x8, [x20, #8]
100003bf8: 08 01 40 f9 	ldr	x8, [x8]
100003bfc: 00 01 3f d6 	blr	x8
100003c00: a8 72 40 f8 	ldur	x8, [x21, #7]
100003c04: 01 05 40 f9 	ldr	x1, [x8, #8]
100003c08: 81 00 00 b4 	cbz	x1, 0x100003c18 <__ZN4core3ptr95drop_in_place$LT$std..io..buffered..linewriter..LineWriter$LT$std..io..stdio..StdoutRaw$GT$$GT$17hadf2a713e0ca96b4E+0x64>
100003c0c: 02 09 40 f9 	ldr	x2, [x8, #16]
100003c10: 80 02 40 f9 	ldr	x0, [x20]
100003c14: e6 f7 ff 97 	bl	0x100001bac <___rust_dealloc>
100003c18: e0 03 14 aa 	mov	x0, x20
100003c1c: 01 03 80 52 	mov	w1, #24
100003c20: 02 01 80 52 	mov	w2, #8
100003c24: e2 f7 ff 97 	bl	0x100001bac <___rust_dealloc>
100003c28: 61 02 40 f9 	ldr	x1, [x19]
100003c2c: e1 00 00 b4 	cbz	x1, 0x100003c48 <__ZN4core3ptr95drop_in_place$LT$std..io..buffered..linewriter..LineWriter$LT$std..io..stdio..StdoutRaw$GT$$GT$17hadf2a713e0ca96b4E+0x94>
100003c30: 60 06 40 f9 	ldr	x0, [x19, #8]
100003c34: 22 00 80 52 	mov	w2, #1
100003c38: fd 7b 42 a9 	ldp	x29, x30, [sp, #32]
100003c3c: f4 4f 41 a9 	ldp	x20, x19, [sp, #16]
100003c40: f6 57 c3 a8 	ldp	x22, x21, [sp], #48
100003c44: da f7 ff 17 	b	0x100001bac <___rust_dealloc>
100003c48: fd 7b 42 a9 	ldp	x29, x30, [sp, #32]
100003c4c: f4 4f 41 a9 	ldp	x20, x19, [sp, #16]
100003c50: f6 57 c3 a8 	ldp	x22, x21, [sp], #48
100003c54: c0 03 5f d6 	ret
100003c58: e8 03 15 aa 	mov	x8, x21
100003c5c: f5 03 00 aa 	mov	x21, x0
100003c60: 00 f1 5f f8 	ldur	x0, [x8, #-1]
100003c64: 08 71 40 f8 	ldur	x8, [x8, #7]
100003c68: 01 89 40 a9 	ldp	x1, x2, [x8, #8]
100003c6c: bb 0d 00 94 	bl	0x100007358 <__ZN5alloc5alloc8box_free17h0b15272aacb880a7E>
100003c70: e0 03 14 aa 	mov	x0, x20
100003c74: bf 0d 00 94 	bl	0x100007370 <__ZN5alloc5alloc8box_free17h6f0f6e1382d9c275E>
100003c78: 02 00 00 14 	b	0x100003c80 <__ZN4core3ptr95drop_in_place$LT$std..io..buffered..linewriter..LineWriter$LT$std..io..stdio..StdoutRaw$GT$$GT$17hadf2a713e0ca96b4E+0xcc>
100003c7c: f5 03 00 aa 	mov	x21, x0
100003c80: e0 03 13 aa 	mov	x0, x19
100003c84: c7 fc ff 97 	bl	0x100002fa0 <__ZN4core3ptr46drop_in_place$LT$alloc..vec..Vec$LT$u8$GT$$GT$17h180447c5569aa0b2E>
100003c88: e0 03 15 aa 	mov	x0, x21
100003c8c: 62 b9 00 94 	bl	0x100032214 <_writev+0x100032214>
100003c90: c1 b8 00 94 	bl	0x100031f94 <__ZN4core9panicking19panic_cannot_unwind17h96946ae592480b8aE>

0000000100003c94 <__ZN4core3ptr98drop_in_place$LT$alloc..boxed..Box$LT$std..sys..unix..locks..pthread_mutex..AllocatedMutex$GT$$GT$17hd00c777752fa083aE>:
100003c94: f4 4f be a9 	stp	x20, x19, [sp, #-32]!
100003c98: fd 7b 01 a9 	stp	x29, x30, [sp, #16]
100003c9c: fd 43 00 91 	add	x29, sp, #16
100003ca0: f3 03 00 aa 	mov	x19, x0
100003ca4: 00 00 40 f9 	ldr	x0, [x0]
100003ca8: c1 b9 00 94 	bl	0x1000323ac <_writev+0x1000323ac>
100003cac: 60 02 40 f9 	ldr	x0, [x19]
100003cb0: 01 08 80 52 	mov	w1, #64
100003cb4: 02 01 80 52 	mov	w2, #8
100003cb8: fd 7b 41 a9 	ldp	x29, x30, [sp, #16]
100003cbc: f4 4f c2 a8 	ldp	x20, x19, [sp], #32
100003cc0: bb f7 ff 17 	b	0x100001bac <___rust_dealloc>

0000000100003cc4 <__ZN4core5slice4sort12choose_pivot28_$u7b$$u7b$closure$u7d$$u7d$17hdfc12a431fc55e6aE>:
100003cc4: ff c3 01 d1 	sub	sp, sp, #112
100003cc8: fc 6f 01 a9 	stp	x28, x27, [sp, #16]
100003ccc: fa 67 02 a9 	stp	x26, x25, [sp, #32]
100003cd0: f8 5f 03 a9 	stp	x24, x23, [sp, #48]
100003cd4: f6 57 04 a9 	stp	x22, x21, [sp, #64]
100003cd8: f4 4f 05 a9 	stp	x20, x19, [sp, #80]
100003cdc: fd 7b 06 a9 	stp	x29, x30, [sp, #96]
100003ce0: fd 83 01 91 	add	x29, sp, #96
100003ce4: f6 03 03 aa 	mov	x22, x3
100003ce8: f3 03 02 aa 	mov	x19, x2
100003cec: f5 03 01 aa 	mov	x21, x1
100003cf0: f4 03 00 aa 	mov	x20, x0
100003cf4: 19 00 40 f9 	ldr	x25, [x0]
100003cf8: 58 00 40 f9 	ldr	x24, [x2]
100003cfc: 08 03 80 52 	mov	w8, #24
100003d00: 09 67 08 9b 	madd	x9, x24, x8, x25
100003d04: 3c 00 40 f9 	ldr	x28, [x1]
100003d08: 88 67 08 9b 	madd	x8, x28, x8, x25
100003d0c: 37 6d 40 a9 	ldp	x23, x27, [x9]
100003d10: 01 21 40 a9 	ldp	x1, x8, [x8]
100003d14: 7a 03 08 eb 	subs	x26, x27, x8
100003d18: 62 33 88 9a 	csel	x2, x27, x8, lo
100003d1c: e0 03 17 aa 	mov	x0, x23
100003d20: 82 b9 00 94 	bl	0x100032328 <_writev+0x100032328>
100003d24: 08 7c 40 93 	sxtw	x8, w0
100003d28: 1f 00 00 71 	cmp	w0, #0
100003d2c: 48 03 88 9a 	csel	x8, x26, x8, eq
100003d30: f5 07 00 f9 	str	x21, [sp, #8]
100003d34: 68 00 f8 b7 	tbnz	x8, #63, 0x100003d40 <__ZN4core5slice4sort12choose_pivot28_$u7b$$u7b$closure$u7d$$u7d$17hdfc12a431fc55e6aE+0x7c>
100003d38: fa 03 1c aa 	mov	x26, x28
100003d3c: 0d 00 00 14 	b	0x100003d70 <__ZN4core5slice4sort12choose_pivot28_$u7b$$u7b$closure$u7d$$u7d$17hdfc12a431fc55e6aE+0xac>
100003d40: b8 02 00 f9 	str	x24, [x21]
100003d44: 7c 02 00 f9 	str	x28, [x19]
100003d48: 88 0e 40 f9 	ldr	x8, [x20, #24]
100003d4c: 09 01 40 f9 	ldr	x9, [x8]
100003d50: 29 05 00 91 	add	x9, x9, #1
100003d54: 09 01 00 f9 	str	x9, [x8]
100003d58: 99 02 40 f9 	ldr	x25, [x20]
100003d5c: 08 03 80 52 	mov	w8, #24
100003d60: 88 67 08 9b 	madd	x8, x28, x8, x25
100003d64: 17 6d 40 a9 	ldp	x23, x27, [x8]
100003d68: fa 03 18 aa 	mov	x26, x24
100003d6c: f8 03 1c aa 	mov	x24, x28
100003d70: dc 02 40 f9 	ldr	x28, [x22]
100003d74: 08 03 80 52 	mov	w8, #24
100003d78: 88 67 08 9b 	madd	x8, x28, x8, x25
100003d7c: 00 21 40 a9 	ldp	x0, x8, [x8]
100003d80: 15 01 1b eb 	subs	x21, x8, x27
100003d84: 02 31 9b 9a 	csel	x2, x8, x27, lo
100003d88: e1 03 17 aa 	mov	x1, x23
100003d8c: 67 b9 00 94 	bl	0x100032328 <_writev+0x100032328>
100003d90: 08 7c 40 93 	sxtw	x8, w0
100003d94: 1f 00 00 71 	cmp	w0, #0
100003d98: a8 02 88 9a 	csel	x8, x21, x8, eq
100003d9c: 88 01 f8 b6 	tbz	x8, #63, 0x100003dcc <__ZN4core5slice4sort12choose_pivot28_$u7b$$u7b$closure$u7d$$u7d$17hdfc12a431fc55e6aE+0x108>
100003da0: 7c 02 00 f9 	str	x28, [x19]
100003da4: d8 02 00 f9 	str	x24, [x22]
100003da8: 88 0e 40 f9 	ldr	x8, [x20, #24]
100003dac: 09 01 40 f9 	ldr	x9, [x8]
100003db0: 29 05 00 91 	add	x9, x9, #1
100003db4: 09 01 00 f9 	str	x9, [x8]
100003db8: 99 02 40 f9 	ldr	x25, [x20]
100003dbc: 08 03 80 52 	mov	w8, #24
100003dc0: 88 67 08 9b 	madd	x8, x28, x8, x25
100003dc4: 17 6d 40 a9 	ldp	x23, x27, [x8]
100003dc8: f8 03 1c aa 	mov	x24, x28
100003dcc: 08 03 80 52 	mov	w8, #24
100003dd0: 48 67 08 9b 	madd	x8, x26, x8, x25
100003dd4: 01 21 40 a9 	ldp	x1, x8, [x8]
100003dd8: 75 03 08 eb 	subs	x21, x27, x8
100003ddc: 62 33 88 9a 	csel	x2, x27, x8, lo
100003de0: e0 03 17 aa 	mov	x0, x23
100003de4: 51 b9 00 94 	bl	0x100032328 <_writev+0x100032328>
100003de8: 08 7c 40 93 	sxtw	x8, w0
100003dec: 1f 00 00 71 	cmp	w0, #0
100003df0: a8 02 88 9a 	csel	x8, x21, x8, eq
100003df4: 08 01 f8 b6 	tbz	x8, #63, 0x100003e14 <__ZN4core5slice4sort12choose_pivot28_$u7b$$u7b$closure$u7d$$u7d$17hdfc12a431fc55e6aE+0x150>
100003df8: e8 07 40 f9 	ldr	x8, [sp, #8]
100003dfc: 18 01 00 f9 	str	x24, [x8]
100003e00: 7a 02 00 f9 	str	x26, [x19]
100003e04: 88 0e 40 f9 	ldr	x8, [x20, #24]
100003e08: 09 01 40 f9 	ldr	x9, [x8]
100003e0c: 29 05 00 91 	add	x9, x9, #1
100003e10: 09 01 00 f9 	str	x9, [x8]
100003e14: fd 7b 46 a9 	ldp	x29, x30, [sp, #96]
100003e18: f4 4f 45 a9 	ldp	x20, x19, [sp, #80]
100003e1c: f6 57 44 a9 	ldp	x22, x21, [sp, #64]
100003e20: f8 5f 43 a9 	ldp	x24, x23, [sp, #48]
100003e24: fa 67 42 a9 	ldp	x26, x25, [sp, #32]
100003e28: fc 6f 41 a9 	ldp	x28, x27, [sp, #16]
100003e2c: ff c3 01 91 	add	sp, sp, #112
100003e30: c0 03 5f d6 	ret

0000000100003e34 <__ZN4core5slice4sort25insertion_sort_shift_left17h04283fe6702d5c84E>:
100003e34: ff c3 00 d1 	sub	sp, sp, #48
100003e38: fd 7b 02 a9 	stp	x29, x30, [sp, #32]
100003e3c: fd 83 00 91 	add	x29, sp, #32
100003e40: 48 04 00 d1 	sub	x8, x2, #1
100003e44: 1f 01 01 eb 	cmp	x8, x1
100003e48: 42 06 00 54 	b.hs	0x100003f10 <__ZN4core5slice4sort25insertion_sort_shift_left17h04283fe6702d5c84E+0xdc>
100003e4c: 5f 00 01 eb 	cmp	x2, x1
100003e50: a2 05 00 54 	b.hs	0x100003f04 <__ZN4core5slice4sort25insertion_sort_shift_left17h04283fe6702d5c84E+0xd0>
100003e54: 08 05 80 52 	mov	w8, #40
100003e58: 49 00 08 9b 	madd	x9, x2, x8, x0
100003e5c: 29 a1 00 d1 	sub	x9, x9, #40
100003e60: 0a 00 00 14 	b	0x100003e88 <__ZN4core5slice4sort25insertion_sort_shift_left17h04283fe6702d5c84E+0x54>
100003e64: e0 07 c0 3d 	ldr	q0, [sp, #16]
100003e68: 60 01 80 3d 	str	q0, [x11]
100003e6c: 6a 09 00 f9 	str	x10, [x11, #16]
100003e70: e0 03 c0 3d 	ldr	q0, [sp]
100003e74: 60 81 81 3c 	stur	q0, [x11, #24]
100003e78: 42 04 00 91 	add	x2, x2, #1
100003e7c: 29 a1 00 91 	add	x9, x9, #40
100003e80: 5f 00 01 eb 	cmp	x2, x1
100003e84: 00 04 00 54 	b.eq	0x100003f04 <__ZN4core5slice4sort25insertion_sort_shift_left17h04283fe6702d5c84E+0xd0>
100003e88: 4c 00 08 9b 	madd	x12, x2, x8, x0
100003e8c: 8a 09 40 f9 	ldr	x10, [x12, #16]
100003e90: 8b 81 5e f8 	ldur	x11, [x12, #-24]
100003e94: 5f 01 0b eb 	cmp	x10, x11
100003e98: 02 ff ff 54 	b.hs	0x100003e78 <__ZN4core5slice4sort25insertion_sort_shift_left17h04283fe6702d5c84E+0x44>
100003e9c: 8b a1 00 d1 	sub	x11, x12, #40
100003ea0: 81 01 c0 3d 	ldr	q1, [x12]
100003ea4: 80 81 c1 3c 	ldur	q0, [x12, #24]
100003ea8: e0 07 00 ad 	stp	q0, q1, [sp]
100003eac: 6d 11 40 f9 	ldr	x13, [x11, #32]
100003eb0: 8d 11 00 f9 	str	x13, [x12, #32]
100003eb4: 61 01 40 ad 	ldp	q1, q0, [x11]
100003eb8: 81 01 00 ad 	stp	q1, q0, [x12]
100003ebc: 5f 04 00 f1 	cmp	x2, #1
100003ec0: 20 fd ff 54 	b.eq	0x100003e64 <__ZN4core5slice4sort25insertion_sort_shift_left17h04283fe6702d5c84E+0x30>
100003ec4: 2c 00 80 52 	mov	w12, #1
100003ec8: eb 03 09 aa 	mov	x11, x9
100003ecc: 6d 81 5e f8 	ldur	x13, [x11, #-24]
100003ed0: 5f 01 0d eb 	cmp	x10, x13
100003ed4: 82 fc ff 54 	b.hs	0x100003e64 <__ZN4core5slice4sort25insertion_sort_shift_left17h04283fe6702d5c84E+0x30>
100003ed8: 6d a1 00 d1 	sub	x13, x11, #40
100003edc: a0 05 40 ad 	ldp	q0, q1, [x13]
100003ee0: 60 05 00 ad 	stp	q0, q1, [x11]
100003ee4: ae 11 40 f9 	ldr	x14, [x13, #32]
100003ee8: 6e 11 00 f9 	str	x14, [x11, #32]
100003eec: 8c 05 00 91 	add	x12, x12, #1
100003ef0: eb 03 0d aa 	mov	x11, x13
100003ef4: 5f 00 0c eb 	cmp	x2, x12
100003ef8: a1 fe ff 54 	b.ne	0x100003ecc <__ZN4core5slice4sort25insertion_sort_shift_left17h04283fe6702d5c84E+0x98>
100003efc: eb 03 00 aa 	mov	x11, x0
100003f00: d9 ff ff 17 	b	0x100003e64 <__ZN4core5slice4sort25insertion_sort_shift_left17h04283fe6702d5c84E+0x30>
100003f04: fd 7b 42 a9 	ldp	x29, x30, [sp, #32]
100003f08: ff c3 00 91 	add	sp, sp, #48
100003f0c: c0 03 5f d6 	ret
100003f10: 00 63 17 30 	adr	x0, #191585
100003f14: 1f 20 03 d5 	nop
100003f18: 02 2b 1e 10 	adr	x2, #247136
100003f1c: 1f 20 03 d5 	nop
100003f20: c1 05 80 52 	mov	w1, #46
100003f24: eb b7 00 94 	bl	0x100031ed0 <__ZN4core9panicking5panic17h2f410888133670e4E>

0000000100003f28 <__ZN4core5slice4sort25insertion_sort_shift_left17h2495b955387181f7E>:
100003f28: fd 7b bf a9 	stp	x29, x30, [sp, #-16]!
100003f2c: fd 03 00 91 	mov	x29, sp
100003f30: 48 04 00 d1 	sub	x8, x2, #1
100003f34: 1f 01 01 eb 	cmp	x8, x1
100003f38: a2 06 00 54 	b.hs	0x10000400c <__ZN4core5slice4sort25insertion_sort_shift_left17h2495b955387181f7E+0xe4>
100003f3c: 5f 00 01 eb 	cmp	x2, x1
100003f40: 22 06 00 54 	b.hs	0x100004004 <__ZN4core5slice4sort25insertion_sort_shift_left17h2495b955387181f7E+0xdc>
100003f44: 48 e8 7b d3 	lsl	x8, x2, #5
100003f48: 08 00 00 14 	b	0x100003f68 <__ZN4core5slice4sort25insertion_sort_shift_left17h2495b955387181f7E+0x40>
100003f4c: ee 03 00 aa 	mov	x14, x0
100003f50: ca 31 00 a9 	stp	x10, x12, [x14]
100003f54: c9 2d 01 a9 	stp	x9, x11, [x14, #16]
100003f58: 42 04 00 91 	add	x2, x2, #1
100003f5c: 08 81 00 91 	add	x8, x8, #32
100003f60: 5f 00 01 eb 	cmp	x2, x1
100003f64: 00 05 00 54 	b.eq	0x100004004 <__ZN4core5slice4sort25insertion_sort_shift_left17h2495b955387181f7E+0xdc>
100003f68: 0d 14 02 8b 	add	x13, x0, x2, lsl #5
100003f6c: a9 09 40 f9 	ldr	x9, [x13, #16]
100003f70: ab 01 5f f8 	ldur	x11, [x13, #-16]
100003f74: 3f 01 0b eb 	cmp	x9, x11
100003f78: 62 00 00 54 	b.hs	0x100003f84 <__ZN4core5slice4sort25insertion_sort_shift_left17h2495b955387181f7E+0x5c>
100003f7c: aa 01 40 f9 	ldr	x10, [x13]
100003f80: 06 00 00 14 	b	0x100003f98 <__ZN4core5slice4sort25insertion_sort_shift_left17h2495b955387181f7E+0x70>
100003f84: ac 01 5e f8 	ldur	x12, [x13, #-32]
100003f88: aa 01 40 f9 	ldr	x10, [x13]
100003f8c: 3f 01 0b eb 	cmp	x9, x11
100003f90: 42 91 4c fa 	ccmp	x10, x12, #2, ls
100003f94: 22 fe ff 54 	b.hs	0x100003f58 <__ZN4core5slice4sort25insertion_sort_shift_left17h2495b955387181f7E+0x30>
100003f98: ae 81 00 d1 	sub	x14, x13, #32
100003f9c: ac 05 40 f9 	ldr	x12, [x13, #8]
100003fa0: ab 0d 40 f9 	ldr	x11, [x13, #24]
100003fa4: c0 05 40 ad 	ldp	q0, q1, [x14]
100003fa8: a0 05 00 ad 	stp	q0, q1, [x13]
100003fac: 5f 04 00 f1 	cmp	x2, #1
100003fb0: 00 fd ff 54 	b.eq	0x100003f50 <__ZN4core5slice4sort25insertion_sort_shift_left17h2495b955387181f7E+0x28>
100003fb4: 2e 00 80 52 	mov	w14, #1
100003fb8: ed 03 08 aa 	mov	x13, x8
100003fbc: 07 00 00 14 	b	0x100003fd8 <__ZN4core5slice4sort25insertion_sort_shift_left17h2495b955387181f7E+0xb0>
100003fc0: e0 05 40 ad 	ldp	q0, q1, [x15]
100003fc4: 00 06 bf ad 	stp	q0, q1, [x16, #-32]!
100003fc8: ad 81 00 d1 	sub	x13, x13, #32
100003fcc: ce 05 00 91 	add	x14, x14, #1
100003fd0: 5f 00 0e eb 	cmp	x2, x14
100003fd4: c0 fb ff 54 	b.eq	0x100003f4c <__ZN4core5slice4sort25insertion_sort_shift_left17h2495b955387181f7E+0x24>
100003fd8: 10 00 0d 8b 	add	x16, x0, x13
100003fdc: 0f 02 01 d1 	sub	x15, x16, #64
100003fe0: 11 02 5d f8 	ldur	x17, [x16, #-48]
100003fe4: 3f 01 11 eb 	cmp	x9, x17
100003fe8: c3 fe ff 54 	b.lo	0x100003fc0 <__ZN4core5slice4sort25insertion_sort_shift_left17h2495b955387181f7E+0x98>
100003fec: f1 01 40 f9 	ldr	x17, [x15]
100003ff0: 42 91 51 fa 	ccmp	x10, x17, #2, ls
100003ff4: 63 fe ff 54 	b.lo	0x100003fc0 <__ZN4core5slice4sort25insertion_sort_shift_left17h2495b955387181f7E+0x98>
100003ff8: 0d 00 0d 8b 	add	x13, x0, x13
100003ffc: ae 81 00 d1 	sub	x14, x13, #32
100004000: d4 ff ff 17 	b	0x100003f50 <__ZN4core5slice4sort25insertion_sort_shift_left17h2495b955387181f7E+0x28>
100004004: fd 7b c1 a8 	ldp	x29, x30, [sp], #16
100004008: c0 03 5f d6 	ret
10000400c: 20 5b 17 30 	adr	x0, #191333
100004010: 1f 20 03 d5 	nop
100004014: 22 23 1e 10 	adr	x2, #246884
100004018: 1f 20 03 d5 	nop
10000401c: c1 05 80 52 	mov	w1, #46
100004020: ac b7 00 94 	bl	0x100031ed0 <__ZN4core9panicking5panic17h2f410888133670e4E>

0000000100004024 <__ZN4core5slice4sort25insertion_sort_shift_left17h2b4c06b292305c9cE>:
100004024: ff c3 00 d1 	sub	sp, sp, #48
100004028: fd 7b 02 a9 	stp	x29, x30, [sp, #32]
10000402c: fd 83 00 91 	add	x29, sp, #32
100004030: 48 04 00 d1 	sub	x8, x2, #1
100004034: 1f 01 01 eb 	cmp	x8, x1
100004038: a2 05 00 54 	b.hs	0x1000040ec <__ZN4core5slice4sort25insertion_sort_shift_left17h2b4c06b292305c9cE+0xc8>
10000403c: 5f 00 01 eb 	cmp	x2, x1
100004040: 02 05 00 54 	b.hs	0x1000040e0 <__ZN4core5slice4sort25insertion_sort_shift_left17h2b4c06b292305c9cE+0xbc>
100004044: 08 14 02 8b 	add	x8, x0, x2, lsl #5
100004048: 08 81 00 d1 	sub	x8, x8, #32
10000404c: 0a 00 00 14 	b	0x100004074 <__ZN4core5slice4sort25insertion_sort_shift_left17h2b4c06b292305c9cE+0x50>
100004050: 2a 01 00 f9 	str	x10, [x9]
100004054: e0 03 c0 3d 	ldr	q0, [sp]
100004058: ea 0b 40 f9 	ldr	x10, [sp, #16]
10000405c: 2a 0d 00 f9 	str	x10, [x9, #24]
100004060: 20 81 80 3c 	stur	q0, [x9, #8]
100004064: 42 04 00 91 	add	x2, x2, #1
100004068: 08 81 00 91 	add	x8, x8, #32
10000406c: 5f 00 01 eb 	cmp	x2, x1
100004070: 80 03 00 54 	b.eq	0x1000040e0 <__ZN4core5slice4sort25insertion_sort_shift_left17h2b4c06b292305c9cE+0xbc>
100004074: 0b 14 02 8b 	add	x11, x0, x2, lsl #5
100004078: e9 03 0b aa 	mov	x9, x11
10000407c: 2c 0d 5e f8 	ldr	x12, [x9, #-32]!
100004080: 6a 01 40 f9 	ldr	x10, [x11]
100004084: 5f 01 0c eb 	cmp	x10, x12
100004088: e2 fe ff 54 	b.hs	0x100004064 <__ZN4core5slice4sort25insertion_sort_shift_left17h2b4c06b292305c9cE+0x40>
10000408c: 60 81 c0 3c 	ldur	q0, [x11, #8]
100004090: e0 03 80 3d 	str	q0, [sp]
100004094: 6c 0d 40 f9 	ldr	x12, [x11, #24]
100004098: ec 0b 00 f9 	str	x12, [sp, #16]
10000409c: 20 05 40 ad 	ldp	q0, q1, [x9]
1000040a0: 60 05 00 ad 	stp	q0, q1, [x11]
1000040a4: 5f 04 00 f1 	cmp	x2, #1
1000040a8: 40 fd ff 54 	b.eq	0x100004050 <__ZN4core5slice4sort25insertion_sort_shift_left17h2b4c06b292305c9cE+0x2c>
1000040ac: 2b 00 80 52 	mov	w11, #1
1000040b0: e9 03 08 aa 	mov	x9, x8
1000040b4: ec 03 09 aa 	mov	x12, x9
1000040b8: 8d 0d 5e f8 	ldr	x13, [x12, #-32]!
1000040bc: 5f 01 0d eb 	cmp	x10, x13
1000040c0: 82 fc ff 54 	b.hs	0x100004050 <__ZN4core5slice4sort25insertion_sort_shift_left17h2b4c06b292305c9cE+0x2c>
1000040c4: 80 05 40 ad 	ldp	q0, q1, [x12]
1000040c8: 20 05 bf ac 	stp	q0, q1, [x9], #-32
1000040cc: 6b 05 00 91 	add	x11, x11, #1
1000040d0: 5f 00 0b eb 	cmp	x2, x11
1000040d4: 01 ff ff 54 	b.ne	0x1000040b4 <__ZN4core5slice4sort25insertion_sort_shift_left17h2b4c06b292305c9cE+0x90>
1000040d8: e9 03 00 aa 	mov	x9, x0
1000040dc: dd ff ff 17 	b	0x100004050 <__ZN4core5slice4sort25insertion_sort_shift_left17h2b4c06b292305c9cE+0x2c>
1000040e0: fd 7b 42 a9 	ldp	x29, x30, [sp, #32]
1000040e4: ff c3 00 91 	add	sp, sp, #48
1000040e8: c0 03 5f d6 	ret
1000040ec: 20 54 17 30 	adr	x0, #191109
1000040f0: 1f 20 03 d5 	nop
1000040f4: 22 1c 1e 10 	adr	x2, #246660
1000040f8: 1f 20 03 d5 	nop
1000040fc: c1 05 80 52 	mov	w1, #46
100004100: 74 b7 00 94 	bl	0x100031ed0 <__ZN4core9panicking5panic17h2f410888133670e4E>

0000000100004104 <__ZN4core5slice4sort25insertion_sort_shift_left17h366ea9b45de40016E>:
100004104: ff 83 00 d1 	sub	sp, sp, #32
100004108: fd 7b 01 a9 	stp	x29, x30, [sp, #16]
10000410c: fd 43 00 91 	add	x29, sp, #16
100004110: 48 04 00 d1 	sub	x8, x2, #1
100004114: 1f 01 01 eb 	cmp	x8, x1
100004118: e2 05 00 54 	b.hs	0x1000041d4 <__ZN4core5slice4sort25insertion_sort_shift_left17h366ea9b45de40016E+0xd0>
10000411c: 5f 00 01 eb 	cmp	x2, x1
100004120: 42 05 00 54 	b.hs	0x1000041c8 <__ZN4core5slice4sort25insertion_sort_shift_left17h366ea9b45de40016E+0xc4>
100004124: 08 03 80 52 	mov	w8, #24
100004128: 49 00 08 9b 	madd	x9, x2, x8, x0
10000412c: 29 61 00 d1 	sub	x9, x9, #24
100004130: 08 00 00 14 	b	0x100004150 <__ZN4core5slice4sort25insertion_sort_shift_left17h366ea9b45de40016E+0x4c>
100004134: e0 03 c0 3d 	ldr	q0, [sp]
100004138: 60 01 80 3d 	str	q0, [x11]
10000413c: 6a 09 00 f9 	str	x10, [x11, #16]
100004140: 42 04 00 91 	add	x2, x2, #1
100004144: 29 61 00 91 	add	x9, x9, #24
100004148: 5f 00 01 eb 	cmp	x2, x1
10000414c: e0 03 00 54 	b.eq	0x1000041c8 <__ZN4core5slice4sort25insertion_sort_shift_left17h366ea9b45de40016E+0xc4>
100004150: 4c 00 08 9b 	madd	x12, x2, x8, x0
100004154: 8a 09 40 f9 	ldr	x10, [x12, #16]
100004158: 8b 81 5f f8 	ldur	x11, [x12, #-8]
10000415c: 5f 01 0b eb 	cmp	x10, x11
100004160: 02 ff ff 54 	b.hs	0x100004140 <__ZN4core5slice4sort25insertion_sort_shift_left17h366ea9b45de40016E+0x3c>
100004164: 8b 61 00 d1 	sub	x11, x12, #24
100004168: 80 01 c0 3d 	ldr	q0, [x12]
10000416c: e0 03 80 3d 	str	q0, [sp]
100004170: 60 01 c0 3d 	ldr	q0, [x11]
100004174: 80 01 80 3d 	str	q0, [x12]
100004178: 6d 09 40 f9 	ldr	x13, [x11, #16]
10000417c: 8d 09 00 f9 	str	x13, [x12, #16]
100004180: 5f 04 00 f1 	cmp	x2, #1
100004184: 80 fd ff 54 	b.eq	0x100004134 <__ZN4core5slice4sort25insertion_sort_shift_left17h366ea9b45de40016E+0x30>
100004188: 2c 00 80 52 	mov	w12, #1
10000418c: eb 03 09 aa 	mov	x11, x9
100004190: 6d 81 5f f8 	ldur	x13, [x11, #-8]
100004194: 5f 01 0d eb 	cmp	x10, x13
100004198: e2 fc ff 54 	b.hs	0x100004134 <__ZN4core5slice4sort25insertion_sort_shift_left17h366ea9b45de40016E+0x30>
10000419c: 6d 61 00 d1 	sub	x13, x11, #24
1000041a0: a0 01 c0 3d 	ldr	q0, [x13]
1000041a4: 60 01 80 3d 	str	q0, [x11]
1000041a8: ae 09 40 f9 	ldr	x14, [x13, #16]
1000041ac: 6e 09 00 f9 	str	x14, [x11, #16]
1000041b0: 8c 05 00 91 	add	x12, x12, #1
1000041b4: eb 03 0d aa 	mov	x11, x13
1000041b8: 5f 00 0c eb 	cmp	x2, x12
1000041bc: a1 fe ff 54 	b.ne	0x100004190 <__ZN4core5slice4sort25insertion_sort_shift_left17h366ea9b45de40016E+0x8c>
1000041c0: eb 03 00 aa 	mov	x11, x0
1000041c4: dc ff ff 17 	b	0x100004134 <__ZN4core5slice4sort25insertion_sort_shift_left17h366ea9b45de40016E+0x30>
1000041c8: fd 7b 41 a9 	ldp	x29, x30, [sp, #16]
1000041cc: ff 83 00 91 	add	sp, sp, #32
1000041d0: c0 03 5f d6 	ret
1000041d4: e0 4c 17 30 	adr	x0, #190877
1000041d8: 1f 20 03 d5 	nop
1000041dc: e2 14 1e 10 	adr	x2, #246428
1000041e0: 1f 20 03 d5 	nop
1000041e4: c1 05 80 52 	mov	w1, #46
1000041e8: 3a b7 00 94 	bl	0x100031ed0 <__ZN4core9panicking5panic17h2f410888133670e4E>

00000001000041ec <__ZN4core5slice4sort25insertion_sort_shift_left17h6531718c51761183E>:
1000041ec: fd 7b bf a9 	stp	x29, x30, [sp, #-16]!
1000041f0: fd 03 00 91 	mov	x29, sp
1000041f4: 48 04 00 d1 	sub	x8, x2, #1
1000041f8: 1f 01 01 eb 	cmp	x8, x1
1000041fc: a2 04 00 54 	b.hs	0x100004290 <__ZN4core5slice4sort25insertion_sort_shift_left17h6531718c51761183E+0xa4>
100004200: 5f 00 01 eb 	cmp	x2, x1
100004204: 22 04 00 54 	b.hs	0x100004288 <__ZN4core5slice4sort25insertion_sort_shift_left17h6531718c51761183E+0x9c>
100004208: 08 10 02 8b 	add	x8, x0, x2, lsl #4
10000420c: 08 41 00 d1 	sub	x8, x8, #16
100004210: 06 00 00 14 	b	0x100004228 <__ZN4core5slice4sort25insertion_sort_shift_left17h6531718c51761183E+0x3c>
100004214: 49 2d 00 a9 	stp	x9, x11, [x10]
100004218: 42 04 00 91 	add	x2, x2, #1
10000421c: 08 41 00 91 	add	x8, x8, #16
100004220: 5f 00 01 eb 	cmp	x2, x1
100004224: 20 03 00 54 	b.eq	0x100004288 <__ZN4core5slice4sort25insertion_sort_shift_left17h6531718c51761183E+0x9c>
100004228: 0c 10 02 8b 	add	x12, x0, x2, lsl #4
10000422c: ea 03 0c aa 	mov	x10, x12
100004230: 4b 0d 5f f8 	ldr	x11, [x10, #-16]!
100004234: 89 01 40 f9 	ldr	x9, [x12]
100004238: 3f 01 0b eb 	cmp	x9, x11
10000423c: e2 fe ff 54 	b.hs	0x100004218 <__ZN4core5slice4sort25insertion_sort_shift_left17h6531718c51761183E+0x2c>
100004240: 8b 05 40 f9 	ldr	x11, [x12, #8]
100004244: 40 01 c0 3d 	ldr	q0, [x10]
100004248: 80 01 80 3d 	str	q0, [x12]
10000424c: 5f 04 00 f1 	cmp	x2, #1
100004250: 20 fe ff 54 	b.eq	0x100004214 <__ZN4core5slice4sort25insertion_sort_shift_left17h6531718c51761183E+0x28>
100004254: 2c 00 80 52 	mov	w12, #1
100004258: ea 03 08 aa 	mov	x10, x8
10000425c: ed 03 0a aa 	mov	x13, x10
100004260: ae 0d 5f f8 	ldr	x14, [x13, #-16]!
100004264: 3f 01 0e eb 	cmp	x9, x14
100004268: 62 fd ff 54 	b.hs	0x100004214 <__ZN4core5slice4sort25insertion_sort_shift_left17h6531718c51761183E+0x28>
10000426c: a0 01 c0 3d 	ldr	q0, [x13]
100004270: 40 05 9f 3c 	str	q0, [x10], #-16
100004274: 8c 05 00 91 	add	x12, x12, #1
100004278: 5f 00 0c eb 	cmp	x2, x12
10000427c: 01 ff ff 54 	b.ne	0x10000425c <__ZN4core5slice4sort25insertion_sort_shift_left17h6531718c51761183E+0x70>
100004280: ea 03 00 aa 	mov	x10, x0
100004284: e4 ff ff 17 	b	0x100004214 <__ZN4core5slice4sort25insertion_sort_shift_left17h6531718c51761183E+0x28>
100004288: fd 7b c1 a8 	ldp	x29, x30, [sp], #16
10000428c: c0 03 5f d6 	ret
100004290: 00 47 17 30 	adr	x0, #190689
100004294: 1f 20 03 d5 	nop
100004298: 02 0f 1e 10 	adr	x2, #246240
10000429c: 1f 20 03 d5 	nop
1000042a0: c1 05 80 52 	mov	w1, #46
1000042a4: 0b b7 00 94 	bl	0x100031ed0 <__ZN4core9panicking5panic17h2f410888133670e4E>

00000001000042a8 <__ZN4core5slice4sort25insertion_sort_shift_left17h72ce654b808f308cE>:
1000042a8: ff 83 00 d1 	sub	sp, sp, #32
1000042ac: fd 7b 01 a9 	stp	x29, x30, [sp, #16]
1000042b0: fd 43 00 91 	add	x29, sp, #16
1000042b4: 48 04 00 d1 	sub	x8, x2, #1
1000042b8: 1f 01 01 eb 	cmp	x8, x1
1000042bc: e2 05 00 54 	b.hs	0x100004378 <__ZN4core5slice4sort25insertion_sort_shift_left17h72ce654b808f308cE+0xd0>
1000042c0: 5f 00 01 eb 	cmp	x2, x1
1000042c4: 42 05 00 54 	b.hs	0x10000436c <__ZN4core5slice4sort25insertion_sort_shift_left17h72ce654b808f308cE+0xc4>
1000042c8: 08 03 80 52 	mov	w8, #24
1000042cc: 49 00 08 9b 	madd	x9, x2, x8, x0
1000042d0: 29 61 00 d1 	sub	x9, x9, #24
1000042d4: 08 00 00 14 	b	0x1000042f4 <__ZN4core5slice4sort25insertion_sort_shift_left17h72ce654b808f308cE+0x4c>
1000042d8: 6a 01 00 f9 	str	x10, [x11]
1000042dc: e0 03 c0 3d 	ldr	q0, [sp]
1000042e0: 60 81 80 3c 	stur	q0, [x11, #8]
1000042e4: 42 04 00 91 	add	x2, x2, #1
1000042e8: 29 61 00 91 	add	x9, x9, #24
1000042ec: 5f 00 01 eb 	cmp	x2, x1
1000042f0: e0 03 00 54 	b.eq	0x10000436c <__ZN4core5slice4sort25insertion_sort_shift_left17h72ce654b808f308cE+0xc4>
1000042f4: 4c 00 08 9b 	madd	x12, x2, x8, x0
1000042f8: eb 03 0c aa 	mov	x11, x12
1000042fc: 6d 8d 5e f8 	ldr	x13, [x11, #-24]!
100004300: 8a 01 40 f9 	ldr	x10, [x12]
100004304: 5f 01 0d eb 	cmp	x10, x13
100004308: e2 fe ff 54 	b.hs	0x1000042e4 <__ZN4core5slice4sort25insertion_sort_shift_left17h72ce654b808f308cE+0x3c>
10000430c: 80 81 c0 3c 	ldur	q0, [x12, #8]
100004310: e0 03 80 3d 	str	q0, [sp]
100004314: 60 01 c0 3d 	ldr	q0, [x11]
100004318: 80 01 80 3d 	str	q0, [x12]
10000431c: 6d 09 40 f9 	ldr	x13, [x11, #16]
100004320: 8d 09 00 f9 	str	x13, [x12, #16]
100004324: 5f 04 00 f1 	cmp	x2, #1
100004328: 80 fd ff 54 	b.eq	0x1000042d8 <__ZN4core5slice4sort25insertion_sort_shift_left17h72ce654b808f308cE+0x30>
10000432c: 2c 00 80 52 	mov	w12, #1
100004330: eb 03 09 aa 	mov	x11, x9
100004334: ed 03 0b aa 	mov	x13, x11
100004338: ae 8d 5e f8 	ldr	x14, [x13, #-24]!
10000433c: 5f 01 0e eb 	cmp	x10, x14
100004340: c2 fc ff 54 	b.hs	0x1000042d8 <__ZN4core5slice4sort25insertion_sort_shift_left17h72ce654b808f308cE+0x30>
100004344: a0 01 c0 3d 	ldr	q0, [x13]
100004348: 60 01 80 3d 	str	q0, [x11]
10000434c: ad 09 40 f9 	ldr	x13, [x13, #16]
100004350: 6d 09 00 f9 	str	x13, [x11, #16]
100004354: 6b 61 00 d1 	sub	x11, x11, #24
100004358: 8c 05 00 91 	add	x12, x12, #1
10000435c: 5f 00 0c eb 	cmp	x2, x12
100004360: a1 fe ff 54 	b.ne	0x100004334 <__ZN4core5slice4sort25insertion_sort_shift_left17h72ce654b808f308cE+0x8c>
100004364: eb 03 00 aa 	mov	x11, x0
100004368: dc ff ff 17 	b	0x1000042d8 <__ZN4core5slice4sort25insertion_sort_shift_left17h72ce654b808f308cE+0x30>
10000436c: fd 7b 41 a9 	ldp	x29, x30, [sp, #16]
100004370: ff 83 00 91 	add	sp, sp, #32
100004374: c0 03 5f d6 	ret
100004378: c0 3f 17 30 	adr	x0, #190457
10000437c: 1f 20 03 d5 	nop
100004380: c2 07 1e 10 	adr	x2, #246008
100004384: 1f 20 03 d5 	nop
100004388: c1 05 80 52 	mov	w1, #46
10000438c: d1 b6 00 94 	bl	0x100031ed0 <__ZN4core9panicking5panic17h2f410888133670e4E>

0000000100004390 <__ZN4core5slice4sort25insertion_sort_shift_left17hb5013a39ff019e5cE>:
100004390: ff c3 01 d1 	sub	sp, sp, #112
100004394: fc 6f 01 a9 	stp	x28, x27, [sp, #16]
100004398: fa 67 02 a9 	stp	x26, x25, [sp, #32]
10000439c: f8 5f 03 a9 	stp	x24, x23, [sp, #48]
1000043a0: f6 57 04 a9 	stp	x22, x21, [sp, #64]
1000043a4: f4 4f 05 a9 	stp	x20, x19, [sp, #80]
1000043a8: fd 7b 06 a9 	stp	x29, x30, [sp, #96]
1000043ac: fd 83 01 91 	add	x29, sp, #96
1000043b0: 48 04 00 d1 	sub	x8, x2, #1
1000043b4: 1f 01 01 eb 	cmp	x8, x1
1000043b8: a2 08 00 54 	b.hs	0x1000044cc <__ZN4core5slice4sort25insertion_sort_shift_left17hb5013a39ff019e5cE+0x13c>
1000043bc: f3 03 02 aa 	mov	x19, x2
1000043c0: f4 03 01 aa 	mov	x20, x1
1000043c4: 5f 00 01 eb 	cmp	x2, x1
1000043c8: 22 07 00 54 	b.hs	0x1000044ac <__ZN4core5slice4sort25insertion_sort_shift_left17hb5013a39ff019e5cE+0x11c>
1000043cc: f5 03 00 aa 	mov	x21, x0
1000043d0: 1b 03 80 52 	mov	w27, #24
1000043d4: 68 02 1b 9b 	madd	x8, x19, x27, x0
1000043d8: 17 61 00 d1 	sub	x23, x8, #24
1000043dc: f4 07 00 f9 	str	x20, [sp, #8]
1000043e0: 09 00 00 14 	b	0x100004404 <__ZN4core5slice4sort25insertion_sort_shift_left17hb5013a39ff019e5cE+0x74>
1000043e4: f4 07 40 f9 	ldr	x20, [sp, #8]
1000043e8: 16 67 00 a9 	stp	x22, x25, [x24]
1000043ec: 1b 0b 00 f9 	str	x27, [x24, #16]
1000043f0: 1b 03 80 52 	mov	w27, #24
1000043f4: 73 06 00 91 	add	x19, x19, #1
1000043f8: f7 62 00 91 	add	x23, x23, #24
1000043fc: 7f 02 14 eb 	cmp	x19, x20
100004400: 60 05 00 54 	b.eq	0x1000044ac <__ZN4core5slice4sort25insertion_sort_shift_left17hb5013a39ff019e5cE+0x11c>
100004404: 7c 56 1b 9b 	madd	x28, x19, x27, x21
100004408: f8 03 1c aa 	mov	x24, x28
10000440c: 01 8f 5e f8 	ldr	x1, [x24, #-24]!
100004410: 96 67 40 a9 	ldp	x22, x25, [x28]
100004414: 88 03 5f f8 	ldur	x8, [x28, #-16]
100004418: 3a 03 08 eb 	subs	x26, x25, x8
10000441c: 22 33 88 9a 	csel	x2, x25, x8, lo
100004420: e0 03 16 aa 	mov	x0, x22
100004424: c1 b7 00 94 	bl	0x100032328 <_writev+0x100032328>
100004428: 08 7c 40 93 	sxtw	x8, w0
10000442c: 1f 00 00 71 	cmp	w0, #0
100004430: 48 03 88 9a 	csel	x8, x26, x8, eq
100004434: 08 fe ff b6 	tbz	x8, #63, 0x1000043f4 <__ZN4core5slice4sort25insertion_sort_shift_left17hb5013a39ff019e5cE+0x64>
100004438: 9b 0b 40 f9 	ldr	x27, [x28, #16]
10000443c: 00 03 c0 3d 	ldr	q0, [x24]
100004440: 80 03 80 3d 	str	q0, [x28]
100004444: 08 0b 40 f9 	ldr	x8, [x24, #16]
100004448: 88 0b 00 f9 	str	x8, [x28, #16]
10000444c: 7f 06 00 f1 	cmp	x19, #1
100004450: c0 fc ff 54 	b.eq	0x1000043e8 <__ZN4core5slice4sort25insertion_sort_shift_left17hb5013a39ff019e5cE+0x58>
100004454: 3c 00 80 52 	mov	w28, #1
100004458: f8 03 17 aa 	mov	x24, x23
10000445c: fa 03 18 aa 	mov	x26, x24
100004460: 41 a3 fe a9 	ldp	x1, x8, [x26, #-24]!
100004464: 34 03 08 eb 	subs	x20, x25, x8
100004468: 22 33 88 9a 	csel	x2, x25, x8, lo
10000446c: e0 03 16 aa 	mov	x0, x22
100004470: ae b7 00 94 	bl	0x100032328 <_writev+0x100032328>
100004474: 08 7c 40 93 	sxtw	x8, w0
100004478: 1f 00 00 71 	cmp	w0, #0
10000447c: 88 02 88 9a 	csel	x8, x20, x8, eq
100004480: 28 fb ff b6 	tbz	x8, #63, 0x1000043e4 <__ZN4core5slice4sort25insertion_sort_shift_left17hb5013a39ff019e5cE+0x54>
100004484: 40 03 c0 3d 	ldr	q0, [x26]
100004488: 00 03 80 3d 	str	q0, [x24]
10000448c: 48 0b 40 f9 	ldr	x8, [x26, #16]
100004490: 08 0b 00 f9 	str	x8, [x24, #16]
100004494: 18 63 00 d1 	sub	x24, x24, #24
100004498: 9c 07 00 91 	add	x28, x28, #1
10000449c: 7f 02 1c eb 	cmp	x19, x28
1000044a0: e1 fd ff 54 	b.ne	0x10000445c <__ZN4core5slice4sort25insertion_sort_shift_left17hb5013a39ff019e5cE+0xcc>
1000044a4: f8 03 15 aa 	mov	x24, x21
1000044a8: cf ff ff 17 	b	0x1000043e4 <__ZN4core5slice4sort25insertion_sort_shift_left17hb5013a39ff019e5cE+0x54>
1000044ac: fd 7b 46 a9 	ldp	x29, x30, [sp, #96]
1000044b0: f4 4f 45 a9 	ldp	x20, x19, [sp, #80]
1000044b4: f6 57 44 a9 	ldp	x22, x21, [sp, #64]
1000044b8: f8 5f 43 a9 	ldp	x24, x23, [sp, #48]
1000044bc: fa 67 42 a9 	ldp	x26, x25, [sp, #32]
1000044c0: fc 6f 41 a9 	ldp	x28, x27, [sp, #16]
1000044c4: ff c3 01 91 	add	sp, sp, #112
1000044c8: c0 03 5f d6 	ret
1000044cc: 20 35 17 30 	adr	x0, #190117
1000044d0: 1f 20 03 d5 	nop
1000044d4: 22 fd 1d 10 	adr	x2, #245668
1000044d8: 1f 20 03 d5 	nop
1000044dc: c1 05 80 52 	mov	w1, #46
1000044e0: 7c b6 00 94 	bl	0x100031ed0 <__ZN4core9panicking5panic17h2f410888133670e4E>

00000001000044e4 <__ZN4core5slice4sort25insertion_sort_shift_left17hd3882b31e80c01cfE>:
1000044e4: ff 83 00 d1 	sub	sp, sp, #32
1000044e8: fd 7b 01 a9 	stp	x29, x30, [sp, #16]
1000044ec: fd 43 00 91 	add	x29, sp, #16
1000044f0: 48 04 00 d1 	sub	x8, x2, #1
1000044f4: 1f 01 01 eb 	cmp	x8, x1
1000044f8: 62 05 00 54 	b.hs	0x1000045a4 <__ZN4core5slice4sort25insertion_sort_shift_left17hd3882b31e80c01cfE+0xc0>
1000044fc: 5f 00 01 eb 	cmp	x2, x1
100004500: c2 04 00 54 	b.hs	0x100004598 <__ZN4core5slice4sort25insertion_sort_shift_left17hd3882b31e80c01cfE+0xb4>
100004504: 08 14 02 8b 	add	x8, x0, x2, lsl #5
100004508: 08 81 00 d1 	sub	x8, x8, #32
10000450c: 08 00 00 14 	b	0x10000452c <__ZN4core5slice4sort25insertion_sort_shift_left17hd3882b31e80c01cfE+0x48>
100004510: e0 03 c0 3d 	ldr	q0, [sp]
100004514: 60 01 80 3d 	str	q0, [x11]
100004518: 69 29 01 a9 	stp	x9, x10, [x11, #16]
10000451c: 42 04 00 91 	add	x2, x2, #1
100004520: 08 81 00 91 	add	x8, x8, #32
100004524: 5f 00 01 eb 	cmp	x2, x1
100004528: 80 03 00 54 	b.eq	0x100004598 <__ZN4core5slice4sort25insertion_sort_shift_left17hd3882b31e80c01cfE+0xb4>
10000452c: 0c 14 02 8b 	add	x12, x0, x2, lsl #5
100004530: 89 09 40 f9 	ldr	x9, [x12, #16]
100004534: 8a 01 5f f8 	ldur	x10, [x12, #-16]
100004538: 3f 01 0a eb 	cmp	x9, x10
10000453c: 02 ff ff 54 	b.hs	0x10000451c <__ZN4core5slice4sort25insertion_sort_shift_left17hd3882b31e80c01cfE+0x38>
100004540: 8b 81 00 d1 	sub	x11, x12, #32
100004544: 8a 0d 40 f9 	ldr	x10, [x12, #24]
100004548: 80 01 c0 3d 	ldr	q0, [x12]
10000454c: e0 03 80 3d 	str	q0, [sp]
100004550: 60 05 40 ad 	ldp	q0, q1, [x11]
100004554: 80 05 00 ad 	stp	q0, q1, [x12]
100004558: 5f 04 00 f1 	cmp	x2, #1
10000455c: a0 fd ff 54 	b.eq	0x100004510 <__ZN4core5slice4sort25insertion_sort_shift_left17hd3882b31e80c01cfE+0x2c>
100004560: 2c 00 80 52 	mov	w12, #1
100004564: eb 03 08 aa 	mov	x11, x8
100004568: 6d 01 5f f8 	ldur	x13, [x11, #-16]
10000456c: 3f 01 0d eb 	cmp	x9, x13
100004570: 02 fd ff 54 	b.hs	0x100004510 <__ZN4core5slice4sort25insertion_sort_shift_left17hd3882b31e80c01cfE+0x2c>
100004574: 6d 81 00 d1 	sub	x13, x11, #32
100004578: a0 05 40 ad 	ldp	q0, q1, [x13]
10000457c: 60 05 00 ad 	stp	q0, q1, [x11]
100004580: 8c 05 00 91 	add	x12, x12, #1
100004584: eb 03 0d aa 	mov	x11, x13
100004588: 5f 00 0c eb 	cmp	x2, x12
10000458c: e1 fe ff 54 	b.ne	0x100004568 <__ZN4core5slice4sort25insertion_sort_shift_left17hd3882b31e80c01cfE+0x84>
100004590: eb 03 00 aa 	mov	x11, x0
100004594: df ff ff 17 	b	0x100004510 <__ZN4core5slice4sort25insertion_sort_shift_left17hd3882b31e80c01cfE+0x2c>
100004598: fd 7b 41 a9 	ldp	x29, x30, [sp, #16]
10000459c: ff 83 00 91 	add	sp, sp, #32
1000045a0: c0 03 5f d6 	ret
1000045a4: 60 2e 17 30 	adr	x0, #189901
1000045a8: 1f 20 03 d5 	nop
1000045ac: 62 f6 1d 10 	adr	x2, #245452
1000045b0: 1f 20 03 d5 	nop
1000045b4: c1 05 80 52 	mov	w1, #46
1000045b8: 46 b6 00 94 	bl	0x100031ed0 <__ZN4core9panicking5panic17h2f410888133670e4E>

00000001000045bc <__ZN4core5slice4sort26insertion_sort_shift_right17h6a53ec84f14f29a8E>:
1000045bc: ff c3 00 d1 	sub	sp, sp, #48
1000045c0: fd 7b 02 a9 	stp	x29, x30, [sp, #32]
1000045c4: fd 83 00 91 	add	x29, sp, #32
1000045c8: 3f 04 00 f1 	cmp	x1, #1
1000045cc: 69 05 00 54 	b.ls	0x100004678 <__ZN4core5slice4sort26insertion_sort_shift_right17h6a53ec84f14f29a8E+0xbc>
1000045d0: 09 1c 40 f9 	ldr	x9, [x0, #56]
1000045d4: 08 08 40 f9 	ldr	x8, [x0, #16]
1000045d8: 3f 01 08 eb 	cmp	x9, x8
1000045dc: 82 04 00 54 	b.hs	0x10000466c <__ZN4core5slice4sort26insertion_sort_shift_right17h6a53ec84f14f29a8E+0xb0>
1000045e0: 09 a0 00 91 	add	x9, x0, #40
1000045e4: 01 00 c0 3d 	ldr	q1, [x0]
1000045e8: 00 80 c1 3c 	ldur	q0, [x0, #24]
1000045ec: e0 07 00 ad 	stp	q0, q1, [sp]
1000045f0: 0a 24 40 f9 	ldr	x10, [x0, #72]
1000045f4: 0a 10 00 f9 	str	x10, [x0, #32]
1000045f8: 00 80 c3 3c 	ldur	q0, [x0, #56]
1000045fc: 01 80 c2 3c 	ldur	q1, [x0, #40]
100004600: 01 00 00 ad 	stp	q1, q0, [x0]
100004604: 3f 0c 00 f1 	cmp	x1, #3
100004608: 83 02 00 54 	b.lo	0x100004658 <__ZN4core5slice4sort26insertion_sort_shift_right17h6a53ec84f14f29a8E+0x9c>
10000460c: 0a 30 40 f9 	ldr	x10, [x0, #96]
100004610: 5f 01 08 eb 	cmp	x10, x8
100004614: 22 02 00 54 	b.hs	0x100004658 <__ZN4core5slice4sort26insertion_sort_shift_right17h6a53ec84f14f29a8E+0x9c>
100004618: 0a 40 01 91 	add	x10, x0, #80
10000461c: 2b 08 00 d1 	sub	x11, x1, #2
100004620: 40 05 40 ad 	ldp	q0, q1, [x10]
100004624: 40 81 9d 3c 	stur	q0, [x10, #-40]
100004628: 41 81 9e 3c 	stur	q1, [x10, #-24]
10000462c: 49 11 40 f9 	ldr	x9, [x10, #32]
100004630: 49 81 1f f8 	stur	x9, [x10, #-8]
100004634: 6b 05 00 f1 	subs	x11, x11, #1
100004638: e0 00 00 54 	b.eq	0x100004654 <__ZN4core5slice4sort26insertion_sort_shift_right17h6a53ec84f14f29a8E+0x98>
10000463c: 4c 1d 40 f9 	ldr	x12, [x10, #56]
100004640: e9 03 0a aa 	mov	x9, x10
100004644: 4a a1 00 91 	add	x10, x10, #40
100004648: 9f 01 08 eb 	cmp	x12, x8
10000464c: a3 fe ff 54 	b.lo	0x100004620 <__ZN4core5slice4sort26insertion_sort_shift_right17h6a53ec84f14f29a8E+0x64>
100004650: 02 00 00 14 	b	0x100004658 <__ZN4core5slice4sort26insertion_sort_shift_right17h6a53ec84f14f29a8E+0x9c>
100004654: e9 03 0a aa 	mov	x9, x10
100004658: e0 07 c0 3d 	ldr	q0, [sp, #16]
10000465c: 20 01 80 3d 	str	q0, [x9]
100004660: 28 09 00 f9 	str	x8, [x9, #16]
100004664: e0 03 c0 3d 	ldr	q0, [sp]
100004668: 20 81 81 3c 	stur	q0, [x9, #24]
10000466c: fd 7b 42 a9 	ldp	x29, x30, [sp, #32]
100004670: ff c3 00 91 	add	sp, sp, #48
100004674: c0 03 5f d6 	ret
100004678: 20 29 17 70 	adr	x0, #189735
10000467c: 1f 20 03 d5 	nop
100004680: 82 f0 1d 10 	adr	x2, #245264
100004684: 1f 20 03 d5 	nop
100004688: 41 07 80 52 	mov	w1, #58
10000468c: 11 b6 00 94 	bl	0x100031ed0 <__ZN4core9panicking5panic17h2f410888133670e4E>

0000000100004690 <__ZN4core5slice4sort26insertion_sort_shift_right17h6b1d99c214b76593E>:
100004690: ff 83 00 d1 	sub	sp, sp, #32
100004694: fd 7b 01 a9 	stp	x29, x30, [sp, #16]
100004698: fd 43 00 91 	add	x29, sp, #16
10000469c: 3f 04 00 f1 	cmp	x1, #1
1000046a0: c9 04 00 54 	b.ls	0x100004738 <__ZN4core5slice4sort26insertion_sort_shift_right17h6b1d99c214b76593E+0xa8>
1000046a4: 09 14 40 f9 	ldr	x9, [x0, #40]
1000046a8: 08 08 40 f9 	ldr	x8, [x0, #16]
1000046ac: 3f 01 08 eb 	cmp	x9, x8
1000046b0: e2 03 00 54 	b.hs	0x10000472c <__ZN4core5slice4sort26insertion_sort_shift_right17h6b1d99c214b76593E+0x9c>
1000046b4: 09 60 00 91 	add	x9, x0, #24
1000046b8: 00 00 c0 3d 	ldr	q0, [x0]
1000046bc: e0 03 80 3d 	str	q0, [sp]
1000046c0: 00 80 c1 3c 	ldur	q0, [x0, #24]
1000046c4: 00 00 80 3d 	str	q0, [x0]
1000046c8: 0a 14 40 f9 	ldr	x10, [x0, #40]
1000046cc: 0a 08 00 f9 	str	x10, [x0, #16]
1000046d0: 3f 0c 00 f1 	cmp	x1, #3
1000046d4: 63 02 00 54 	b.lo	0x100004720 <__ZN4core5slice4sort26insertion_sort_shift_right17h6b1d99c214b76593E+0x90>
1000046d8: 0a 20 40 f9 	ldr	x10, [x0, #64]
1000046dc: 5f 01 08 eb 	cmp	x10, x8
1000046e0: 02 02 00 54 	b.hs	0x100004720 <__ZN4core5slice4sort26insertion_sort_shift_right17h6b1d99c214b76593E+0x90>
1000046e4: 0a c0 00 91 	add	x10, x0, #48
1000046e8: 2b 08 00 d1 	sub	x11, x1, #2
1000046ec: 40 01 c0 3d 	ldr	q0, [x10]
1000046f0: 40 81 9e 3c 	stur	q0, [x10, #-24]
1000046f4: 49 09 40 f9 	ldr	x9, [x10, #16]
1000046f8: 49 81 1f f8 	stur	x9, [x10, #-8]
1000046fc: 6b 05 00 f1 	subs	x11, x11, #1
100004700: e0 00 00 54 	b.eq	0x10000471c <__ZN4core5slice4sort26insertion_sort_shift_right17h6b1d99c214b76593E+0x8c>
100004704: 4c 15 40 f9 	ldr	x12, [x10, #40]
100004708: e9 03 0a aa 	mov	x9, x10
10000470c: 4a 61 00 91 	add	x10, x10, #24
100004710: 9f 01 08 eb 	cmp	x12, x8
100004714: c3 fe ff 54 	b.lo	0x1000046ec <__ZN4core5slice4sort26insertion_sort_shift_right17h6b1d99c214b76593E+0x5c>
100004718: 02 00 00 14 	b	0x100004720 <__ZN4core5slice4sort26insertion_sort_shift_right17h6b1d99c214b76593E+0x90>
10000471c: e9 03 0a aa 	mov	x9, x10
100004720: e0 03 c0 3d 	ldr	q0, [sp]
100004724: 20 01 80 3d 	str	q0, [x9]
100004728: 28 09 00 f9 	str	x8, [x9, #16]
10000472c: fd 7b 41 a9 	ldp	x29, x30, [sp, #16]
100004730: ff 83 00 91 	add	sp, sp, #32
100004734: c0 03 5f d6 	ret
100004738: 20 23 17 70 	adr	x0, #189543
10000473c: 1f 20 03 d5 	nop
100004740: 82 ea 1d 10 	adr	x2, #245072
100004744: 1f 20 03 d5 	nop
100004748: 41 07 80 52 	mov	w1, #58
10000474c: e1 b5 00 94 	bl	0x100031ed0 <__ZN4core9panicking5panic17h2f410888133670e4E>

0000000100004750 <__ZN4core5slice4sort26insertion_sort_shift_right17h79835946a7d830faE>:
100004750: fa 67 bb a9 	stp	x26, x25, [sp, #-80]!
100004754: f8 5f 01 a9 	stp	x24, x23, [sp, #16]
100004758: f6 57 02 a9 	stp	x22, x21, [sp, #32]
10000475c: f4 4f 03 a9 	stp	x20, x19, [sp, #48]
100004760: fd 7b 04 a9 	stp	x29, x30, [sp, #64]
100004764: fd 03 01 91 	add	x29, sp, #64
100004768: 3f 04 00 f1 	cmp	x1, #1
10000476c: 89 07 00 54 	b.ls	0x10000485c <__ZN4core5slice4sort26insertion_sort_shift_right17h79835946a7d830faE+0x10c>
100004770: f5 03 01 aa 	mov	x21, x1
100004774: f4 03 00 aa 	mov	x20, x0
100004778: f8 03 00 aa 	mov	x24, x0
10000477c: 00 8f 41 f8 	ldr	x0, [x24, #24]!
100004780: 88 12 40 f9 	ldr	x8, [x20, #32]
100004784: 93 5a 40 a9 	ldp	x19, x22, [x20]
100004788: 17 01 16 eb 	subs	x23, x8, x22
10000478c: 02 31 96 9a 	csel	x2, x8, x22, lo
100004790: e1 03 13 aa 	mov	x1, x19
100004794: e5 b6 00 94 	bl	0x100032328 <_writev+0x100032328>
100004798: 08 7c 40 93 	sxtw	x8, w0
10000479c: 1f 00 00 71 	cmp	w0, #0
1000047a0: e8 02 88 9a 	csel	x8, x23, x8, eq
1000047a4: 08 05 f8 b6 	tbz	x8, #63, 0x100004844 <__ZN4core5slice4sort26insertion_sort_shift_right17h79835946a7d830faE+0xf4>
1000047a8: 97 0a 40 f9 	ldr	x23, [x20, #16]
1000047ac: 00 03 c0 3d 	ldr	q0, [x24]
1000047b0: 80 02 80 3d 	str	q0, [x20]
1000047b4: 08 0b 40 f9 	ldr	x8, [x24, #16]
1000047b8: 88 0a 00 f9 	str	x8, [x20, #16]
1000047bc: bf 0e 00 f1 	cmp	x21, #3
1000047c0: e3 03 00 54 	b.lo	0x10000483c <__ZN4core5slice4sort26insertion_sort_shift_right17h79835946a7d830faE+0xec>
1000047c4: 80 22 c3 a9 	ldp	x0, x8, [x20, #48]!
1000047c8: 19 01 16 eb 	subs	x25, x8, x22
1000047cc: 02 31 96 9a 	csel	x2, x8, x22, lo
1000047d0: e1 03 13 aa 	mov	x1, x19
1000047d4: d5 b6 00 94 	bl	0x100032328 <_writev+0x100032328>
1000047d8: 08 7c 40 93 	sxtw	x8, w0
1000047dc: 1f 00 00 71 	cmp	w0, #0
1000047e0: 28 03 88 9a 	csel	x8, x25, x8, eq
1000047e4: c8 02 f8 b6 	tbz	x8, #63, 0x10000483c <__ZN4core5slice4sort26insertion_sort_shift_right17h79835946a7d830faE+0xec>
1000047e8: b5 0a 00 d1 	sub	x21, x21, #2
1000047ec: 80 02 c0 3d 	ldr	q0, [x20]
1000047f0: 80 82 9e 3c 	stur	q0, [x20, #-24]
1000047f4: 88 0a 40 f9 	ldr	x8, [x20, #16]
1000047f8: 88 82 1f f8 	stur	x8, [x20, #-8]
1000047fc: b5 06 00 f1 	subs	x21, x21, #1
100004800: c0 01 00 54 	b.eq	0x100004838 <__ZN4core5slice4sort26insertion_sort_shift_right17h79835946a7d830faE+0xe8>
100004804: 99 62 00 91 	add	x25, x20, #24
100004808: 80 a2 41 a9 	ldp	x0, x8, [x20, #24]
10000480c: 18 01 16 eb 	subs	x24, x8, x22
100004810: 02 31 96 9a 	csel	x2, x8, x22, lo
100004814: e1 03 13 aa 	mov	x1, x19
100004818: c4 b6 00 94 	bl	0x100032328 <_writev+0x100032328>
10000481c: 08 7c 40 93 	sxtw	x8, w0
100004820: 1f 00 00 71 	cmp	w0, #0
100004824: 08 03 88 9a 	csel	x8, x24, x8, eq
100004828: f8 03 14 aa 	mov	x24, x20
10000482c: f4 03 19 aa 	mov	x20, x25
100004830: e8 fd ff b7 	tbnz	x8, #63, 0x1000047ec <__ZN4core5slice4sort26insertion_sort_shift_right17h79835946a7d830faE+0x9c>
100004834: 02 00 00 14 	b	0x10000483c <__ZN4core5slice4sort26insertion_sort_shift_right17h79835946a7d830faE+0xec>
100004838: f8 03 14 aa 	mov	x24, x20
10000483c: 13 5b 00 a9 	stp	x19, x22, [x24]
100004840: 17 0b 00 f9 	str	x23, [x24, #16]
100004844: fd 7b 44 a9 	ldp	x29, x30, [sp, #64]
100004848: f4 4f 43 a9 	ldp	x20, x19, [sp, #48]
10000484c: f6 57 42 a9 	ldp	x22, x21, [sp, #32]
100004850: f8 5f 41 a9 	ldp	x24, x23, [sp, #16]
100004854: fa 67 c5 a8 	ldp	x26, x25, [sp], #80
100004858: c0 03 5f d6 	ret
10000485c: 00 1a 17 70 	adr	x0, #189251
100004860: 1f 20 03 d5 	nop
100004864: 62 e1 1d 10 	adr	x2, #244780
100004868: 1f 20 03 d5 	nop
10000486c: 41 07 80 52 	mov	w1, #58
100004870: 98 b5 00 94 	bl	0x100031ed0 <__ZN4core9panicking5panic17h2f410888133670e4E>

0000000100004874 <__ZN4core5slice4sort7recurse17h265bfca4c543a56aE>:
100004874: ff c3 06 d1 	sub	sp, sp, #432
100004878: fc 6f 15 a9 	stp	x28, x27, [sp, #336]
10000487c: fa 67 16 a9 	stp	x26, x25, [sp, #352]
100004880: f8 5f 17 a9 	stp	x24, x23, [sp, #368]
100004884: f6 57 18 a9 	stp	x22, x21, [sp, #384]
100004888: f4 4f 19 a9 	stp	x20, x19, [sp, #400]
10000488c: fd 7b 1a a9 	stp	x29, x30, [sp, #416]
100004890: fd 83 06 91 	add	x29, sp, #416
100004894: e2 07 00 f9 	str	x2, [sp, #8]
100004898: fe 03 01 aa 	mov	x30, x1
10000489c: f3 03 00 aa 	mov	x19, x0
1000048a0: 3f 54 00 f1 	cmp	x1, #21
1000048a4: 22 02 00 54 	b.hs	0x1000048e8 <__ZN4core5slice4sort7recurse17h265bfca4c543a56aE+0x74>
1000048a8: fa 03 1e aa 	mov	x26, x30
1000048ac: f8 03 13 aa 	mov	x24, x19
1000048b0: 5f 0b 00 f1 	cmp	x26, #2
1000048b4: a3 00 00 54 	b.lo	0x1000048c8 <__ZN4core5slice4sort7recurse17h265bfca4c543a56aE+0x54>
1000048b8: e0 03 18 aa 	mov	x0, x24
1000048bc: e1 03 1a aa 	mov	x1, x26
1000048c0: 22 00 80 52 	mov	w2, #1
1000048c4: 10 fe ff 97 	bl	0x100004104 <__ZN4core5slice4sort25insertion_sort_shift_left17h366ea9b45de40016E>
1000048c8: fd 7b 5a a9 	ldp	x29, x30, [sp, #416]
1000048cc: f4 4f 59 a9 	ldp	x20, x19, [sp, #400]
1000048d0: f6 57 58 a9 	ldp	x22, x21, [sp, #384]
1000048d4: f8 5f 57 a9 	ldp	x24, x23, [sp, #368]
1000048d8: fa 67 56 a9 	ldp	x26, x25, [sp, #352]
1000048dc: fc 6f 55 a9 	ldp	x28, x27, [sp, #336]
1000048e0: ff c3 06 91 	add	sp, sp, #432
1000048e4: c0 03 5f d6 	ret
1000048e8: f5 03 04 aa 	mov	x21, x4
1000048ec: f6 03 03 aa 	mov	x22, x3
1000048f0: 21 00 80 52 	mov	w1, #1
1000048f4: 1c 03 80 52 	mov	w28, #24
1000048f8: e2 f3 7d b2 	orr	x2, xzr, #0xfffffffffffffff8
1000048fc: 3b 00 80 52 	mov	w27, #1
100004900: 34 00 80 52 	mov	w20, #1
100004904: 77 03 14 0a 	and	w23, w27, w20
100004908: f8 03 13 aa 	mov	x24, x19
10000490c: f9 03 1e aa 	mov	x25, x30
100004910: 15 40 00 34 	cbz	w21, 0x100005110 <__ZN4core5slice4sort7recurse17h265bfca4c543a56aE+0x89c>
100004914: 1b 08 00 36 	tbz	w27, #0, 0x100004a14 <__ZN4core5slice4sort7recurse17h265bfca4c543a56aE+0x1a0>
100004918: 29 ff 42 d3 	lsr	x9, x25, #2
10000491c: 2a f9 7f d3 	lsl	x10, x9, #1
100004920: 48 01 09 8b 	add	x8, x10, x9
100004924: 3f c7 00 f1 	cmp	x25, #49
100004928: 09 09 00 54 	b.ls	0x100004a48 <__ZN4core5slice4sort7recurse17h265bfca4c543a56aE+0x1d4>
10000492c: 2b 05 00 d1 	sub	x11, x9, #1
100004930: 2c 05 00 91 	add	x12, x9, #1
100004934: 2d 61 1c 9b 	madd	x13, x9, x28, x24
100004938: ae 09 40 f9 	ldr	x14, [x13, #16]
10000493c: af 81 5f f8 	ldur	x15, [x13, #-8]
100004940: df 01 0f eb 	cmp	x14, x15
100004944: f0 21 8e 9a 	csel	x16, x15, x14, hs
100004948: f1 23 81 9a 	csel	x17, xzr, x1, hs
10000494c: 20 21 8b 9a 	csel	x0, x9, x11, hs
100004950: 69 21 89 9a 	csel	x9, x11, x9, hs
100004954: cb 21 8f 9a 	csel	x11, x14, x15, hs
100004958: ad 15 40 f9 	ldr	x13, [x13, #40]
10000495c: bf 01 0b eb 	cmp	x13, x11
100004960: 8c 31 80 9a 	csel	x12, x12, x0, lo
100004964: 2e 26 91 9a 	cinc	x14, x17, lo
100004968: ab 31 8b 9a 	csel	x11, x13, x11, lo
10000496c: 7f 01 10 eb 	cmp	x11, x16
100004970: 29 31 8c 9a 	csel	x9, x9, x12, lo
100004974: cb 25 8e 9a 	cinc	x11, x14, lo
100004978: 4c 05 00 d1 	sub	x12, x10, #1
10000497c: 4d 01 40 b2 	orr	x13, x10, #0x1
100004980: 4e 61 1c 9b 	madd	x14, x10, x28, x24
100004984: cf 09 40 f9 	ldr	x15, [x14, #16]
100004988: d0 81 5f f8 	ldur	x16, [x14, #-8]
10000498c: ff 01 10 eb 	cmp	x15, x16
100004990: 11 22 8f 9a 	csel	x17, x16, x15, hs
100004994: 6b 25 8b 9a 	cinc	x11, x11, lo
100004998: 40 21 8c 9a 	csel	x0, x10, x12, hs
10000499c: 8a 21 8a 9a 	csel	x10, x12, x10, hs
1000049a0: ec 21 90 9a 	csel	x12, x15, x16, hs
1000049a4: ce 15 40 f9 	ldr	x14, [x14, #40]
1000049a8: df 01 0c eb 	cmp	x14, x12
1000049ac: ad 31 80 9a 	csel	x13, x13, x0, lo
1000049b0: 6b 25 8b 9a 	cinc	x11, x11, lo
1000049b4: cc 31 8c 9a 	csel	x12, x14, x12, lo
1000049b8: 9f 01 11 eb 	cmp	x12, x17
1000049bc: 4a 31 8d 9a 	csel	x10, x10, x13, lo
1000049c0: 6b 25 8b 9a 	cinc	x11, x11, lo
1000049c4: 0c 05 00 d1 	sub	x12, x8, #1
1000049c8: 0d 05 00 91 	add	x13, x8, #1
1000049cc: 0e 61 1c 9b 	madd	x14, x8, x28, x24
1000049d0: cf 09 40 f9 	ldr	x15, [x14, #16]
1000049d4: d0 81 5f f8 	ldur	x16, [x14, #-8]
1000049d8: ff 01 10 eb 	cmp	x15, x16
1000049dc: 11 22 8f 9a 	csel	x17, x16, x15, hs
1000049e0: 6b 25 8b 9a 	cinc	x11, x11, lo
1000049e4: 00 21 8c 9a 	csel	x0, x8, x12, hs
1000049e8: 88 21 88 9a 	csel	x8, x12, x8, hs
1000049ec: ec 21 90 9a 	csel	x12, x15, x16, hs
1000049f0: ce 15 40 f9 	ldr	x14, [x14, #40]
1000049f4: df 01 0c eb 	cmp	x14, x12
1000049f8: ad 31 80 9a 	csel	x13, x13, x0, lo
1000049fc: 6b 25 8b 9a 	cinc	x11, x11, lo
100004a00: cc 31 8c 9a 	csel	x12, x14, x12, lo
100004a04: 9f 01 11 eb 	cmp	x12, x17
100004a08: 08 31 8d 9a 	csel	x8, x8, x13, lo
100004a0c: 6b 25 8b 9a 	cinc	x11, x11, lo
100004a10: 0f 00 00 14 	b	0x100004a4c <__ZN4core5slice4sort7recurse17h265bfca4c543a56aE+0x1d8>
100004a14: e0 03 18 aa 	mov	x0, x24
100004a18: e1 03 19 aa 	mov	x1, x25
100004a1c: f4 03 1e aa 	mov	x20, x30
100004a20: 9b aa 00 94 	bl	0x10002f48c <__ZN4core5slice4sort14break_patterns17h2aa2242548710613E>
100004a24: fe 03 14 aa 	mov	x30, x20
100004a28: e2 f3 7d b2 	orr	x2, xzr, #0xfffffffffffffff8
100004a2c: 21 00 80 52 	mov	w1, #1
100004a30: b5 06 00 51 	sub	w21, w21, #1
100004a34: 29 ff 42 d3 	lsr	x9, x25, #2
100004a38: 2a f9 7f d3 	lsl	x10, x9, #1
100004a3c: 48 01 09 8b 	add	x8, x10, x9
100004a40: 3f c7 00 f1 	cmp	x25, #49
100004a44: 48 f7 ff 54 	b.hi	0x10000492c <__ZN4core5slice4sort7recurse17h265bfca4c543a56aE+0xb8>
100004a48: 0b 00 80 d2 	mov	x11, #0
100004a4c: 4c 61 1c 9b 	madd	x12, x10, x28, x24
100004a50: 8c 09 40 f9 	ldr	x12, [x12, #16]
100004a54: 2d 61 1c 9b 	madd	x13, x9, x28, x24
100004a58: ad 09 40 f9 	ldr	x13, [x13, #16]
100004a5c: 9f 01 0d eb 	cmp	x12, x13
100004a60: ae 21 8c 9a 	csel	x14, x13, x12, hs
100004a64: 6b 25 8b 9a 	cinc	x11, x11, lo
100004a68: 4f 21 89 9a 	csel	x15, x10, x9, hs
100004a6c: 3a 21 8a 9a 	csel	x26, x9, x10, hs
100004a70: 8a 21 8d 9a 	csel	x10, x12, x13, hs
100004a74: 09 61 1c 9b 	madd	x9, x8, x28, x24
100004a78: 2c 09 40 f9 	ldr	x12, [x9, #16]
100004a7c: 9f 01 0a eb 	cmp	x12, x10
100004a80: 09 31 8f 9a 	csel	x9, x8, x15, lo
100004a84: 68 25 8b 9a 	cinc	x8, x11, lo
100004a88: 8a 31 8a 9a 	csel	x10, x12, x10, lo
100004a8c: 5f 01 0e eb 	cmp	x10, x14
100004a90: 22 01 00 54 	b.hs	0x100004ab4 <__ZN4core5slice4sort7recurse17h265bfca4c543a56aE+0x240>
100004a94: 1f 2d 00 f1 	cmp	x8, #11
100004a98: a2 01 00 54 	b.hs	0x100004acc <__ZN4core5slice4sort7recurse17h265bfca4c543a56aE+0x258>
100004a9c: 08 05 00 91 	add	x8, x8, #1
100004aa0: 1f 01 00 f1 	cmp	x8, #0
100004aa4: e8 17 9f 1a 	cset	w8, eq
100004aa8: e8 02 08 0a 	and	w8, w23, w8
100004aac: e8 03 00 36 	tbz	w8, #0, 0x100004b28 <__ZN4core5slice4sort7recurse17h265bfca4c543a56aE+0x2b4>
100004ab0: 6c 00 00 14 	b	0x100004c60 <__ZN4core5slice4sort7recurse17h265bfca4c543a56aE+0x3ec>
100004ab4: fa 03 09 aa 	mov	x26, x9
100004ab8: 1f 01 00 f1 	cmp	x8, #0
100004abc: e8 17 9f 1a 	cset	w8, eq
100004ac0: e8 02 08 0a 	and	w8, w23, w8
100004ac4: 28 03 00 36 	tbz	w8, #0, 0x100004b28 <__ZN4core5slice4sort7recurse17h265bfca4c543a56aE+0x2b4>
100004ac8: 66 00 00 14 	b	0x100004c60 <__ZN4core5slice4sort7recurse17h265bfca4c543a56aE+0x3ec>
100004acc: 28 ff 41 d3 	lsr	x8, x25, #1
100004ad0: 29 63 1c 9b 	madd	x9, x25, x28, x24
100004ad4: 29 61 00 d1 	sub	x9, x9, #24
100004ad8: ea 03 18 aa 	mov	x10, x24
100004adc: 40 01 c0 3d 	ldr	q0, [x10]
100004ae0: 4b 09 40 f9 	ldr	x11, [x10, #16]
100004ae4: eb 63 00 f9 	str	x11, [sp, #192]
100004ae8: e0 2f 80 3d 	str	q0, [sp, #176]
100004aec: 20 01 c0 3d 	ldr	q0, [x9]
100004af0: 2b 09 40 f9 	ldr	x11, [x9, #16]
100004af4: 4b 09 00 f9 	str	x11, [x10, #16]
100004af8: 40 85 81 3c 	str	q0, [x10], #24
100004afc: e0 2f c0 3d 	ldr	q0, [sp, #176]
100004b00: eb 63 40 f9 	ldr	x11, [sp, #192]
100004b04: 2b 09 00 f9 	str	x11, [x9, #16]
100004b08: 20 85 9e 3c 	str	q0, [x9], #-24
100004b0c: 08 05 00 d1 	sub	x8, x8, #1
100004b10: 68 fe ff b5 	cbnz	x8, 0x100004adc <__ZN4core5slice4sort7recurse17h265bfca4c543a56aE+0x268>
100004b14: e8 03 3a aa 	mvn	x8, x26
100004b18: 3a 03 08 8b 	add	x26, x25, x8
100004b1c: 28 00 80 52 	mov	w8, #1
100004b20: e8 02 08 0a 	and	w8, w23, w8
100004b24: e8 09 00 37 	tbnz	w8, #0, 0x100004c60 <__ZN4core5slice4sort7recurse17h265bfca4c543a56aE+0x3ec>
100004b28: 36 0b 00 b4 	cbz	x22, 0x100004c8c <__ZN4core5slice4sort7recurse17h265bfca4c543a56aE+0x418>
100004b2c: 5f 03 19 eb 	cmp	x26, x25
100004b30: a2 2f 00 54 	b.hs	0x100005124 <__ZN4core5slice4sort7recurse17h265bfca4c543a56aE+0x8b0>
100004b34: 49 63 1c 9b 	madd	x9, x26, x28, x24
100004b38: c8 0a 40 f9 	ldr	x8, [x22, #16]
100004b3c: 2a 09 40 f9 	ldr	x10, [x9, #16]
100004b40: 1f 01 0a eb 	cmp	x8, x10
100004b44: 03 0a 00 54 	b.lo	0x100004c84 <__ZN4core5slice4sort7recurse17h265bfca4c543a56aE+0x410>
100004b48: 08 00 80 d2 	mov	x8, #0
100004b4c: 00 03 c0 3d 	ldr	q0, [x24]
100004b50: 0a 0b 40 f9 	ldr	x10, [x24, #16]
100004b54: ea 63 00 f9 	str	x10, [sp, #192]
100004b58: e0 2f 80 3d 	str	q0, [sp, #176]
100004b5c: 20 01 c0 3d 	ldr	q0, [x9]
100004b60: 2a 09 40 f9 	ldr	x10, [x9, #16]
100004b64: 0a 0b 00 f9 	str	x10, [x24, #16]
100004b68: 00 03 80 3d 	str	q0, [x24]
100004b6c: e0 2f c0 3d 	ldr	q0, [sp, #176]
100004b70: ea 63 40 f9 	ldr	x10, [sp, #192]
100004b74: 2a 09 00 f9 	str	x10, [x9, #16]
100004b78: 20 01 80 3d 	str	q0, [x9]
100004b7c: 0a 63 00 91 	add	x10, x24, #24
100004b80: 09 0b 40 f9 	ldr	x9, [x24, #16]
100004b84: 00 03 c0 3d 	ldr	q0, [x24]
100004b88: e0 0f 80 3d 	str	q0, [sp, #48]
100004b8c: 0b a3 00 91 	add	x11, x24, #40
100004b90: ec 03 19 aa 	mov	x12, x25
100004b94: 2d 07 00 d1 	sub	x13, x25, #1
100004b98: 1f 01 0d eb 	cmp	x8, x13
100004b9c: 42 01 00 54 	b.hs	0x100004bc4 <__ZN4core5slice4sort7recurse17h265bfca4c543a56aE+0x350>
100004ba0: 0e 2d 1c 9b 	madd	x14, x8, x28, x11
100004ba4: cf 01 40 f9 	ldr	x15, [x14]
100004ba8: 3f 01 0f eb 	cmp	x9, x15
100004bac: c3 00 00 54 	b.lo	0x100004bc4 <__ZN4core5slice4sort7recurse17h265bfca4c543a56aE+0x350>
100004bb0: 08 05 00 91 	add	x8, x8, #1
100004bb4: ce 61 00 91 	add	x14, x14, #24
100004bb8: bf 01 08 eb 	cmp	x13, x8
100004bbc: 41 ff ff 54 	b.ne	0x100004ba4 <__ZN4core5slice4sort7recurse17h265bfca4c543a56aE+0x330>
100004bc0: e8 03 0d aa 	mov	x8, x13
100004bc4: 8d 09 1c 9b 	madd	x13, x12, x28, x2
100004bc8: 8c 05 00 d1 	sub	x12, x12, #1
100004bcc: 1f 01 0c eb 	cmp	x8, x12
100004bd0: 02 03 00 54 	b.hs	0x100004c30 <__ZN4core5slice4sort7recurse17h265bfca4c543a56aE+0x3bc>
100004bd4: 0e 6b 6d f8 	ldr	x14, [x24, x13]
100004bd8: ad 61 00 d1 	sub	x13, x13, #24
100004bdc: 3f 01 0e eb 	cmp	x9, x14
100004be0: 43 ff ff 54 	b.lo	0x100004bc8 <__ZN4core5slice4sort7recurse17h265bfca4c543a56aE+0x354>
100004be4: 0d 29 1c 9b 	madd	x13, x8, x28, x10
100004be8: 8e 61 1c 9b 	madd	x14, x12, x28, x24
100004bec: a0 01 c0 3d 	ldr	q0, [x13]
100004bf0: af 09 40 f9 	ldr	x15, [x13, #16]
100004bf4: ef 63 00 f9 	str	x15, [sp, #192]
100004bf8: e0 2f 80 3d 	str	q0, [sp, #176]
100004bfc: c0 01 c0 3d 	ldr	q0, [x14]
100004c00: cf 09 40 f9 	ldr	x15, [x14, #16]
100004c04: af 09 00 f9 	str	x15, [x13, #16]
100004c08: a0 01 80 3d 	str	q0, [x13]
100004c0c: e0 2f c0 3d 	ldr	q0, [sp, #176]
100004c10: ed 63 40 f9 	ldr	x13, [sp, #192]
100004c14: cd 09 00 f9 	str	x13, [x14, #16]
100004c18: c0 01 80 3d 	str	q0, [x14]
100004c1c: 08 05 00 91 	add	x8, x8, #1
100004c20: 8d 05 00 d1 	sub	x13, x12, #1
100004c24: 1f 01 0d eb 	cmp	x8, x13
100004c28: c3 fb ff 54 	b.lo	0x100004ba0 <__ZN4core5slice4sort7recurse17h265bfca4c543a56aE+0x32c>
100004c2c: e6 ff ff 17 	b	0x100004bc4 <__ZN4core5slice4sort7recurse17h265bfca4c543a56aE+0x350>
100004c30: 00 05 00 91 	add	x0, x8, #1
100004c34: e0 0f c0 3d 	ldr	q0, [sp, #48]
100004c38: 00 03 80 3d 	str	q0, [x24]
100004c3c: 09 0b 00 f9 	str	x9, [x24, #16]
100004c40: 3a 03 00 eb 	subs	x26, x25, x0
100004c44: a3 28 00 54 	b.lo	0x100005158 <__ZN4core5slice4sort7recurse17h265bfca4c543a56aE+0x8e4>
100004c48: 08 61 1c 9b 	madd	x8, x8, x28, x24
100004c4c: 18 61 00 91 	add	x24, x8, #24
100004c50: f9 03 1a aa 	mov	x25, x26
100004c54: 5f 57 00 f1 	cmp	x26, #21
100004c58: c2 e5 ff 54 	b.hs	0x100004910 <__ZN4core5slice4sort7recurse17h265bfca4c543a56aE+0x9c>
100004c5c: 15 ff ff 17 	b	0x1000048b0 <__ZN4core5slice4sort7recurse17h265bfca4c543a56aE+0x3c>
100004c60: e0 03 18 aa 	mov	x0, x24
100004c64: e1 03 19 aa 	mov	x1, x25
100004c68: f4 03 1e aa 	mov	x20, x30
100004c6c: bc aa 00 94 	bl	0x10002f75c <__ZN4core5slice4sort22partial_insertion_sort17ha446f87a458587bbE>
100004c70: fe 03 14 aa 	mov	x30, x20
100004c74: e2 f3 7d b2 	orr	x2, xzr, #0xfffffffffffffff8
100004c78: 21 00 80 52 	mov	w1, #1
100004c7c: 60 f5 07 36 	tbz	w0, #0, 0x100004b28 <__ZN4core5slice4sort7recurse17h265bfca4c543a56aE+0x2b4>
100004c80: 12 ff ff 17 	b	0x1000048c8 <__ZN4core5slice4sort7recurse17h265bfca4c543a56aE+0x54>
100004c84: f3 03 18 aa 	mov	x19, x24
100004c88: fe 03 19 aa 	mov	x30, x25
100004c8c: 5f 03 1e eb 	cmp	x26, x30
100004c90: 42 25 00 54 	b.hs	0x100005138 <__ZN4core5slice4sort7recurse17h265bfca4c543a56aE+0x8c4>
100004c94: 48 4f 1c 9b 	madd	x8, x26, x28, x19
100004c98: 60 02 c0 3d 	ldr	q0, [x19]
100004c9c: 69 0a 40 f9 	ldr	x9, [x19, #16]
100004ca0: e9 63 00 f9 	str	x9, [sp, #192]
100004ca4: e0 2f 80 3d 	str	q0, [sp, #176]
100004ca8: 00 01 c0 3d 	ldr	q0, [x8]
100004cac: 09 09 40 f9 	ldr	x9, [x8, #16]
100004cb0: 69 0a 00 f9 	str	x9, [x19, #16]
100004cb4: 60 02 80 3d 	str	q0, [x19]
100004cb8: e0 2f c0 3d 	ldr	q0, [sp, #176]
100004cbc: e9 63 40 f9 	ldr	x9, [sp, #192]
100004cc0: 09 09 00 f9 	str	x9, [x8, #16]
100004cc4: 00 01 80 3d 	str	q0, [x8]
100004cc8: 60 02 c0 3d 	ldr	q0, [x19]
100004ccc: 6a 0a 40 f9 	ldr	x10, [x19, #16]
100004cd0: ea 13 00 f9 	str	x10, [sp, #32]
100004cd4: e0 07 80 3d 	str	q0, [sp, #16]
100004cd8: 08 00 80 d2 	mov	x8, #0
100004cdc: c1 07 00 f1 	subs	x1, x30, #1
100004ce0: 80 01 00 54 	b.eq	0x100004d10 <__ZN4core5slice4sort7recurse17h265bfca4c543a56aE+0x49c>
100004ce4: 69 a2 00 91 	add	x9, x19, #40
100004ce8: 77 55 95 52 	mov	w23, #43691
100004cec: 2b 01 40 f9 	ldr	x11, [x9]
100004cf0: 7f 01 0a eb 	cmp	x11, x10
100004cf4: 02 01 00 54 	b.hs	0x100004d14 <__ZN4core5slice4sort7recurse17h265bfca4c543a56aE+0x4a0>
100004cf8: 08 05 00 91 	add	x8, x8, #1
100004cfc: 29 61 00 91 	add	x9, x9, #24
100004d00: 3f 00 08 eb 	cmp	x1, x8
100004d04: 41 ff ff 54 	b.ne	0x100004cec <__ZN4core5slice4sort7recurse17h265bfca4c543a56aE+0x478>
100004d08: e8 03 01 aa 	mov	x8, x1
100004d0c: 02 00 00 14 	b	0x100004d14 <__ZN4core5slice4sort7recurse17h265bfca4c543a56aE+0x4a0>
100004d10: 77 55 95 52 	mov	w23, #43691
100004d14: 6b 62 00 91 	add	x11, x19, #24
100004d18: 1f 01 01 eb 	cmp	x8, x1
100004d1c: 0c 31 81 9a 	csel	x12, x8, x1, lo
100004d20: cd 0b 1c 9b 	madd	x13, x30, x28, x2
100004d24: e9 03 1e aa 	mov	x9, x30
100004d28: 29 05 00 d1 	sub	x9, x9, #1
100004d2c: 3f 01 08 eb 	cmp	x9, x8
100004d30: c9 00 00 54 	b.ls	0x100004d48 <__ZN4core5slice4sort7recurse17h265bfca4c543a56aE+0x4d4>
100004d34: 6e 6a 6d f8 	ldr	x14, [x19, x13]
100004d38: ad 61 00 d1 	sub	x13, x13, #24
100004d3c: df 01 0a eb 	cmp	x14, x10
100004d40: 42 ff ff 54 	b.hs	0x100004d28 <__ZN4core5slice4sort7recurse17h265bfca4c543a56aE+0x4b4>
100004d44: 02 00 00 14 	b	0x100004d4c <__ZN4core5slice4sort7recurse17h265bfca4c543a56aE+0x4d8>
100004d48: e9 03 0c aa 	mov	x9, x12
100004d4c: 2c 01 08 eb 	subs	x12, x9, x8
100004d50: 63 21 00 54 	b.lo	0x10000517c <__ZN4core5slice4sort7recurse17h265bfca4c543a56aE+0x908>
100004d54: 3f 01 01 eb 	cmp	x9, x1
100004d58: 88 20 00 54 	b.hi	0x100005168 <__ZN4core5slice4sort7recurse17h265bfca4c543a56aE+0x8f4>
100004d5c: 0d 00 80 d2 	mov	x13, #0
100004d60: 10 00 80 d2 	mov	x16, #0
100004d64: 0e 00 80 d2 	mov	x14, #0
100004d68: 11 00 80 d2 	mov	x17, #0
100004d6c: 0b 2d 1c 9b 	madd	x11, x8, x28, x11
100004d70: 8c 2d 1c 9b 	madd	x12, x12, x28, x11
100004d74: 00 10 80 52 	mov	w0, #128
100004d78: 01 10 80 52 	mov	w1, #128
100004d7c: ef 03 0b aa 	mov	x15, x11
100004d80: 10 00 00 14 	b	0x100004dc0 <__ZN4core5slice4sort7recurse17h265bfca4c543a56aE+0x54c>
100004d84: a0 03 d9 3c 	ldur	q0, [x29, #-112]
100004d88: a3 03 5a f8 	ldur	x3, [x29, #-96]
100004d8c: 84 30 1c 9b 	madd	x4, x4, x28, x12
100004d90: 83 08 00 f9 	str	x3, [x4, #16]
100004d94: 80 00 80 3d 	str	q0, [x4]
100004d98: 31 06 00 91 	add	x17, x17, #1
100004d9c: 10 06 00 91 	add	x16, x16, #1
100004da0: 3f 02 0e eb 	cmp	x17, x14
100004da4: 23 00 9f 9a 	csel	x3, x1, xzr, eq
100004da8: 6f 3c 1c 9b 	madd	x15, x3, x28, x15
100004dac: 1f 02 0d eb 	cmp	x16, x13
100004db0: e3 17 80 da 	csneg	x3, xzr, x0, ne
100004db4: 6c 30 1c 9b 	madd	x12, x3, x28, x12
100004db8: 5f 0c 0c f1 	cmp	x2, #771
100004dbc: 63 0e 00 54 	b.lo	0x100004f88 <__ZN4core5slice4sort7recurse17h265bfca4c543a56aE+0x714>
100004dc0: 83 01 0f cb 	sub	x3, x12, x15
100004dc4: 62 fc 43 d3 	lsr	x2, x3, #3
100004dc8: 5f 0c 0c f1 	cmp	x2, #771
100004dcc: 63 01 00 54 	b.lo	0x100004df8 <__ZN4core5slice4sort7recurse17h265bfca4c543a56aE+0x584>
100004dd0: 3f 02 0e eb 	cmp	x17, x14
100004dd4: c0 03 00 54 	b.eq	0x100004e4c <__ZN4core5slice4sort7recurse17h265bfca4c543a56aE+0x5d8>
100004dd8: 1f 02 0d eb 	cmp	x16, x13
100004ddc: 40 06 00 54 	b.eq	0x100004ea4 <__ZN4core5slice4sort7recurse17h265bfca4c543a56aE+0x630>
100004de0: c3 01 11 cb 	sub	x3, x14, x17
100004de4: a4 01 10 cb 	sub	x4, x13, x16
100004de8: 7f 00 04 eb 	cmp	x3, x4
100004dec: 63 30 84 9a 	csel	x3, x3, x4, lo
100004df0: 43 08 00 b5 	cbnz	x3, 0x100004ef8 <__ZN4core5slice4sort7recurse17h265bfca4c543a56aE+0x684>
100004df4: eb ff ff 17 	b	0x100004da0 <__ZN4core5slice4sort7recurse17h265bfca4c543a56aE+0x52c>
100004df8: 63 3c 00 12 	and	w3, w3, #0xffff
100004dfc: 63 7c 17 1b 	mul	w3, w3, w23
100004e00: 63 7c 14 53 	lsr	w3, w3, #20
100004e04: 3f 02 0e eb 	cmp	x17, x14
100004e08: e4 27 9f 1a 	cset	w4, lo
100004e0c: 1f 02 0d eb 	cmp	x16, x13
100004e10: e5 27 9f 1a 	cset	w5, lo
100004e14: 84 00 05 2a 	orr	w4, w4, w5
100004e18: 65 00 02 d1 	sub	x5, x3, #128
100004e1c: 9f 00 00 71 	cmp	w4, #0
100004e20: a3 10 83 9a 	csel	x3, x5, x3, ne
100004e24: 3f 02 0e eb 	cmp	x17, x14
100004e28: 60 30 80 9a 	csel	x0, x3, x0, lo
100004e2c: 21 30 83 9a 	csel	x1, x1, x3, lo
100004e30: 65 fc 41 d3 	lsr	x5, x3, #1
100004e34: 63 00 05 cb 	sub	x3, x3, x5
100004e38: 9f 00 00 72 	tst	w4, #0x1
100004e3c: 00 10 83 9a 	csel	x0, x0, x3, ne
100004e40: 21 10 85 9a 	csel	x1, x1, x5, ne
100004e44: 3f 02 0e eb 	cmp	x17, x14
100004e48: 81 fc ff 54 	b.ne	0x100004dd8 <__ZN4core5slice4sort7recurse17h265bfca4c543a56aE+0x564>
100004e4c: 41 02 00 b4 	cbz	x1, 0x100004e94 <__ZN4core5slice4sort7recurse17h265bfca4c543a56aE+0x620>
100004e50: 03 00 80 d2 	mov	x3, #0
100004e54: ee c3 00 91 	add	x14, sp, #48
100004e58: f1 03 0f aa 	mov	x17, x15
100004e5c: e4 03 0e aa 	mov	x4, x14
100004e60: 83 14 00 38 	strb	w3, [x4], #1
100004e64: 65 04 00 91 	add	x5, x3, #1
100004e68: 23 0a 40 f9 	ldr	x3, [x17, #16]
100004e6c: 7f 00 0a eb 	cmp	x3, x10
100004e70: ce 31 84 9a 	csel	x14, x14, x4, lo
100004e74: 31 62 00 91 	add	x17, x17, #24
100004e78: e3 03 05 aa 	mov	x3, x5
100004e7c: 3f 00 05 eb 	cmp	x1, x5
100004e80: e1 fe ff 54 	b.ne	0x100004e5c <__ZN4core5slice4sort7recurse17h265bfca4c543a56aE+0x5e8>
100004e84: f1 c3 00 91 	add	x17, sp, #48
100004e88: 1f 02 0d eb 	cmp	x16, x13
100004e8c: a1 fa ff 54 	b.ne	0x100004de0 <__ZN4core5slice4sort7recurse17h265bfca4c543a56aE+0x56c>
100004e90: 05 00 00 14 	b	0x100004ea4 <__ZN4core5slice4sort7recurse17h265bfca4c543a56aE+0x630>
100004e94: ee c3 00 91 	add	x14, sp, #48
100004e98: f1 c3 00 91 	add	x17, sp, #48
100004e9c: 1f 02 0d eb 	cmp	x16, x13
100004ea0: 01 fa ff 54 	b.ne	0x100004de0 <__ZN4core5slice4sort7recurse17h265bfca4c543a56aE+0x56c>
100004ea4: c0 01 00 b4 	cbz	x0, 0x100004edc <__ZN4core5slice4sort7recurse17h265bfca4c543a56aE+0x668>
100004ea8: 03 00 80 d2 	mov	x3, #0
100004eac: 90 21 00 d1 	sub	x16, x12, #8
100004eb0: ed c3 02 91 	add	x13, sp, #176
100004eb4: e4 03 0d aa 	mov	x4, x13
100004eb8: 83 14 00 38 	strb	w3, [x4], #1
100004ebc: 65 04 00 91 	add	x5, x3, #1
100004ec0: 03 86 5e f8 	ldr	x3, [x16], #-24
100004ec4: 7f 00 0a eb 	cmp	x3, x10
100004ec8: ad 21 84 9a 	csel	x13, x13, x4, hs
100004ecc: e3 03 05 aa 	mov	x3, x5
100004ed0: 1f 00 05 eb 	cmp	x0, x5
100004ed4: 01 ff ff 54 	b.ne	0x100004eb4 <__ZN4core5slice4sort7recurse17h265bfca4c543a56aE+0x640>
100004ed8: 02 00 00 14 	b	0x100004ee0 <__ZN4core5slice4sort7recurse17h265bfca4c543a56aE+0x66c>
100004edc: ed c3 02 91 	add	x13, sp, #176
100004ee0: f0 c3 02 91 	add	x16, sp, #176
100004ee4: c3 01 11 cb 	sub	x3, x14, x17
100004ee8: a4 01 10 cb 	sub	x4, x13, x16
100004eec: 7f 00 04 eb 	cmp	x3, x4
100004ef0: 63 30 84 9a 	csel	x3, x3, x4, lo
100004ef4: 63 f5 ff b4 	cbz	x3, 0x100004da0 <__ZN4core5slice4sort7recurse17h265bfca4c543a56aE+0x52c>
100004ef8: 24 02 40 39 	ldrb	w4, [x17]
100004efc: 84 3c 1c 9b 	madd	x4, x4, x28, x15
100004f00: 80 00 c0 3d 	ldr	q0, [x4]
100004f04: 84 08 40 f9 	ldr	x4, [x4, #16]
100004f08: a4 03 1a f8 	stur	x4, [x29, #-96]
100004f0c: a0 03 99 3c 	stur	q0, [x29, #-112]
100004f10: 05 02 40 39 	ldrb	w5, [x16]
100004f14: e4 03 25 aa 	mvn	x4, x5
100004f18: 86 30 1c 9b 	madd	x6, x4, x28, x12
100004f1c: 27 02 40 39 	ldrb	w7, [x17]
100004f20: e7 3c 1c 9b 	madd	x7, x7, x28, x15
100004f24: d4 08 40 f9 	ldr	x20, [x6, #16]
100004f28: c0 00 c0 3d 	ldr	q0, [x6]
100004f2c: e0 00 80 3d 	str	q0, [x7]
100004f30: f4 08 00 f9 	str	x20, [x7, #16]
100004f34: 63 04 00 f1 	subs	x3, x3, #1
100004f38: 60 f2 ff 54 	b.eq	0x100004d84 <__ZN4core5slice4sort7recurse17h265bfca4c543a56aE+0x510>
100004f3c: 24 1e 40 38 	ldrb	w4, [x17, #1]!
100004f40: 86 3c 1c 9b 	madd	x6, x4, x28, x15
100004f44: e4 03 25 2a 	mvn	w4, w5
100004f48: 84 dc 78 b2 	orr	x4, x4, #0xffffffffffffff00
100004f4c: 84 30 1c 9b 	madd	x4, x4, x28, x12
100004f50: c5 08 40 f9 	ldr	x5, [x6, #16]
100004f54: c0 00 c0 3d 	ldr	q0, [x6]
100004f58: 80 00 80 3d 	str	q0, [x4]
100004f5c: 85 08 00 f9 	str	x5, [x4, #16]
100004f60: 05 1e 40 38 	ldrb	w5, [x16, #1]!
100004f64: e4 03 25 aa 	mvn	x4, x5
100004f68: 87 30 1c 9b 	madd	x7, x4, x28, x12
100004f6c: f4 08 40 f9 	ldr	x20, [x7, #16]
100004f70: e0 00 c0 3d 	ldr	q0, [x7]
100004f74: c0 00 80 3d 	str	q0, [x6]
100004f78: d4 08 00 f9 	str	x20, [x6, #16]
100004f7c: 63 04 00 f1 	subs	x3, x3, #1
100004f80: e1 fd ff 54 	b.ne	0x100004f3c <__ZN4core5slice4sort7recurse17h265bfca4c543a56aE+0x6c8>
100004f84: 80 ff ff 17 	b	0x100004d84 <__ZN4core5slice4sort7recurse17h265bfca4c543a56aE+0x510>
100004f88: 3f 02 0e eb 	cmp	x17, x14
100004f8c: e2 07 00 54 	b.hs	0x100005088 <__ZN4core5slice4sort7recurse17h265bfca4c543a56aE+0x814>
100004f90: ca fd 5f 38 	ldrb	w10, [x14, #-1]!
100004f94: 4d 3d 1c 9b 	madd	x13, x10, x28, x15
100004f98: 8a 61 00 d1 	sub	x10, x12, #24
100004f9c: a0 01 c0 3d 	ldr	q0, [x13]
100004fa0: b0 09 40 f9 	ldr	x16, [x13, #16]
100004fa4: b0 03 1a f8 	stur	x16, [x29, #-96]
100004fa8: a0 03 99 3c 	stur	q0, [x29, #-112]
100004fac: 80 81 de 3c 	ldur	q0, [x12, #-24]
100004fb0: 90 81 5f f8 	ldur	x16, [x12, #-8]
100004fb4: b0 09 00 f9 	str	x16, [x13, #16]
100004fb8: a0 01 80 3d 	str	q0, [x13]
100004fbc: a0 03 d9 3c 	ldur	q0, [x29, #-112]
100004fc0: ad 03 5a f8 	ldur	x13, [x29, #-96]
100004fc4: 8d 81 1f f8 	stur	x13, [x12, #-8]
100004fc8: 80 81 9e 3c 	stur	q0, [x12, #-24]
100004fcc: ec 03 0a aa 	mov	x12, x10
100004fd0: 3f 02 0e eb 	cmp	x17, x14
100004fd4: e3 fd ff 54 	b.lo	0x100004f90 <__ZN4core5slice4sort7recurse17h265bfca4c543a56aE+0x71c>
100004fd8: 4a 01 0b cb 	sub	x10, x10, x11
100004fdc: eb f3 01 b2 	mov	x11, #-6148914691236517206
100004fe0: 6b 55 95 f2 	movk	x11, #43691
100004fe4: 4a 7d cb 9b 	umulh	x10, x10, x11
100004fe8: e0 07 c0 3d 	ldr	q0, [sp, #16]
100004fec: eb 13 40 f9 	ldr	x11, [sp, #32]
100004ff0: 1a 11 4a 8b 	add	x26, x8, x10, lsr #4
100004ff4: 6b 0a 00 f9 	str	x11, [x19, #16]
100004ff8: 60 02 80 3d 	str	q0, [x19]
100004ffc: ca 03 1a eb 	subs	x10, x30, x26
100005000: 29 0a 00 54 	b.ls	0x100005144 <__ZN4core5slice4sort7recurse17h265bfca4c543a56aE+0x8d0>
100005004: 3f 01 08 eb 	cmp	x9, x8
100005008: f4 87 9f 1a 	cset	w20, ls
10000500c: 58 4f 1c 9b 	madd	x24, x26, x28, x19
100005010: 60 02 c0 3d 	ldr	q0, [x19]
100005014: 68 0a 40 f9 	ldr	x8, [x19, #16]
100005018: e8 63 00 f9 	str	x8, [sp, #192]
10000501c: e0 2f 80 3d 	str	q0, [sp, #176]
100005020: 00 03 c0 3d 	ldr	q0, [x24]
100005024: 08 0b 40 f9 	ldr	x8, [x24, #16]
100005028: 68 0a 00 f9 	str	x8, [x19, #16]
10000502c: 60 02 80 3d 	str	q0, [x19]
100005030: e0 2f c0 3d 	ldr	q0, [sp, #176]
100005034: e8 63 40 f9 	ldr	x8, [sp, #192]
100005038: 08 0b 00 f9 	str	x8, [x24, #16]
10000503c: 00 03 80 3d 	str	q0, [x24]
100005040: 5f 03 0a eb 	cmp	x26, x10
100005044: 48 33 8a 9a 	csel	x8, x26, x10, lo
100005048: 1f 0d 5e eb 	cmp	x8, x30, lsr #3
10000504c: fb 37 9f 1a 	cset	w27, hs
100005050: 17 63 00 91 	add	x23, x24, #24
100005054: 59 05 00 d1 	sub	x25, x10, #1
100005058: 5f 03 19 eb 	cmp	x26, x25
10000505c: 02 04 00 54 	b.hs	0x1000050dc <__ZN4core5slice4sort7recurse17h265bfca4c543a56aE+0x868>
100005060: e0 03 13 aa 	mov	x0, x19
100005064: e1 03 1a aa 	mov	x1, x26
100005068: e2 07 40 f9 	ldr	x2, [sp, #8]
10000506c: e3 03 16 aa 	mov	x3, x22
100005070: e4 03 15 aa 	mov	x4, x21
100005074: 00 fe ff 97 	bl	0x100004874 <__ZN4core5slice4sort7recurse17h265bfca4c543a56aE>
100005078: f6 03 18 aa 	mov	x22, x24
10000507c: fa 03 19 aa 	mov	x26, x25
100005080: f3 03 17 aa 	mov	x19, x23
100005084: 1c 00 00 14 	b	0x1000050f4 <__ZN4core5slice4sort7recurse17h265bfca4c543a56aE+0x880>
100005088: ea 03 0f aa 	mov	x10, x15
10000508c: 1f 02 0d eb 	cmp	x16, x13
100005090: 42 fa ff 54 	b.hs	0x100004fd8 <__ZN4core5slice4sort7recurse17h265bfca4c543a56aE+0x764>
100005094: ae fd 5f 38 	ldrb	w14, [x13, #-1]!
100005098: ee 03 2e aa 	mvn	x14, x14
10000509c: ce 31 1c 9b 	madd	x14, x14, x28, x12
1000050a0: 40 01 c0 3d 	ldr	q0, [x10]
1000050a4: 4f 09 40 f9 	ldr	x15, [x10, #16]
1000050a8: af 03 1a f8 	stur	x15, [x29, #-96]
1000050ac: a0 03 99 3c 	stur	q0, [x29, #-112]
1000050b0: c0 01 c0 3d 	ldr	q0, [x14]
1000050b4: cf 09 40 f9 	ldr	x15, [x14, #16]
1000050b8: 4f 09 00 f9 	str	x15, [x10, #16]
1000050bc: 40 85 81 3c 	str	q0, [x10], #24
1000050c0: a0 03 d9 3c 	ldur	q0, [x29, #-112]
1000050c4: af 03 5a f8 	ldur	x15, [x29, #-96]
1000050c8: cf 09 00 f9 	str	x15, [x14, #16]
1000050cc: c0 01 80 3d 	str	q0, [x14]
1000050d0: 1f 02 0d eb 	cmp	x16, x13
1000050d4: 03 fe ff 54 	b.lo	0x100005094 <__ZN4core5slice4sort7recurse17h265bfca4c543a56aE+0x820>
1000050d8: c0 ff ff 17 	b	0x100004fd8 <__ZN4core5slice4sort7recurse17h265bfca4c543a56aE+0x764>
1000050dc: e0 03 17 aa 	mov	x0, x23
1000050e0: e1 03 19 aa 	mov	x1, x25
1000050e4: e2 07 40 f9 	ldr	x2, [sp, #8]
1000050e8: e3 03 18 aa 	mov	x3, x24
1000050ec: e4 03 15 aa 	mov	x4, x21
1000050f0: e1 fd ff 97 	bl	0x100004874 <__ZN4core5slice4sort7recurse17h265bfca4c543a56aE>
1000050f4: fe 03 1a aa 	mov	x30, x26
1000050f8: f8 03 13 aa 	mov	x24, x19
1000050fc: 5f 57 00 f1 	cmp	x26, #21
100005100: 21 00 80 52 	mov	w1, #1
100005104: e2 f3 7d b2 	orr	x2, xzr, #0xfffffffffffffff8
100005108: e2 bf ff 54 	b.hs	0x100004904 <__ZN4core5slice4sort7recurse17h265bfca4c543a56aE+0x90>
10000510c: e9 fd ff 17 	b	0x1000048b0 <__ZN4core5slice4sort7recurse17h265bfca4c543a56aE+0x3c>
100005110: e0 03 18 aa 	mov	x0, x24
100005114: e1 03 19 aa 	mov	x1, x25
100005118: e2 07 40 f9 	ldr	x2, [sp, #8]
10000511c: 3e ae 00 94 	bl	0x100030a14 <__ZN4core5slice4sort8heapsort17hc86720678758cd54E>
100005120: ea fd ff 17 	b	0x1000048c8 <__ZN4core5slice4sort7recurse17h265bfca4c543a56aE+0x54>
100005124: 22 9c 1d 10 	adr	x2, #242564
100005128: 1f 20 03 d5 	nop
10000512c: e0 03 1a aa 	mov	x0, x26
100005130: e1 03 19 aa 	mov	x1, x25
100005134: 84 b3 00 94 	bl	0x100031f44 <__ZN4core9panicking18panic_bounds_check17hde809934b70194daE>
100005138: 42 9f 1d 10 	adr	x2, #242664
10000513c: 1f 20 03 d5 	nop
100005140: 03 00 00 14 	b	0x10000514c <__ZN4core5slice4sort7recurse17h265bfca4c543a56aE+0x8d8>
100005144: 62 a0 1d 10 	adr	x2, #242700
100005148: 1f 20 03 d5 	nop
10000514c: e0 03 1a aa 	mov	x0, x26
100005150: e1 03 1e aa 	mov	x1, x30
100005154: 7c b3 00 94 	bl	0x100031f44 <__ZN4core9panicking18panic_bounds_check17hde809934b70194daE>
100005158: 42 9b 1d 10 	adr	x2, #242536
10000515c: 1f 20 03 d5 	nop
100005160: e1 03 19 aa 	mov	x1, x25
100005164: f7 b3 00 94 	bl	0x100032140 <__ZN4core5slice5index26slice_start_index_len_fail17hcb4c139efae7a177E>
100005168: 82 9e 1d 10 	adr	x2, #242640
10000516c: 1f 20 03 d5 	nop
100005170: e0 03 09 aa 	mov	x0, x9
100005174: f6 b3 00 94 	bl	0x10003214c <__ZN4core5slice5index24slice_end_index_len_fail17hce3cc2869df0d02eE>
100005178: 06 00 00 14 	b	0x100005190 <__ZN4core5slice4sort7recurse17h265bfca4c543a56aE+0x91c>
10000517c: e2 9d 1d 10 	adr	x2, #242620
100005180: 1f 20 03 d5 	nop
100005184: e0 03 08 aa 	mov	x0, x8
100005188: e1 03 09 aa 	mov	x1, x9
10000518c: f3 b3 00 94 	bl	0x100032158 <__ZN4core5slice5index22slice_index_order_fail17ha9b9b040cb1bc5afE>
100005190: 20 00 20 d4 	brk	#0x1
100005194: f4 03 00 aa 	mov	x20, x0
100005198: e0 43 00 91 	add	x0, sp, #16
10000519c: e1 03 13 aa 	mov	x1, x19
1000051a0: 6b fa ff 97 	bl	0x100003b4c <__ZN4core3ptr91drop_in_place$LT$core..slice..sort..InsertionHole$LT$$LP$$RF$$u5b$u8$u5d$$C$u64$RP$$GT$$GT$17h4818ebefe307fe99E>
1000051a4: e0 03 14 aa 	mov	x0, x20
1000051a8: 1b b4 00 94 	bl	0x100032214 <_writev+0x100032214>

00000001000051ac <__ZN4core5slice4sort7recurse17hb1a071468e62ae23E>:
1000051ac: ff 43 07 d1 	sub	sp, sp, #464
1000051b0: fc 6f 17 a9 	stp	x28, x27, [sp, #368]
1000051b4: fa 67 18 a9 	stp	x26, x25, [sp, #384]
1000051b8: f8 5f 19 a9 	stp	x24, x23, [sp, #400]
1000051bc: f6 57 1a a9 	stp	x22, x21, [sp, #416]
1000051c0: f4 4f 1b a9 	stp	x20, x19, [sp, #432]
1000051c4: fd 7b 1c a9 	stp	x29, x30, [sp, #448]
1000051c8: fd 03 07 91 	add	x29, sp, #448
1000051cc: e2 07 00 f9 	str	x2, [sp, #8]
1000051d0: f7 03 01 aa 	mov	x23, x1
1000051d4: f3 03 00 aa 	mov	x19, x0
1000051d8: 3f 54 00 f1 	cmp	x1, #21
1000051dc: 22 02 00 54 	b.hs	0x100005220 <__ZN4core5slice4sort7recurse17hb1a071468e62ae23E+0x74>
1000051e0: fa 03 17 aa 	mov	x26, x23
1000051e4: f8 03 13 aa 	mov	x24, x19
1000051e8: 5f 0b 00 f1 	cmp	x26, #2
1000051ec: a3 00 00 54 	b.lo	0x100005200 <__ZN4core5slice4sort7recurse17hb1a071468e62ae23E+0x54>
1000051f0: e0 03 18 aa 	mov	x0, x24
1000051f4: e1 03 1a aa 	mov	x1, x26
1000051f8: 22 00 80 52 	mov	w2, #1
1000051fc: 0e fb ff 97 	bl	0x100003e34 <__ZN4core5slice4sort25insertion_sort_shift_left17h04283fe6702d5c84E>
100005200: fd 7b 5c a9 	ldp	x29, x30, [sp, #448]
100005204: f4 4f 5b a9 	ldp	x20, x19, [sp, #432]
100005208: f6 57 5a a9 	ldp	x22, x21, [sp, #416]
10000520c: f8 5f 59 a9 	ldp	x24, x23, [sp, #400]
100005210: fa 67 58 a9 	ldp	x26, x25, [sp, #384]
100005214: fc 6f 57 a9 	ldp	x28, x27, [sp, #368]
100005218: ff 43 07 91 	add	sp, sp, #464
10000521c: c0 03 5f d6 	ret
100005220: f5 03 04 aa 	mov	x21, x4
100005224: f6 03 03 aa 	mov	x22, x3
100005228: 21 00 80 52 	mov	w1, #1
10000522c: 1c 05 80 52 	mov	w28, #40
100005230: 3b 00 80 52 	mov	w27, #1
100005234: 34 00 80 52 	mov	w20, #1
100005238: 74 03 14 0a 	and	w20, w27, w20
10000523c: f8 03 13 aa 	mov	x24, x19
100005240: f9 03 17 aa 	mov	x25, x23
100005244: 75 41 00 34 	cbz	w21, 0x100005a70 <__ZN4core5slice4sort7recurse17hb1a071468e62ae23E+0x8c4>
100005248: 1b 08 00 36 	tbz	w27, #0, 0x100005348 <__ZN4core5slice4sort7recurse17hb1a071468e62ae23E+0x19c>
10000524c: 29 ff 42 d3 	lsr	x9, x25, #2
100005250: 2a f9 7f d3 	lsl	x10, x9, #1
100005254: 48 01 09 8b 	add	x8, x10, x9
100005258: 3f c7 00 f1 	cmp	x25, #49
10000525c: a9 08 00 54 	b.ls	0x100005370 <__ZN4core5slice4sort7recurse17hb1a071468e62ae23E+0x1c4>
100005260: 2b 05 00 d1 	sub	x11, x9, #1
100005264: 2c 05 00 91 	add	x12, x9, #1
100005268: 2d 61 1c 9b 	madd	x13, x9, x28, x24
10000526c: ae 09 40 f9 	ldr	x14, [x13, #16]
100005270: af 81 5e f8 	ldur	x15, [x13, #-24]
100005274: df 01 0f eb 	cmp	x14, x15
100005278: f0 21 8e 9a 	csel	x16, x15, x14, hs
10000527c: f1 23 81 9a 	csel	x17, xzr, x1, hs
100005280: 20 21 8b 9a 	csel	x0, x9, x11, hs
100005284: 69 21 89 9a 	csel	x9, x11, x9, hs
100005288: cb 21 8f 9a 	csel	x11, x14, x15, hs
10000528c: ad 1d 40 f9 	ldr	x13, [x13, #56]
100005290: bf 01 0b eb 	cmp	x13, x11
100005294: 8c 31 80 9a 	csel	x12, x12, x0, lo
100005298: 2e 26 91 9a 	cinc	x14, x17, lo
10000529c: ab 31 8b 9a 	csel	x11, x13, x11, lo
1000052a0: 7f 01 10 eb 	cmp	x11, x16
1000052a4: 29 31 8c 9a 	csel	x9, x9, x12, lo
1000052a8: cb 25 8e 9a 	cinc	x11, x14, lo
1000052ac: 4c 05 00 d1 	sub	x12, x10, #1
1000052b0: 4d 01 40 b2 	orr	x13, x10, #0x1
1000052b4: 4e 61 1c 9b 	madd	x14, x10, x28, x24
1000052b8: cf 09 40 f9 	ldr	x15, [x14, #16]
1000052bc: d0 81 5e f8 	ldur	x16, [x14, #-24]
1000052c0: ff 01 10 eb 	cmp	x15, x16
1000052c4: 11 22 8f 9a 	csel	x17, x16, x15, hs
1000052c8: 6b 25 8b 9a 	cinc	x11, x11, lo
1000052cc: 40 21 8c 9a 	csel	x0, x10, x12, hs
1000052d0: 8a 21 8a 9a 	csel	x10, x12, x10, hs
1000052d4: ec 21 90 9a 	csel	x12, x15, x16, hs
1000052d8: ce 1d 40 f9 	ldr	x14, [x14, #56]
1000052dc: df 01 0c eb 	cmp	x14, x12
1000052e0: ad 31 80 9a 	csel	x13, x13, x0, lo
1000052e4: 6b 25 8b 9a 	cinc	x11, x11, lo
1000052e8: cc 31 8c 9a 	csel	x12, x14, x12, lo
1000052ec: 9f 01 11 eb 	cmp	x12, x17
1000052f0: 4a 31 8d 9a 	csel	x10, x10, x13, lo
1000052f4: 6b 25 8b 9a 	cinc	x11, x11, lo
1000052f8: 0c 05 00 d1 	sub	x12, x8, #1
1000052fc: 0d 05 00 91 	add	x13, x8, #1
100005300: 0e 61 1c 9b 	madd	x14, x8, x28, x24
100005304: cf 09 40 f9 	ldr	x15, [x14, #16]
100005308: d0 81 5e f8 	ldur	x16, [x14, #-24]
10000530c: ff 01 10 eb 	cmp	x15, x16
100005310: 11 22 8f 9a 	csel	x17, x16, x15, hs
100005314: 6b 25 8b 9a 	cinc	x11, x11, lo
100005318: 00 21 8c 9a 	csel	x0, x8, x12, hs
10000531c: 88 21 88 9a 	csel	x8, x12, x8, hs
100005320: ec 21 90 9a 	csel	x12, x15, x16, hs
100005324: ce 1d 40 f9 	ldr	x14, [x14, #56]
100005328: df 01 0c eb 	cmp	x14, x12
10000532c: ad 31 80 9a 	csel	x13, x13, x0, lo
100005330: 6b 25 8b 9a 	cinc	x11, x11, lo
100005334: cc 31 8c 9a 	csel	x12, x14, x12, lo
100005338: 9f 01 11 eb 	cmp	x12, x17
10000533c: 08 31 8d 9a 	csel	x8, x8, x13, lo
100005340: 6b 25 8b 9a 	cinc	x11, x11, lo
100005344: 0c 00 00 14 	b	0x100005374 <__ZN4core5slice4sort7recurse17hb1a071468e62ae23E+0x1c8>
100005348: e0 03 18 aa 	mov	x0, x24
10000534c: e1 03 19 aa 	mov	x1, x25
100005350: a8 a8 00 94 	bl	0x10002f5f0 <__ZN4core5slice4sort14break_patterns17hff2433cdc7cecfacE>
100005354: 21 00 80 52 	mov	w1, #1
100005358: b5 06 00 51 	sub	w21, w21, #1
10000535c: 29 ff 42 d3 	lsr	x9, x25, #2
100005360: 2a f9 7f d3 	lsl	x10, x9, #1
100005364: 48 01 09 8b 	add	x8, x10, x9
100005368: 3f c7 00 f1 	cmp	x25, #49
10000536c: a8 f7 ff 54 	b.hi	0x100005260 <__ZN4core5slice4sort7recurse17hb1a071468e62ae23E+0xb4>
100005370: 0b 00 80 d2 	mov	x11, #0
100005374: 4c 61 1c 9b 	madd	x12, x10, x28, x24
100005378: 8c 09 40 f9 	ldr	x12, [x12, #16]
10000537c: 2d 61 1c 9b 	madd	x13, x9, x28, x24
100005380: ad 09 40 f9 	ldr	x13, [x13, #16]
100005384: 9f 01 0d eb 	cmp	x12, x13
100005388: ae 21 8c 9a 	csel	x14, x13, x12, hs
10000538c: 6b 25 8b 9a 	cinc	x11, x11, lo
100005390: 4f 21 89 9a 	csel	x15, x10, x9, hs
100005394: 3a 21 8a 9a 	csel	x26, x9, x10, hs
100005398: 8a 21 8d 9a 	csel	x10, x12, x13, hs
10000539c: 09 61 1c 9b 	madd	x9, x8, x28, x24
1000053a0: 2c 09 40 f9 	ldr	x12, [x9, #16]
1000053a4: 9f 01 0a eb 	cmp	x12, x10
1000053a8: 09 31 8f 9a 	csel	x9, x8, x15, lo
1000053ac: 68 25 8b 9a 	cinc	x8, x11, lo
1000053b0: 8a 31 8a 9a 	csel	x10, x12, x10, lo
1000053b4: 5f 01 0e eb 	cmp	x10, x14
1000053b8: 22 01 00 54 	b.hs	0x1000053dc <__ZN4core5slice4sort7recurse17hb1a071468e62ae23E+0x230>
1000053bc: 1f 2d 00 f1 	cmp	x8, #11
1000053c0: a2 01 00 54 	b.hs	0x1000053f4 <__ZN4core5slice4sort7recurse17hb1a071468e62ae23E+0x248>
1000053c4: 08 05 00 91 	add	x8, x8, #1
1000053c8: 1f 01 00 f1 	cmp	x8, #0
1000053cc: e8 17 9f 1a 	cset	w8, eq
1000053d0: 88 02 08 0a 	and	w8, w20, w8
1000053d4: 28 04 00 36 	tbz	w8, #0, 0x100005458 <__ZN4core5slice4sort7recurse17hb1a071468e62ae23E+0x2ac>
1000053d8: 74 00 00 14 	b	0x1000055a8 <__ZN4core5slice4sort7recurse17hb1a071468e62ae23E+0x3fc>
1000053dc: fa 03 09 aa 	mov	x26, x9
1000053e0: 1f 01 00 f1 	cmp	x8, #0
1000053e4: e8 17 9f 1a 	cset	w8, eq
1000053e8: 88 02 08 0a 	and	w8, w20, w8
1000053ec: 68 03 00 36 	tbz	w8, #0, 0x100005458 <__ZN4core5slice4sort7recurse17hb1a071468e62ae23E+0x2ac>
1000053f0: 6e 00 00 14 	b	0x1000055a8 <__ZN4core5slice4sort7recurse17hb1a071468e62ae23E+0x3fc>
1000053f4: 08 00 80 d2 	mov	x8, #0
1000053f8: 29 ff 41 d3 	lsr	x9, x25, #1
1000053fc: 2a 0b 19 8b 	add	x10, x25, x25, lsl #2
100005400: 4a f1 7d d3 	lsl	x10, x10, #3
100005404: 0b 03 0a 8b 	add	x11, x24, x10
100005408: 6c 81 5d f8 	ldur	x12, [x11, #-40]
10000540c: 0d 03 08 8b 	add	x13, x24, x8
100005410: a0 05 40 ad 	ldp	q0, q1, [x13]
100005414: 62 0d 7f ad 	ldp	q2, q3, [x11, #-32]
100005418: 60 81 9d 3c 	stur	q0, [x11, #-40]
10000541c: ac 01 00 f9 	str	x12, [x13]
100005420: a2 81 80 3c 	stur	q2, [x13, #8]
100005424: ac 11 40 f9 	ldr	x12, [x13, #32]
100005428: 61 81 9e 3c 	stur	q1, [x11, #-24]
10000542c: a3 81 81 3c 	stur	q3, [x13, #24]
100005430: 6c 81 1f f8 	stur	x12, [x11, #-8]
100005434: 08 a1 00 91 	add	x8, x8, #40
100005438: 4a a1 00 d1 	sub	x10, x10, #40
10000543c: 29 05 00 d1 	sub	x9, x9, #1
100005440: 29 fe ff b5 	cbnz	x9, 0x100005404 <__ZN4core5slice4sort7recurse17hb1a071468e62ae23E+0x258>
100005444: e8 03 3a aa 	mvn	x8, x26
100005448: 3a 03 08 8b 	add	x26, x25, x8
10000544c: 28 00 80 52 	mov	w8, #1
100005450: 88 02 08 0a 	and	w8, w20, w8
100005454: a8 0a 00 37 	tbnz	w8, #0, 0x1000055a8 <__ZN4core5slice4sort7recurse17hb1a071468e62ae23E+0x3fc>
100005458: 96 0b 00 b4 	cbz	x22, 0x1000055c8 <__ZN4core5slice4sort7recurse17hb1a071468e62ae23E+0x41c>
10000545c: 5f 03 19 eb 	cmp	x26, x25
100005460: 22 31 00 54 	b.hs	0x100005a84 <__ZN4core5slice4sort7recurse17hb1a071468e62ae23E+0x8d8>
100005464: 49 63 1c 9b 	madd	x9, x26, x28, x24
100005468: c8 0a 40 f9 	ldr	x8, [x22, #16]
10000546c: 2a 09 40 f9 	ldr	x10, [x9, #16]
100005470: 1f 01 0a eb 	cmp	x8, x10
100005474: 63 0a 00 54 	b.lo	0x1000055c0 <__ZN4core5slice4sort7recurse17hb1a071468e62ae23E+0x414>
100005478: 08 00 80 d2 	mov	x8, #0
10000547c: 00 07 40 ad 	ldp	q0, q1, [x24]
100005480: 0a 13 40 f9 	ldr	x10, [x24, #32]
100005484: ea 73 00 f9 	str	x10, [sp, #224]
100005488: e0 07 06 ad 	stp	q0, q1, [sp, #192]
10000548c: 2a 11 40 f9 	ldr	x10, [x9, #32]
100005490: 20 05 40 ad 	ldp	q0, q1, [x9]
100005494: 0a 13 00 f9 	str	x10, [x24, #32]
100005498: 00 07 00 ad 	stp	q0, q1, [x24]
10000549c: e0 07 46 ad 	ldp	q0, q1, [sp, #192]
1000054a0: ea 73 40 f9 	ldr	x10, [sp, #224]
1000054a4: 2a 11 00 f9 	str	x10, [x9, #32]
1000054a8: 20 05 00 ad 	stp	q0, q1, [x9]
1000054ac: 0b a3 00 91 	add	x11, x24, #40
1000054b0: 09 0b 40 f9 	ldr	x9, [x24, #16]
1000054b4: 0a 63 00 91 	add	x10, x24, #24
1000054b8: 00 03 c0 3d 	ldr	q0, [x24]
1000054bc: e0 13 80 3d 	str	q0, [sp, #64]
1000054c0: 00 83 c1 3c 	ldur	q0, [x24, #24]
1000054c4: a0 03 98 3c 	stur	q0, [x29, #-128]
1000054c8: 0c e3 00 91 	add	x12, x24, #56
1000054cc: ed 03 19 aa 	mov	x13, x25
1000054d0: 2e 07 00 d1 	sub	x14, x25, #1
1000054d4: 1f 01 0e eb 	cmp	x8, x14
1000054d8: 42 01 00 54 	b.hs	0x100005500 <__ZN4core5slice4sort7recurse17hb1a071468e62ae23E+0x354>
1000054dc: 0f 31 1c 9b 	madd	x15, x8, x28, x12
1000054e0: f0 01 40 f9 	ldr	x16, [x15]
1000054e4: 3f 01 10 eb 	cmp	x9, x16
1000054e8: c3 00 00 54 	b.lo	0x100005500 <__ZN4core5slice4sort7recurse17hb1a071468e62ae23E+0x354>
1000054ec: 08 05 00 91 	add	x8, x8, #1
1000054f0: ef a1 00 91 	add	x15, x15, #40
1000054f4: df 01 08 eb 	cmp	x14, x8
1000054f8: 41 ff ff 54 	b.ne	0x1000054e0 <__ZN4core5slice4sort7recurse17hb1a071468e62ae23E+0x334>
1000054fc: e8 03 0e aa 	mov	x8, x14
100005500: ae 7d 1c 9b 	mul	x14, x13, x28
100005504: ce 61 00 d1 	sub	x14, x14, #24
100005508: ad 05 00 d1 	sub	x13, x13, #1
10000550c: 1f 01 0d eb 	cmp	x8, x13
100005510: 02 03 00 54 	b.hs	0x100005570 <__ZN4core5slice4sort7recurse17hb1a071468e62ae23E+0x3c4>
100005514: 0f 6b 6e f8 	ldr	x15, [x24, x14]
100005518: ce a1 00 d1 	sub	x14, x14, #40
10000551c: 3f 01 0f eb 	cmp	x9, x15
100005520: 43 ff ff 54 	b.lo	0x100005508 <__ZN4core5slice4sort7recurse17hb1a071468e62ae23E+0x35c>
100005524: 0e 2d 1c 9b 	madd	x14, x8, x28, x11
100005528: c0 05 40 ad 	ldp	q0, q1, [x14]
10000552c: cf 11 40 f9 	ldr	x15, [x14, #32]
100005530: ef 73 00 f9 	str	x15, [sp, #224]
100005534: af 61 1c 9b 	madd	x15, x13, x28, x24
100005538: e0 07 06 ad 	stp	q0, q1, [sp, #192]
10000553c: f0 11 40 f9 	ldr	x16, [x15, #32]
100005540: e0 05 40 ad 	ldp	q0, q1, [x15]
100005544: d0 11 00 f9 	str	x16, [x14, #32]
100005548: c0 05 00 ad 	stp	q0, q1, [x14]
10000554c: e0 07 46 ad 	ldp	q0, q1, [sp, #192]
100005550: ee 73 40 f9 	ldr	x14, [sp, #224]
100005554: ee 11 00 f9 	str	x14, [x15, #32]
100005558: e0 05 00 ad 	stp	q0, q1, [x15]
10000555c: 08 05 00 91 	add	x8, x8, #1
100005560: ae 05 00 d1 	sub	x14, x13, #1
100005564: 1f 01 0e eb 	cmp	x8, x14
100005568: a3 fb ff 54 	b.lo	0x1000054dc <__ZN4core5slice4sort7recurse17hb1a071468e62ae23E+0x330>
10000556c: e5 ff ff 17 	b	0x100005500 <__ZN4core5slice4sort7recurse17hb1a071468e62ae23E+0x354>
100005570: 00 05 00 91 	add	x0, x8, #1
100005574: e0 13 c0 3d 	ldr	q0, [sp, #64]
100005578: 00 03 80 3d 	str	q0, [x24]
10000557c: 09 0b 00 f9 	str	x9, [x24, #16]
100005580: a0 03 d8 3c 	ldur	q0, [x29, #-128]
100005584: 40 01 80 3d 	str	q0, [x10]
100005588: 3a 03 00 eb 	subs	x26, x25, x0
10000558c: 63 29 00 54 	b.lo	0x100005ab8 <__ZN4core5slice4sort7recurse17hb1a071468e62ae23E+0x90c>
100005590: 08 61 1c 9b 	madd	x8, x8, x28, x24
100005594: 18 a1 00 91 	add	x24, x8, #40
100005598: f9 03 1a aa 	mov	x25, x26
10000559c: 5f 57 00 f1 	cmp	x26, #21
1000055a0: 22 e5 ff 54 	b.hs	0x100005244 <__ZN4core5slice4sort7recurse17hb1a071468e62ae23E+0x98>
1000055a4: 11 ff ff 17 	b	0x1000051e8 <__ZN4core5slice4sort7recurse17hb1a071468e62ae23E+0x3c>
1000055a8: e0 03 18 aa 	mov	x0, x24
1000055ac: e1 03 19 aa 	mov	x1, x25
1000055b0: 1a ab 00 94 	bl	0x100030218 <__ZN4core5slice4sort22partial_insertion_sort17he50f83f1184af5adE>
1000055b4: 21 00 80 52 	mov	w1, #1
1000055b8: 00 f5 07 36 	tbz	w0, #0, 0x100005458 <__ZN4core5slice4sort7recurse17hb1a071468e62ae23E+0x2ac>
1000055bc: 11 ff ff 17 	b	0x100005200 <__ZN4core5slice4sort7recurse17hb1a071468e62ae23E+0x54>
1000055c0: f3 03 18 aa 	mov	x19, x24
1000055c4: f7 03 19 aa 	mov	x23, x25
1000055c8: 5f 03 17 eb 	cmp	x26, x23
1000055cc: 62 26 00 54 	b.hs	0x100005a98 <__ZN4core5slice4sort7recurse17hb1a071468e62ae23E+0x8ec>
1000055d0: 48 4f 1c 9b 	madd	x8, x26, x28, x19
1000055d4: 60 06 40 ad 	ldp	q0, q1, [x19]
1000055d8: 69 12 40 f9 	ldr	x9, [x19, #32]
1000055dc: e9 73 00 f9 	str	x9, [sp, #224]
1000055e0: e0 07 06 ad 	stp	q0, q1, [sp, #192]
1000055e4: 09 11 40 f9 	ldr	x9, [x8, #32]
1000055e8: 00 05 40 ad 	ldp	q0, q1, [x8]
1000055ec: 69 12 00 f9 	str	x9, [x19, #32]
1000055f0: 60 06 00 ad 	stp	q0, q1, [x19]
1000055f4: e0 07 46 ad 	ldp	q0, q1, [sp, #192]
1000055f8: e9 73 40 f9 	ldr	x9, [sp, #224]
1000055fc: 09 11 00 f9 	str	x9, [x8, #32]
100005600: 00 05 00 ad 	stp	q0, q1, [x8]
100005604: 68 12 40 f9 	ldr	x8, [x19, #32]
100005608: 60 06 40 ad 	ldp	q0, q1, [x19]
10000560c: e8 1b 00 f9 	str	x8, [sp, #48]
100005610: e0 87 00 ad 	stp	q0, q1, [sp, #16]
100005614: eb 13 40 f9 	ldr	x11, [sp, #32]
100005618: 08 00 80 d2 	mov	x8, #0
10000561c: e1 06 00 f1 	subs	x1, x23, #1
100005620: 80 01 00 54 	b.eq	0x100005650 <__ZN4core5slice4sort7recurse17hb1a071468e62ae23E+0x4a4>
100005624: 69 e2 00 91 	add	x9, x19, #56
100005628: b8 99 99 52 	mov	w24, #52429
10000562c: 2a 01 40 f9 	ldr	x10, [x9]
100005630: 5f 01 0b eb 	cmp	x10, x11
100005634: 02 01 00 54 	b.hs	0x100005654 <__ZN4core5slice4sort7recurse17hb1a071468e62ae23E+0x4a8>
100005638: 08 05 00 91 	add	x8, x8, #1
10000563c: 29 a1 00 91 	add	x9, x9, #40
100005640: 3f 00 08 eb 	cmp	x1, x8
100005644: 41 ff ff 54 	b.ne	0x10000562c <__ZN4core5slice4sort7recurse17hb1a071468e62ae23E+0x480>
100005648: e8 03 01 aa 	mov	x8, x1
10000564c: 02 00 00 14 	b	0x100005654 <__ZN4core5slice4sort7recurse17hb1a071468e62ae23E+0x4a8>
100005650: b8 99 99 52 	mov	w24, #52429
100005654: 6a a2 00 91 	add	x10, x19, #40
100005658: 1f 01 01 eb 	cmp	x8, x1
10000565c: 0c 31 81 9a 	csel	x12, x8, x1, lo
100005660: e9 7e 1c 9b 	mul	x9, x23, x28
100005664: 2d 61 00 d1 	sub	x13, x9, #24
100005668: e9 03 17 aa 	mov	x9, x23
10000566c: 29 05 00 d1 	sub	x9, x9, #1
100005670: 3f 01 08 eb 	cmp	x9, x8
100005674: c9 00 00 54 	b.ls	0x10000568c <__ZN4core5slice4sort7recurse17hb1a071468e62ae23E+0x4e0>
100005678: 6e 6a 6d f8 	ldr	x14, [x19, x13]
10000567c: ad a1 00 d1 	sub	x13, x13, #40
100005680: df 01 0b eb 	cmp	x14, x11
100005684: 42 ff ff 54 	b.hs	0x10000566c <__ZN4core5slice4sort7recurse17hb1a071468e62ae23E+0x4c0>
100005688: 02 00 00 14 	b	0x100005690 <__ZN4core5slice4sort7recurse17hb1a071468e62ae23E+0x4e4>
10000568c: e9 03 0c aa 	mov	x9, x12
100005690: 2c 01 08 eb 	subs	x12, x9, x8
100005694: 43 22 00 54 	b.lo	0x100005adc <__ZN4core5slice4sort7recurse17hb1a071468e62ae23E+0x930>
100005698: 3f 01 01 eb 	cmp	x9, x1
10000569c: 68 21 00 54 	b.hi	0x100005ac8 <__ZN4core5slice4sort7recurse17hb1a071468e62ae23E+0x91c>
1000056a0: 0d 00 80 d2 	mov	x13, #0
1000056a4: 10 00 80 d2 	mov	x16, #0
1000056a8: 0e 00 80 d2 	mov	x14, #0
1000056ac: 11 00 80 d2 	mov	x17, #0
1000056b0: 0a 29 1c 9b 	madd	x10, x8, x28, x10
1000056b4: 8c 29 1c 9b 	madd	x12, x12, x28, x10
1000056b8: 00 10 80 52 	mov	w0, #128
1000056bc: 01 10 80 52 	mov	w1, #128
1000056c0: ef 03 0a aa 	mov	x15, x10
1000056c4: 10 00 00 14 	b	0x100005704 <__ZN4core5slice4sort7recurse17hb1a071468e62ae23E+0x558>
1000056c8: 83 30 1c 9b 	madd	x3, x4, x28, x12
1000056cc: a0 07 7c ad 	ldp	q0, q1, [x29, #-128]
1000056d0: a4 03 5a f8 	ldur	x4, [x29, #-96]
1000056d4: 64 10 00 f9 	str	x4, [x3, #32]
1000056d8: 60 04 00 ad 	stp	q0, q1, [x3]
1000056dc: 31 06 00 91 	add	x17, x17, #1
1000056e0: 10 06 00 91 	add	x16, x16, #1
1000056e4: 3f 02 0e eb 	cmp	x17, x14
1000056e8: 23 00 9f 9a 	csel	x3, x1, xzr, eq
1000056ec: 6f 3c 1c 9b 	madd	x15, x3, x28, x15
1000056f0: 1f 02 0d eb 	cmp	x16, x13
1000056f4: e3 17 80 da 	csneg	x3, xzr, x0, ne
1000056f8: 6c 30 1c 9b 	madd	x12, x3, x28, x12
1000056fc: 5f 14 14 f1 	cmp	x2, #1285
100005700: 63 0e 00 54 	b.lo	0x1000058cc <__ZN4core5slice4sort7recurse17hb1a071468e62ae23E+0x720>
100005704: 83 01 0f cb 	sub	x3, x12, x15
100005708: 62 fc 43 d3 	lsr	x2, x3, #3
10000570c: 5f 14 14 f1 	cmp	x2, #1285
100005710: 63 01 00 54 	b.lo	0x10000573c <__ZN4core5slice4sort7recurse17hb1a071468e62ae23E+0x590>
100005714: 3f 02 0e eb 	cmp	x17, x14
100005718: c0 03 00 54 	b.eq	0x100005790 <__ZN4core5slice4sort7recurse17hb1a071468e62ae23E+0x5e4>
10000571c: 1f 02 0d eb 	cmp	x16, x13
100005720: 40 06 00 54 	b.eq	0x1000057e8 <__ZN4core5slice4sort7recurse17hb1a071468e62ae23E+0x63c>
100005724: c3 01 11 cb 	sub	x3, x14, x17
100005728: a4 01 10 cb 	sub	x4, x13, x16
10000572c: 7f 00 04 eb 	cmp	x3, x4
100005730: 63 30 84 9a 	csel	x3, x3, x4, lo
100005734: 43 08 00 b5 	cbnz	x3, 0x10000583c <__ZN4core5slice4sort7recurse17hb1a071468e62ae23E+0x690>
100005738: eb ff ff 17 	b	0x1000056e4 <__ZN4core5slice4sort7recurse17hb1a071468e62ae23E+0x538>
10000573c: 63 3c 00 12 	and	w3, w3, #0xffff
100005740: 63 7c 18 1b 	mul	w3, w3, w24
100005744: 63 7c 15 53 	lsr	w3, w3, #21
100005748: 3f 02 0e eb 	cmp	x17, x14
10000574c: e4 27 9f 1a 	cset	w4, lo
100005750: 1f 02 0d eb 	cmp	x16, x13
100005754: e5 27 9f 1a 	cset	w5, lo
100005758: 84 00 05 2a 	orr	w4, w4, w5
10000575c: 65 00 02 d1 	sub	x5, x3, #128
100005760: 9f 00 00 71 	cmp	w4, #0
100005764: a3 10 83 9a 	csel	x3, x5, x3, ne
100005768: 3f 02 0e eb 	cmp	x17, x14
10000576c: 60 30 80 9a 	csel	x0, x3, x0, lo
100005770: 21 30 83 9a 	csel	x1, x1, x3, lo
100005774: 65 fc 41 d3 	lsr	x5, x3, #1
100005778: 63 00 05 cb 	sub	x3, x3, x5
10000577c: 9f 00 00 72 	tst	w4, #0x1
100005780: 00 10 83 9a 	csel	x0, x0, x3, ne
100005784: 21 10 85 9a 	csel	x1, x1, x5, ne
100005788: 3f 02 0e eb 	cmp	x17, x14
10000578c: 81 fc ff 54 	b.ne	0x10000571c <__ZN4core5slice4sort7recurse17hb1a071468e62ae23E+0x570>
100005790: 41 02 00 b4 	cbz	x1, 0x1000057d8 <__ZN4core5slice4sort7recurse17hb1a071468e62ae23E+0x62c>
100005794: 03 00 80 d2 	mov	x3, #0
100005798: ee 03 01 91 	add	x14, sp, #64
10000579c: f1 03 0f aa 	mov	x17, x15
1000057a0: e4 03 0e aa 	mov	x4, x14
1000057a4: 83 14 00 38 	strb	w3, [x4], #1
1000057a8: 65 04 00 91 	add	x5, x3, #1
1000057ac: 23 0a 40 f9 	ldr	x3, [x17, #16]
1000057b0: 7f 00 0b eb 	cmp	x3, x11
1000057b4: ce 31 84 9a 	csel	x14, x14, x4, lo
1000057b8: 31 a2 00 91 	add	x17, x17, #40
1000057bc: e3 03 05 aa 	mov	x3, x5
1000057c0: 3f 00 05 eb 	cmp	x1, x5
1000057c4: e1 fe ff 54 	b.ne	0x1000057a0 <__ZN4core5slice4sort7recurse17hb1a071468e62ae23E+0x5f4>
1000057c8: f1 03 01 91 	add	x17, sp, #64
1000057cc: 1f 02 0d eb 	cmp	x16, x13
1000057d0: a1 fa ff 54 	b.ne	0x100005724 <__ZN4core5slice4sort7recurse17hb1a071468e62ae23E+0x578>
1000057d4: 05 00 00 14 	b	0x1000057e8 <__ZN4core5slice4sort7recurse17hb1a071468e62ae23E+0x63c>
1000057d8: ee 03 01 91 	add	x14, sp, #64
1000057dc: f1 03 01 91 	add	x17, sp, #64
1000057e0: 1f 02 0d eb 	cmp	x16, x13
1000057e4: 01 fa ff 54 	b.ne	0x100005724 <__ZN4core5slice4sort7recurse17hb1a071468e62ae23E+0x578>
1000057e8: c0 01 00 b4 	cbz	x0, 0x100005820 <__ZN4core5slice4sort7recurse17hb1a071468e62ae23E+0x674>
1000057ec: 03 00 80 d2 	mov	x3, #0
1000057f0: 90 61 00 d1 	sub	x16, x12, #24
1000057f4: ed 03 03 91 	add	x13, sp, #192
1000057f8: e4 03 0d aa 	mov	x4, x13
1000057fc: 83 14 00 38 	strb	w3, [x4], #1
100005800: 65 04 00 91 	add	x5, x3, #1
100005804: 03 86 5d f8 	ldr	x3, [x16], #-40
100005808: 7f 00 0b eb 	cmp	x3, x11
10000580c: ad 21 84 9a 	csel	x13, x13, x4, hs
100005810: e3 03 05 aa 	mov	x3, x5
100005814: 1f 00 05 eb 	cmp	x0, x5
100005818: 01 ff ff 54 	b.ne	0x1000057f8 <__ZN4core5slice4sort7recurse17hb1a071468e62ae23E+0x64c>
10000581c: 02 00 00 14 	b	0x100005824 <__ZN4core5slice4sort7recurse17hb1a071468e62ae23E+0x678>
100005820: ed 03 03 91 	add	x13, sp, #192
100005824: f0 03 03 91 	add	x16, sp, #192
100005828: c3 01 11 cb 	sub	x3, x14, x17
10000582c: a4 01 10 cb 	sub	x4, x13, x16
100005830: 7f 00 04 eb 	cmp	x3, x4
100005834: 63 30 84 9a 	csel	x3, x3, x4, lo
100005838: 63 f5 ff b4 	cbz	x3, 0x1000056e4 <__ZN4core5slice4sort7recurse17hb1a071468e62ae23E+0x538>
10000583c: 24 02 40 39 	ldrb	w4, [x17]
100005840: 84 3c 1c 9b 	madd	x4, x4, x28, x15
100005844: 80 04 40 ad 	ldp	q0, q1, [x4]
100005848: 84 10 40 f9 	ldr	x4, [x4, #32]
10000584c: a4 03 1a f8 	stur	x4, [x29, #-96]
100005850: a0 07 3c ad 	stp	q0, q1, [x29, #-128]
100005854: 05 02 40 39 	ldrb	w5, [x16]
100005858: e4 03 25 aa 	mvn	x4, x5
10000585c: 86 30 1c 9b 	madd	x6, x4, x28, x12
100005860: 27 02 40 39 	ldrb	w7, [x17]
100005864: e7 3c 1c 9b 	madd	x7, x7, x28, x15
100005868: d4 10 40 f9 	ldr	x20, [x6, #32]
10000586c: c1 00 40 ad 	ldp	q1, q0, [x6]
100005870: e1 00 00 ad 	stp	q1, q0, [x7]
100005874: f4 10 00 f9 	str	x20, [x7, #32]
100005878: 63 04 00 f1 	subs	x3, x3, #1
10000587c: 60 f2 ff 54 	b.eq	0x1000056c8 <__ZN4core5slice4sort7recurse17hb1a071468e62ae23E+0x51c>
100005880: 24 1e 40 38 	ldrb	w4, [x17, #1]!
100005884: 86 3c 1c 9b 	madd	x6, x4, x28, x15
100005888: e4 03 25 2a 	mvn	w4, w5
10000588c: 84 dc 78 b2 	orr	x4, x4, #0xffffffffffffff00
100005890: 84 30 1c 9b 	madd	x4, x4, x28, x12
100005894: c5 10 40 f9 	ldr	x5, [x6, #32]
100005898: c1 00 40 ad 	ldp	q1, q0, [x6]
10000589c: 81 00 00 ad 	stp	q1, q0, [x4]
1000058a0: 85 10 00 f9 	str	x5, [x4, #32]
1000058a4: 05 1e 40 38 	ldrb	w5, [x16, #1]!
1000058a8: e4 03 25 aa 	mvn	x4, x5
1000058ac: 87 30 1c 9b 	madd	x7, x4, x28, x12
1000058b0: e0 04 40 ad 	ldp	q0, q1, [x7]
1000058b4: e7 10 40 f9 	ldr	x7, [x7, #32]
1000058b8: c7 10 00 f9 	str	x7, [x6, #32]
1000058bc: c0 04 00 ad 	stp	q0, q1, [x6]
1000058c0: 63 04 00 f1 	subs	x3, x3, #1
1000058c4: e1 fd ff 54 	b.ne	0x100005880 <__ZN4core5slice4sort7recurse17hb1a071468e62ae23E+0x6d4>
1000058c8: 80 ff ff 17 	b	0x1000056c8 <__ZN4core5slice4sort7recurse17hb1a071468e62ae23E+0x51c>
1000058cc: 3f 02 0e eb 	cmp	x17, x14
1000058d0: c2 08 00 54 	b.hs	0x1000059e8 <__ZN4core5slice4sort7recurse17hb1a071468e62ae23E+0x83c>
1000058d4: cb fd 5f 38 	ldrb	w11, [x14, #-1]!
1000058d8: 6d 3d 1c 9b 	madd	x13, x11, x28, x15
1000058dc: 8b a1 00 d1 	sub	x11, x12, #40
1000058e0: a0 05 40 ad 	ldp	q0, q1, [x13]
1000058e4: b0 11 40 f9 	ldr	x16, [x13, #32]
1000058e8: b0 03 1a f8 	stur	x16, [x29, #-96]
1000058ec: a0 07 3c ad 	stp	q0, q1, [x29, #-128]
1000058f0: 80 81 dd 3c 	ldur	q0, [x12, #-40]
1000058f4: 90 81 5f f8 	ldur	x16, [x12, #-8]
1000058f8: 81 81 de 3c 	ldur	q1, [x12, #-24]
1000058fc: b0 11 00 f9 	str	x16, [x13, #32]
100005900: a0 05 00 ad 	stp	q0, q1, [x13]
100005904: a0 07 7c ad 	ldp	q0, q1, [x29, #-128]
100005908: ad 03 5a f8 	ldur	x13, [x29, #-96]
10000590c: 8d 81 1f f8 	stur	x13, [x12, #-8]
100005910: 81 81 9e 3c 	stur	q1, [x12, #-24]
100005914: 80 81 9d 3c 	stur	q0, [x12, #-40]
100005918: ec 03 0b aa 	mov	x12, x11
10000591c: 3f 02 0e eb 	cmp	x17, x14
100005920: a3 fd ff 54 	b.lo	0x1000058d4 <__ZN4core5slice4sort7recurse17hb1a071468e62ae23E+0x728>
100005924: 6a 01 0a cb 	sub	x10, x11, x10
100005928: eb e7 02 b2 	mov	x11, #-3689348814741910324
10000592c: ab 99 99 f2 	movk	x11, #52429
100005930: 4a 7d cb 9b 	umulh	x10, x10, x11
100005934: 1a 15 4a 8b 	add	x26, x8, x10, lsr #5
100005938: e0 87 40 ad 	ldp	q0, q1, [sp, #16]
10000593c: ea 1b 40 f9 	ldr	x10, [sp, #48]
100005940: 6a 12 00 f9 	str	x10, [x19, #32]
100005944: 60 06 00 ad 	stp	q0, q1, [x19]
100005948: ea 02 1a eb 	subs	x10, x23, x26
10000594c: c9 0a 00 54 	b.ls	0x100005aa4 <__ZN4core5slice4sort7recurse17hb1a071468e62ae23E+0x8f8>
100005950: 3f 01 08 eb 	cmp	x9, x8
100005954: f4 87 9f 1a 	cset	w20, ls
100005958: 58 4f 1c 9b 	madd	x24, x26, x28, x19
10000595c: 60 06 40 ad 	ldp	q0, q1, [x19]
100005960: 68 12 40 f9 	ldr	x8, [x19, #32]
100005964: e8 73 00 f9 	str	x8, [sp, #224]
100005968: e0 07 06 ad 	stp	q0, q1, [sp, #192]
10000596c: 08 13 40 f9 	ldr	x8, [x24, #32]
100005970: 00 07 40 ad 	ldp	q0, q1, [x24]
100005974: 68 12 00 f9 	str	x8, [x19, #32]
100005978: 60 06 00 ad 	stp	q0, q1, [x19]
10000597c: e0 07 46 ad 	ldp	q0, q1, [sp, #192]
100005980: e8 73 40 f9 	ldr	x8, [sp, #224]
100005984: 08 13 00 f9 	str	x8, [x24, #32]
100005988: 00 07 00 ad 	stp	q0, q1, [x24]
10000598c: 5f 03 0a eb 	cmp	x26, x10
100005990: 48 33 8a 9a 	csel	x8, x26, x10, lo
100005994: 1f 0d 57 eb 	cmp	x8, x23, lsr #3
100005998: fb 37 9f 1a 	cset	w27, hs
10000599c: 17 a3 00 91 	add	x23, x24, #40
1000059a0: 59 05 00 d1 	sub	x25, x10, #1
1000059a4: 5f 03 19 eb 	cmp	x26, x25
1000059a8: c2 04 00 54 	b.hs	0x100005a40 <__ZN4core5slice4sort7recurse17hb1a071468e62ae23E+0x894>
1000059ac: e0 03 13 aa 	mov	x0, x19
1000059b0: e1 03 1a aa 	mov	x1, x26
1000059b4: e2 07 40 f9 	ldr	x2, [sp, #8]
1000059b8: e3 03 16 aa 	mov	x3, x22
1000059bc: e4 03 15 aa 	mov	x4, x21
1000059c0: fb fd ff 97 	bl	0x1000051ac <__ZN4core5slice4sort7recurse17hb1a071468e62ae23E>
1000059c4: f6 03 18 aa 	mov	x22, x24
1000059c8: fa 03 19 aa 	mov	x26, x25
1000059cc: f3 03 17 aa 	mov	x19, x23
1000059d0: f7 03 1a aa 	mov	x23, x26
1000059d4: f8 03 13 aa 	mov	x24, x19
1000059d8: 3f 57 00 f1 	cmp	x25, #21
1000059dc: 21 00 80 52 	mov	w1, #1
1000059e0: c2 c2 ff 54 	b.hs	0x100005238 <__ZN4core5slice4sort7recurse17hb1a071468e62ae23E+0x8c>
1000059e4: 01 fe ff 17 	b	0x1000051e8 <__ZN4core5slice4sort7recurse17hb1a071468e62ae23E+0x3c>
1000059e8: eb 03 0f aa 	mov	x11, x15
1000059ec: 1f 02 0d eb 	cmp	x16, x13
1000059f0: a2 f9 ff 54 	b.hs	0x100005924 <__ZN4core5slice4sort7recurse17hb1a071468e62ae23E+0x778>
1000059f4: ae fd 5f 38 	ldrb	w14, [x13, #-1]!
1000059f8: ee 03 2e aa 	mvn	x14, x14
1000059fc: ce 31 1c 9b 	madd	x14, x14, x28, x12
100005a00: 60 05 40 ad 	ldp	q0, q1, [x11]
100005a04: 6f 11 40 f9 	ldr	x15, [x11, #32]
100005a08: af 03 1a f8 	stur	x15, [x29, #-96]
100005a0c: a0 07 3c ad 	stp	q0, q1, [x29, #-128]
100005a10: cf 11 40 f9 	ldr	x15, [x14, #32]
100005a14: c0 05 40 ad 	ldp	q0, q1, [x14]
100005a18: 6f 11 00 f9 	str	x15, [x11, #32]
100005a1c: 60 05 00 ad 	stp	q0, q1, [x11]
100005a20: a0 07 7c ad 	ldp	q0, q1, [x29, #-128]
100005a24: af 03 5a f8 	ldur	x15, [x29, #-96]
100005a28: cf 11 00 f9 	str	x15, [x14, #32]
100005a2c: c0 05 00 ad 	stp	q0, q1, [x14]
100005a30: 6b a1 00 91 	add	x11, x11, #40
100005a34: 1f 02 0d eb 	cmp	x16, x13
100005a38: e3 fd ff 54 	b.lo	0x1000059f4 <__ZN4core5slice4sort7recurse17hb1a071468e62ae23E+0x848>
100005a3c: ba ff ff 17 	b	0x100005924 <__ZN4core5slice4sort7recurse17hb1a071468e62ae23E+0x778>
100005a40: e0 03 17 aa 	mov	x0, x23
100005a44: e1 03 19 aa 	mov	x1, x25
100005a48: e2 07 40 f9 	ldr	x2, [sp, #8]
100005a4c: e3 03 18 aa 	mov	x3, x24
100005a50: e4 03 15 aa 	mov	x4, x21
100005a54: d6 fd ff 97 	bl	0x1000051ac <__ZN4core5slice4sort7recurse17hb1a071468e62ae23E>
100005a58: f7 03 1a aa 	mov	x23, x26
100005a5c: f8 03 13 aa 	mov	x24, x19
100005a60: 5f 57 00 f1 	cmp	x26, #21
100005a64: 21 00 80 52 	mov	w1, #1
100005a68: 82 be ff 54 	b.hs	0x100005238 <__ZN4core5slice4sort7recurse17hb1a071468e62ae23E+0x8c>
100005a6c: df fd ff 17 	b	0x1000051e8 <__ZN4core5slice4sort7recurse17hb1a071468e62ae23E+0x3c>
100005a70: e0 03 18 aa 	mov	x0, x24
100005a74: e1 03 19 aa 	mov	x1, x25
100005a78: e2 07 40 f9 	ldr	x2, [sp, #8]
100005a7c: 54 ab 00 94 	bl	0x1000307cc <__ZN4core5slice4sort8heapsort17h63854d426a1f217dE>
100005a80: e0 fd ff 17 	b	0x100005200 <__ZN4core5slice4sort7recurse17hb1a071468e62ae23E+0x54>
100005a84: 22 51 1d 10 	adr	x2, #240164
100005a88: 1f 20 03 d5 	nop
100005a8c: e0 03 1a aa 	mov	x0, x26
100005a90: e1 03 19 aa 	mov	x1, x25
100005a94: 2c b1 00 94 	bl	0x100031f44 <__ZN4core9panicking18panic_bounds_check17hde809934b70194daE>
100005a98: 42 54 1d 10 	adr	x2, #240264
100005a9c: 1f 20 03 d5 	nop
100005aa0: 03 00 00 14 	b	0x100005aac <__ZN4core5slice4sort7recurse17hb1a071468e62ae23E+0x900>
100005aa4: 62 55 1d 10 	adr	x2, #240300
100005aa8: 1f 20 03 d5 	nop
100005aac: e0 03 1a aa 	mov	x0, x26
100005ab0: e1 03 17 aa 	mov	x1, x23
100005ab4: 24 b1 00 94 	bl	0x100031f44 <__ZN4core9panicking18panic_bounds_check17hde809934b70194daE>
100005ab8: 42 50 1d 10 	adr	x2, #240136
100005abc: 1f 20 03 d5 	nop
100005ac0: e1 03 19 aa 	mov	x1, x25
100005ac4: 9f b1 00 94 	bl	0x100032140 <__ZN4core5slice5index26slice_start_index_len_fail17hcb4c139efae7a177E>
100005ac8: 82 53 1d 10 	adr	x2, #240240
100005acc: 1f 20 03 d5 	nop
100005ad0: e0 03 09 aa 	mov	x0, x9
100005ad4: 9e b1 00 94 	bl	0x10003214c <__ZN4core5slice5index24slice_end_index_len_fail17hce3cc2869df0d02eE>
100005ad8: 06 00 00 14 	b	0x100005af0 <__ZN4core5slice4sort7recurse17hb1a071468e62ae23E+0x944>
100005adc: e2 52 1d 10 	adr	x2, #240220
100005ae0: 1f 20 03 d5 	nop
100005ae4: e0 03 08 aa 	mov	x0, x8
100005ae8: e1 03 09 aa 	mov	x1, x9
100005aec: 9b b1 00 94 	bl	0x100032158 <__ZN4core5slice5index22slice_index_order_fail17ha9b9b040cb1bc5afE>
100005af0: 20 00 20 d4 	brk	#0x1
100005af4: f4 03 00 aa 	mov	x20, x0
100005af8: e0 43 00 91 	add	x0, sp, #16
100005afc: e1 03 13 aa 	mov	x1, x19
100005b00: f8 f7 ff 97 	bl	0x100003ae0 <__ZN4core3ptr89drop_in_place$LT$core..slice..sort..InsertionHole$LT$object..read..ObjectMapEntry$GT$$GT$17h633e7ed91fc45022E>
100005b04: e0 03 14 aa 	mov	x0, x20
100005b08: c3 b1 00 94 	bl	0x100032214 <_writev+0x100032214>

0000000100005b0c <__ZN4core5slice4sort7recurse17he8473940036db2caE>:
100005b0c: fc 6f ba a9 	stp	x28, x27, [sp, #-96]!
100005b10: fa 67 01 a9 	stp	x26, x25, [sp, #16]
100005b14: f8 5f 02 a9 	stp	x24, x23, [sp, #32]
100005b18: f6 57 03 a9 	stp	x22, x21, [sp, #48]
100005b1c: f4 4f 04 a9 	stp	x20, x19, [sp, #64]
100005b20: fd 7b 05 a9 	stp	x29, x30, [sp, #80]
100005b24: fd 43 01 91 	add	x29, sp, #80
100005b28: ff 43 07 d1 	sub	sp, sp, #464
100005b2c: e4 47 00 b9 	str	w4, [sp, #68]
100005b30: e2 1b 00 f9 	str	x2, [sp, #48]
100005b34: 3f 54 00 f1 	cmp	x1, #21
100005b38: 22 02 00 54 	b.hs	0x100005b7c <__ZN4core5slice4sort7recurse17he8473940036db2caE+0x70>
100005b3c: fa 03 01 aa 	mov	x26, x1
100005b40: f8 03 00 aa 	mov	x24, x0
100005b44: 5f 0b 00 f1 	cmp	x26, #2
100005b48: a3 00 00 54 	b.lo	0x100005b5c <__ZN4core5slice4sort7recurse17he8473940036db2caE+0x50>
100005b4c: e0 03 18 aa 	mov	x0, x24
100005b50: e1 03 1a aa 	mov	x1, x26
100005b54: 22 00 80 52 	mov	w2, #1
100005b58: 0e fa ff 97 	bl	0x100004390 <__ZN4core5slice4sort25insertion_sort_shift_left17hb5013a39ff019e5cE>
100005b5c: ff 43 07 91 	add	sp, sp, #464
100005b60: fd 7b 45 a9 	ldp	x29, x30, [sp, #80]
100005b64: f4 4f 44 a9 	ldp	x20, x19, [sp, #64]
100005b68: f6 57 43 a9 	ldp	x22, x21, [sp, #48]
100005b6c: f8 5f 42 a9 	ldp	x24, x23, [sp, #32]
100005b70: fa 67 41 a9 	ldp	x26, x25, [sp, #16]
100005b74: fc 6f c6 a8 	ldp	x28, x27, [sp], #96
100005b78: c0 03 5f d6 	ret
100005b7c: fc 03 03 aa 	mov	x28, x3
100005b80: e0 07 01 a9 	stp	x0, x1, [sp, #16]
100005b84: b6 03 04 d1 	sub	x22, x29, #256
100005b88: 28 00 80 52 	mov	w8, #1
100005b8c: e8 3b 00 b9 	str	w8, [sp, #56]
100005b90: 33 00 80 52 	mov	w19, #1
100005b94: e8 3b 40 b9 	ldr	w8, [sp, #56]
100005b98: 08 01 13 0a 	and	w8, w8, w19
100005b9c: e8 2b 00 b9 	str	w8, [sp, #40]
100005ba0: f8 67 41 a9 	ldp	x24, x25, [sp, #16]
100005ba4: fc 13 00 f9 	str	x28, [sp, #32]
100005ba8: e8 47 40 b9 	ldr	w8, [sp, #68]
100005bac: e8 44 00 34 	cbz	w8, 0x100006448 <__ZN4core5slice4sort7recurse17he8473940036db2caE+0x93c>
100005bb0: e8 3b 40 b9 	ldr	w8, [sp, #56]
100005bb4: 08 17 00 36 	tbz	w8, #0, 0x100005e94 <__ZN4core5slice4sort7recurse17he8473940036db2caE+0x388>
100005bb8: 28 ff 42 d3 	lsr	x8, x25, #2
100005bbc: 13 f9 7f d3 	lsl	x19, x8, #1
100005bc0: e8 cf 06 a9 	stp	x8, x19, [sp, #104]
100005bc4: 74 02 08 8b 	add	x20, x19, x8
100005bc8: f4 ff 07 a9 	stp	x20, xzr, [sp, #120]
100005bcc: b8 67 30 a9 	stp	x24, x25, [x29, #-256]
100005bd0: ea 1b 40 f9 	ldr	x10, [sp, #48]
100005bd4: e9 03 02 91 	add	x9, sp, #128
100005bd8: aa 27 31 a9 	stp	x10, x9, [x29, #-240]
100005bdc: 3f c7 00 f1 	cmp	x25, #49
100005be0: 89 03 00 54 	b.ls	0x100005c50 <__ZN4core5slice4sort7recurse17he8473940036db2caE+0x144>
100005be4: 09 05 00 d1 	sub	x9, x8, #1
100005be8: a9 03 18 f8 	stur	x9, [x29, #-128]
100005bec: 08 05 00 91 	add	x8, x8, #1
100005bf0: e8 53 00 f9 	str	x8, [sp, #160]
100005bf4: a0 03 04 d1 	sub	x0, x29, #256
100005bf8: a1 03 02 d1 	sub	x1, x29, #128
100005bfc: e2 a3 01 91 	add	x2, sp, #104
100005c00: e3 83 02 91 	add	x3, sp, #160
100005c04: 30 f8 ff 97 	bl	0x100003cc4 <__ZN4core5slice4sort12choose_pivot28_$u7b$$u7b$closure$u7d$$u7d$17hdfc12a431fc55e6aE>
100005c08: 68 06 00 d1 	sub	x8, x19, #1
100005c0c: a8 03 18 f8 	stur	x8, [x29, #-128]
100005c10: 68 02 40 b2 	orr	x8, x19, #0x1
100005c14: e8 53 00 f9 	str	x8, [sp, #160]
100005c18: a0 03 04 d1 	sub	x0, x29, #256
100005c1c: a1 03 02 d1 	sub	x1, x29, #128
100005c20: e2 c3 01 91 	add	x2, sp, #112
100005c24: e3 83 02 91 	add	x3, sp, #160
100005c28: 27 f8 ff 97 	bl	0x100003cc4 <__ZN4core5slice4sort12choose_pivot28_$u7b$$u7b$closure$u7d$$u7d$17hdfc12a431fc55e6aE>
100005c2c: 88 06 00 d1 	sub	x8, x20, #1
100005c30: a8 03 18 f8 	stur	x8, [x29, #-128]
100005c34: 88 06 00 91 	add	x8, x20, #1
100005c38: e8 53 00 f9 	str	x8, [sp, #160]
100005c3c: a0 03 04 d1 	sub	x0, x29, #256
100005c40: a1 03 02 d1 	sub	x1, x29, #128
100005c44: e2 e3 01 91 	add	x2, sp, #120
100005c48: e3 83 02 91 	add	x3, sp, #160
100005c4c: 1e f8 ff 97 	bl	0x100003cc4 <__ZN4core5slice4sort12choose_pivot28_$u7b$$u7b$closure$u7d$$u7d$17hdfc12a431fc55e6aE>
100005c50: a0 03 04 d1 	sub	x0, x29, #256
100005c54: e1 a3 01 91 	add	x1, sp, #104
100005c58: e2 c3 01 91 	add	x2, sp, #112
100005c5c: e3 e3 01 91 	add	x3, sp, #120
100005c60: 19 f8 ff 97 	bl	0x100003cc4 <__ZN4core5slice4sort12choose_pivot28_$u7b$$u7b$closure$u7d$$u7d$17hdfc12a431fc55e6aE>
100005c64: e8 43 40 f9 	ldr	x8, [sp, #128]
100005c68: 1f 31 00 f1 	cmp	x8, #12
100005c6c: 22 01 00 54 	b.hs	0x100005c90 <__ZN4core5slice4sort7recurse17he8473940036db2caE+0x184>
100005c70: fa 3b 40 f9 	ldr	x26, [sp, #112]
100005c74: 1f 01 00 f1 	cmp	x8, #0
100005c78: e8 17 9f 1a 	cset	w8, eq
100005c7c: 14 03 80 52 	mov	w20, #24
100005c80: e9 2b 40 b9 	ldr	w9, [sp, #40]
100005c84: 28 01 08 0a 	and	w8, w9, w8
100005c88: 88 03 00 36 	tbz	w8, #0, 0x100005cf8 <__ZN4core5slice4sort7recurse17he8473940036db2caE+0x1ec>
100005c8c: 89 00 00 14 	b	0x100005eb0 <__ZN4core5slice4sort7recurse17he8473940036db2caE+0x3a4>
100005c90: 28 ff 41 d3 	lsr	x8, x25, #1
100005c94: 14 03 80 52 	mov	w20, #24
100005c98: 29 63 14 9b 	madd	x9, x25, x20, x24
100005c9c: 29 61 00 d1 	sub	x9, x9, #24
100005ca0: ea 03 18 aa 	mov	x10, x24
100005ca4: 40 01 c0 3d 	ldr	q0, [x10]
100005ca8: 4b 09 40 f9 	ldr	x11, [x10, #16]
100005cac: ab 03 11 f8 	stur	x11, [x29, #-240]
100005cb0: c0 02 80 3d 	str	q0, [x22]
100005cb4: 20 01 c0 3d 	ldr	q0, [x9]
100005cb8: 2b 09 40 f9 	ldr	x11, [x9, #16]
100005cbc: 4b 09 00 f9 	str	x11, [x10, #16]
100005cc0: 40 85 81 3c 	str	q0, [x10], #24
100005cc4: c0 02 c0 3d 	ldr	q0, [x22]
100005cc8: ab 03 51 f8 	ldur	x11, [x29, #-240]
100005ccc: 2b 09 00 f9 	str	x11, [x9, #16]
100005cd0: 20 85 9e 3c 	str	q0, [x9], #-24
100005cd4: 08 05 00 d1 	sub	x8, x8, #1
100005cd8: 68 fe ff b5 	cbnz	x8, 0x100005ca4 <__ZN4core5slice4sort7recurse17he8473940036db2caE+0x198>
100005cdc: e8 3b 40 f9 	ldr	x8, [sp, #112]
100005ce0: e8 03 28 aa 	mvn	x8, x8
100005ce4: 3a 03 08 8b 	add	x26, x25, x8
100005ce8: 28 00 80 52 	mov	w8, #1
100005cec: e9 2b 40 b9 	ldr	w9, [sp, #40]
100005cf0: 28 01 08 0a 	and	w8, w9, w8
100005cf4: e8 0d 00 37 	tbnz	w8, #0, 0x100005eb0 <__ZN4core5slice4sort7recurse17he8473940036db2caE+0x3a4>
100005cf8: 7c 0e 00 b4 	cbz	x28, 0x100005ec4 <__ZN4core5slice4sort7recurse17he8473940036db2caE+0x3b8>
100005cfc: 5f 03 19 eb 	cmp	x26, x25
100005d00: e2 3a 00 54 	b.hs	0x10000645c <__ZN4core5slice4sort7recurse17he8473940036db2caE+0x950>
100005d04: 55 63 14 9b 	madd	x21, x26, x20, x24
100005d08: 80 23 40 a9 	ldp	x0, x8, [x28]
100005d0c: a1 26 40 a9 	ldp	x1, x9, [x21]
100005d10: 13 01 09 eb 	subs	x19, x8, x9
100005d14: 02 31 89 9a 	csel	x2, x8, x9, lo
100005d18: 84 b1 00 94 	bl	0x100032328 <_writev+0x100032328>
100005d1c: 08 7c 40 93 	sxtw	x8, w0
100005d20: 1f 00 00 71 	cmp	w0, #0
100005d24: 68 02 88 9a 	csel	x8, x19, x8, eq
100005d28: 28 0d f8 b7 	tbnz	x8, #63, 0x100005ecc <__ZN4core5slice4sort7recurse17he8473940036db2caE+0x3c0>
100005d2c: 14 00 80 d2 	mov	x20, #0
100005d30: 00 03 c0 3d 	ldr	q0, [x24]
100005d34: 08 0b 40 f9 	ldr	x8, [x24, #16]
100005d38: a8 03 11 f8 	stur	x8, [x29, #-240]
100005d3c: c0 02 80 3d 	str	q0, [x22]
100005d40: a0 02 c0 3d 	ldr	q0, [x21]
100005d44: a8 0a 40 f9 	ldr	x8, [x21, #16]
100005d48: 08 0b 00 f9 	str	x8, [x24, #16]
100005d4c: 00 03 80 3d 	str	q0, [x24]
100005d50: c0 02 c0 3d 	ldr	q0, [x22]
100005d54: a8 03 51 f8 	ldur	x8, [x29, #-240]
100005d58: a8 0a 00 f9 	str	x8, [x21, #16]
100005d5c: a0 02 80 3d 	str	q0, [x21]
100005d60: 17 63 00 91 	add	x23, x24, #24
100005d64: 1a 03 40 f9 	ldr	x26, [x24]
100005d68: 00 83 c0 3c 	ldur	q0, [x24, #8]
100005d6c: e0 17 80 3d 	str	q0, [sp, #80]
100005d70: 16 00 66 9e 	fmov	x22, d0
100005d74: 08 83 00 91 	add	x8, x24, #32
100005d78: e8 27 00 f9 	str	x8, [sp, #72]
100005d7c: fc 03 19 aa 	mov	x28, x25
100005d80: 3b 07 00 d1 	sub	x27, x25, #1
100005d84: 9f 02 1b eb 	cmp	x20, x27
100005d88: 42 02 00 54 	b.hs	0x100005dd0 <__ZN4core5slice4sort7recurse17he8473940036db2caE+0x2c4>
100005d8c: 08 03 80 52 	mov	w8, #24
100005d90: e9 27 40 f9 	ldr	x9, [sp, #72]
100005d94: 93 26 08 9b 	madd	x19, x20, x8, x9
100005d98: 61 a2 7f a9 	ldp	x1, x8, [x19, #-8]
100005d9c: d5 02 08 eb 	subs	x21, x22, x8
100005da0: c2 32 88 9a 	csel	x2, x22, x8, lo
100005da4: e0 03 1a aa 	mov	x0, x26
100005da8: 60 b1 00 94 	bl	0x100032328 <_writev+0x100032328>
100005dac: 08 7c 40 93 	sxtw	x8, w0
100005db0: 1f 00 00 71 	cmp	w0, #0
100005db4: a8 02 88 9a 	csel	x8, x21, x8, eq
100005db8: c8 00 f8 b7 	tbnz	x8, #63, 0x100005dd0 <__ZN4core5slice4sort7recurse17he8473940036db2caE+0x2c4>
100005dbc: 94 06 00 91 	add	x20, x20, #1
100005dc0: 73 62 00 91 	add	x19, x19, #24
100005dc4: 7f 03 14 eb 	cmp	x27, x20
100005dc8: 81 fe ff 54 	b.ne	0x100005d98 <__ZN4core5slice4sort7recurse17he8473940036db2caE+0x28c>
100005dcc: f4 03 1b aa 	mov	x20, x27
100005dd0: 08 03 80 52 	mov	w8, #24
100005dd4: 9b 63 08 9b 	madd	x27, x28, x8, x24
100005dd8: 9c 07 00 d1 	sub	x28, x28, #1
100005ddc: 9f 02 1c eb 	cmp	x20, x28
100005de0: c2 03 00 54 	b.hs	0x100005e58 <__ZN4core5slice4sort7recurse17he8473940036db2caE+0x34c>
100005de4: 61 a3 fe a9 	ldp	x1, x8, [x27, #-24]!
100005de8: d3 02 08 eb 	subs	x19, x22, x8
100005dec: c2 32 88 9a 	csel	x2, x22, x8, lo
100005df0: e0 03 1a aa 	mov	x0, x26
100005df4: 4d b1 00 94 	bl	0x100032328 <_writev+0x100032328>
100005df8: 08 7c 40 93 	sxtw	x8, w0
100005dfc: 1f 00 00 71 	cmp	w0, #0
100005e00: 68 02 88 9a 	csel	x8, x19, x8, eq
100005e04: a8 fe ff b7 	tbnz	x8, #63, 0x100005dd8 <__ZN4core5slice4sort7recurse17he8473940036db2caE+0x2cc>
100005e08: 08 03 80 52 	mov	w8, #24
100005e0c: 88 5e 08 9b 	madd	x8, x20, x8, x23
100005e10: 00 01 c0 3d 	ldr	q0, [x8]
100005e14: 09 09 40 f9 	ldr	x9, [x8, #16]
100005e18: a9 03 11 f8 	stur	x9, [x29, #-240]
100005e1c: aa 03 04 d1 	sub	x10, x29, #256
100005e20: 40 01 80 3d 	str	q0, [x10]
100005e24: 60 03 c0 3d 	ldr	q0, [x27]
100005e28: 69 0b 40 f9 	ldr	x9, [x27, #16]
100005e2c: 09 09 00 f9 	str	x9, [x8, #16]
100005e30: 00 01 80 3d 	str	q0, [x8]
100005e34: 40 01 c0 3d 	ldr	q0, [x10]
100005e38: a8 03 51 f8 	ldur	x8, [x29, #-240]
100005e3c: 68 0b 00 f9 	str	x8, [x27, #16]
100005e40: 60 03 80 3d 	str	q0, [x27]
100005e44: 94 06 00 91 	add	x20, x20, #1
100005e48: 9b 07 00 d1 	sub	x27, x28, #1
100005e4c: 9f 02 1b eb 	cmp	x20, x27
100005e50: e3 f9 ff 54 	b.lo	0x100005d8c <__ZN4core5slice4sort7recurse17he8473940036db2caE+0x280>
100005e54: df ff ff 17 	b	0x100005dd0 <__ZN4core5slice4sort7recurse17he8473940036db2caE+0x2c4>
100005e58: 80 06 00 91 	add	x0, x20, #1
100005e5c: 1a 03 00 f9 	str	x26, [x24]
100005e60: e0 17 c0 3d 	ldr	q0, [sp, #80]
100005e64: 00 83 80 3c 	stur	q0, [x24, #8]
100005e68: 3a 03 00 eb 	subs	x26, x25, x0
100005e6c: e3 31 00 54 	b.lo	0x1000064a8 <__ZN4core5slice4sort7recurse17he8473940036db2caE+0x99c>
100005e70: 08 03 80 52 	mov	w8, #24
100005e74: 88 62 08 9b 	madd	x8, x20, x8, x24
100005e78: 18 61 00 91 	add	x24, x8, #24
100005e7c: f9 03 1a aa 	mov	x25, x26
100005e80: 5f 57 00 f1 	cmp	x26, #21
100005e84: fc 13 40 f9 	ldr	x28, [sp, #32]
100005e88: b6 03 04 d1 	sub	x22, x29, #256
100005e8c: e2 e8 ff 54 	b.hs	0x100005ba8 <__ZN4core5slice4sort7recurse17he8473940036db2caE+0x9c>
100005e90: 2d ff ff 17 	b	0x100005b44 <__ZN4core5slice4sort7recurse17he8473940036db2caE+0x38>
100005e94: e0 03 18 aa 	mov	x0, x24
100005e98: e1 03 19 aa 	mov	x1, x25
100005e9c: 7c a5 00 94 	bl	0x10002f48c <__ZN4core5slice4sort14break_patterns17h2aa2242548710613E>
100005ea0: e8 47 40 b9 	ldr	w8, [sp, #68]
100005ea4: 08 05 00 51 	sub	w8, w8, #1
100005ea8: e8 47 00 b9 	str	w8, [sp, #68]
100005eac: 43 ff ff 17 	b	0x100005bb8 <__ZN4core5slice4sort7recurse17he8473940036db2caE+0xac>
100005eb0: e0 03 18 aa 	mov	x0, x24
100005eb4: e1 03 19 aa 	mov	x1, x25
100005eb8: 54 a7 00 94 	bl	0x10002fc08 <__ZN4core5slice4sort22partial_insertion_sort17hca5d68e0ed23fbe8E>
100005ebc: e0 f1 07 36 	tbz	w0, #0, 0x100005cf8 <__ZN4core5slice4sort7recurse17he8473940036db2caE+0x1ec>
100005ec0: 27 ff ff 17 	b	0x100005b5c <__ZN4core5slice4sort7recurse17he8473940036db2caE+0x50>
100005ec4: f8 67 41 a9 	ldp	x24, x25, [sp, #16]
100005ec8: 79 2e 00 b4 	cbz	x25, 0x100006494 <__ZN4core5slice4sort7recurse17he8473940036db2caE+0x988>
100005ecc: 5f 03 19 eb 	cmp	x26, x25
100005ed0: 02 2d 00 54 	b.hs	0x100006470 <__ZN4core5slice4sort7recurse17he8473940036db2caE+0x964>
100005ed4: 15 03 80 52 	mov	w21, #24
100005ed8: 48 63 14 9b 	madd	x8, x26, x20, x24
100005edc: 00 03 c0 3d 	ldr	q0, [x24]
100005ee0: 09 0b 40 f9 	ldr	x9, [x24, #16]
100005ee4: a9 03 11 f8 	stur	x9, [x29, #-240]
100005ee8: c0 02 80 3d 	str	q0, [x22]
100005eec: 00 01 c0 3d 	ldr	q0, [x8]
100005ef0: 09 09 40 f9 	ldr	x9, [x8, #16]
100005ef4: 09 0b 00 f9 	str	x9, [x24, #16]
100005ef8: 00 03 80 3d 	str	q0, [x24]
100005efc: c0 02 c0 3d 	ldr	q0, [x22]
100005f00: a9 03 51 f8 	ldur	x9, [x29, #-240]
100005f04: 09 09 00 f9 	str	x9, [x8, #16]
100005f08: 00 01 80 3d 	str	q0, [x8]
100005f0c: 08 0b 40 f9 	ldr	x8, [x24, #16]
100005f10: 00 03 c0 3d 	ldr	q0, [x24]
100005f14: e0 23 80 3d 	str	q0, [sp, #128]
100005f18: e8 4b 00 f9 	str	x8, [sp, #144]
100005f1c: fa 5f 48 a9 	ldp	x26, x23, [sp, #128]
100005f20: f9 0f 00 f9 	str	x25, [sp, #24]
100005f24: 3b 07 00 f1 	subs	x27, x25, #1
100005f28: 40 02 00 54 	b.eq	0x100005f70 <__ZN4core5slice4sort7recurse17he8473940036db2caE+0x464>
100005f2c: 19 00 80 d2 	mov	x25, #0
100005f30: 13 83 00 91 	add	x19, x24, #32
100005f34: 60 a2 7f a9 	ldp	x0, x8, [x19, #-8]
100005f38: 14 01 17 eb 	subs	x20, x8, x23
100005f3c: 02 31 97 9a 	csel	x2, x8, x23, lo
100005f40: e1 03 1a aa 	mov	x1, x26
100005f44: f9 b0 00 94 	bl	0x100032328 <_writev+0x100032328>
100005f48: 08 7c 40 93 	sxtw	x8, w0
100005f4c: 1f 00 00 71 	cmp	w0, #0
100005f50: 88 02 88 9a 	csel	x8, x20, x8, eq
100005f54: 08 01 f8 b6 	tbz	x8, #63, 0x100005f74 <__ZN4core5slice4sort7recurse17he8473940036db2caE+0x468>
100005f58: 39 07 00 91 	add	x25, x25, #1
100005f5c: 73 62 00 91 	add	x19, x19, #24
100005f60: 7f 03 19 eb 	cmp	x27, x25
100005f64: 81 fe ff 54 	b.ne	0x100005f34 <__ZN4core5slice4sort7recurse17he8473940036db2caE+0x428>
100005f68: f9 03 1b aa 	mov	x25, x27
100005f6c: 02 00 00 14 	b	0x100005f74 <__ZN4core5slice4sort7recurse17he8473940036db2caE+0x468>
100005f70: 19 00 80 d2 	mov	x25, #0
100005f74: 14 63 00 91 	add	x20, x24, #24
100005f78: 3f 03 1b eb 	cmp	x25, x27
100005f7c: 28 33 9b 9a 	csel	x8, x25, x27, lo
100005f80: e8 2b 00 f9 	str	x8, [sp, #80]
100005f84: f3 0f 40 f9 	ldr	x19, [sp, #24]
100005f88: 68 62 15 9b 	madd	x8, x19, x21, x24
100005f8c: 15 61 00 d1 	sub	x21, x8, #24
100005f90: 73 06 00 d1 	sub	x19, x19, #1
100005f94: 7f 02 19 eb 	cmp	x19, x25
100005f98: 69 01 00 54 	b.ls	0x100005fc4 <__ZN4core5slice4sort7recurse17he8473940036db2caE+0x4b8>
100005f9c: a0 a2 fe a8 	ldp	x0, x8, [x21], #-24
100005fa0: 16 01 17 eb 	subs	x22, x8, x23
100005fa4: 02 31 97 9a 	csel	x2, x8, x23, lo
100005fa8: e1 03 1a aa 	mov	x1, x26
100005fac: df b0 00 94 	bl	0x100032328 <_writev+0x100032328>
100005fb0: 08 7c 40 93 	sxtw	x8, w0
100005fb4: 1f 00 00 71 	cmp	w0, #0
100005fb8: c8 02 88 9a 	csel	x8, x22, x8, eq
100005fbc: a8 fe ff b6 	tbz	x8, #63, 0x100005f90 <__ZN4core5slice4sort7recurse17he8473940036db2caE+0x484>
100005fc0: 02 00 00 14 	b	0x100005fc8 <__ZN4core5slice4sort7recurse17he8473940036db2caE+0x4bc>
100005fc4: f3 2b 40 f9 	ldr	x19, [sp, #80]
100005fc8: 68 02 19 eb 	subs	x8, x19, x25
100005fcc: f8 0b 00 f9 	str	x24, [sp, #16]
100005fd0: 03 28 00 54 	b.lo	0x1000064d0 <__ZN4core5slice4sort7recurse17he8473940036db2caE+0x9c4>
100005fd4: f3 03 00 f9 	str	x19, [sp]
100005fd8: 7f 02 1b eb 	cmp	x19, x27
100005fdc: e8 26 00 54 	b.hi	0x1000064b8 <__ZN4core5slice4sort7recurse17he8473940036db2caE+0x9ac>
100005fe0: 15 00 80 d2 	mov	x21, #0
100005fe4: 18 00 80 d2 	mov	x24, #0
100005fe8: 13 00 80 d2 	mov	x19, #0
100005fec: 1c 00 80 d2 	mov	x28, #0
100005ff0: 09 03 80 52 	mov	w9, #24
100005ff4: 36 53 09 9b 	madd	x22, x25, x9, x20
100005ff8: 0e 03 80 52 	mov	w14, #24
100005ffc: 1b 59 0e 9b 	madd	x27, x8, x14, x22
100006000: 0f 10 80 52 	mov	w15, #128
100006004: 10 10 80 52 	mov	w16, #128
100006008: f6 07 00 f9 	str	x22, [sp, #8]
10000600c: f9 1f 00 f9 	str	x25, [sp, #56]
100006010: 11 00 00 14 	b	0x100006054 <__ZN4core5slice4sort7recurse17he8473940036db2caE+0x548>
100006014: a8 03 04 d1 	sub	x8, x29, #256
100006018: 00 21 c0 3d 	ldr	q0, [x8, #128]
10000601c: a8 03 59 f8 	ldur	x8, [x29, #-112]
100006020: 29 6d 0e 9b 	madd	x9, x9, x14, x27
100006024: 28 09 00 f9 	str	x8, [x9, #16]
100006028: 20 01 80 3d 	str	q0, [x9]
10000602c: 9c 07 00 91 	add	x28, x28, #1
100006030: 18 07 00 91 	add	x24, x24, #1
100006034: 9f 03 13 eb 	cmp	x28, x19
100006038: 08 02 9f 9a 	csel	x8, x16, xzr, eq
10000603c: 16 59 0e 9b 	madd	x22, x8, x14, x22
100006040: 1f 03 15 eb 	cmp	x24, x21
100006044: e8 17 8f da 	csneg	x8, xzr, x15, ne
100006048: 1b 6d 0e 9b 	madd	x27, x8, x14, x27
10000604c: 3f 0e 0c f1 	cmp	x17, #771
100006050: 63 12 00 54 	b.lo	0x10000629c <__ZN4core5slice4sort7recurse17he8473940036db2caE+0x790>
100006054: 68 03 16 cb 	sub	x8, x27, x22
100006058: 11 fd 43 d3 	lsr	x17, x8, #3
10000605c: 3f 0e 0c f1 	cmp	x17, #771
100006060: 62 02 00 54 	b.hs	0x1000060ac <__ZN4core5slice4sort7recurse17he8473940036db2caE+0x5a0>
100006064: 08 3d 00 12 	and	w8, w8, #0xffff
100006068: 69 55 95 52 	mov	w9, #43691
10000606c: 08 7d 09 1b 	mul	w8, w8, w9
100006070: 08 7d 14 53 	lsr	w8, w8, #20
100006074: 9f 03 13 eb 	cmp	x28, x19
100006078: e9 27 9f 1a 	cset	w9, lo
10000607c: 1f 03 15 eb 	cmp	x24, x21
100006080: ea 27 9f 1a 	cset	w10, lo
100006084: 29 01 0a 2a 	orr	w9, w9, w10
100006088: 0a 01 02 d1 	sub	x10, x8, #128
10000608c: 3f 01 00 71 	cmp	w9, #0
100006090: 48 11 88 9a 	csel	x8, x10, x8, ne
100006094: 9f 03 13 eb 	cmp	x28, x19
100006098: 0f 31 8f 9a 	csel	x15, x8, x15, lo
10000609c: 10 32 88 9a 	csel	x16, x16, x8, lo
1000060a0: 69 00 00 37 	tbnz	w9, #0, 0x1000060ac <__ZN4core5slice4sort7recurse17he8473940036db2caE+0x5a0>
1000060a4: 10 fd 41 d3 	lsr	x16, x8, #1
1000060a8: 0f 01 10 cb 	sub	x15, x8, x16
1000060ac: 9f 03 13 eb 	cmp	x28, x19
1000060b0: a0 05 00 54 	b.eq	0x100006164 <__ZN4core5slice4sort7recurse17he8473940036db2caE+0x658>
1000060b4: 1f 03 15 eb 	cmp	x24, x21
1000060b8: c0 09 00 54 	b.eq	0x1000061f0 <__ZN4core5slice4sort7recurse17he8473940036db2caE+0x6e4>
1000060bc: 68 02 1c cb 	sub	x8, x19, x28
1000060c0: a9 02 18 cb 	sub	x9, x21, x24
1000060c4: 1f 01 09 eb 	cmp	x8, x9
1000060c8: 08 31 89 9a 	csel	x8, x8, x9, lo
1000060cc: 48 fb ff b4 	cbz	x8, 0x100006034 <__ZN4core5slice4sort7recurse17he8473940036db2caE+0x528>
1000060d0: 89 03 40 39 	ldrb	w9, [x28]
1000060d4: 29 59 0e 9b 	madd	x9, x9, x14, x22
1000060d8: 20 01 c0 3d 	ldr	q0, [x9]
1000060dc: 29 09 40 f9 	ldr	x9, [x9, #16]
1000060e0: a9 03 19 f8 	stur	x9, [x29, #-112]
1000060e4: a9 03 04 d1 	sub	x9, x29, #256
1000060e8: 20 21 80 3d 	str	q0, [x9, #128]
1000060ec: 0a 03 40 39 	ldrb	w10, [x24]
1000060f0: e9 03 2a aa 	mvn	x9, x10
1000060f4: 2b 6d 0e 9b 	madd	x11, x9, x14, x27
1000060f8: 8c 03 40 39 	ldrb	w12, [x28]
1000060fc: 8c 59 0e 9b 	madd	x12, x12, x14, x22
100006100: 6d 09 40 f9 	ldr	x13, [x11, #16]
100006104: 60 01 c0 3d 	ldr	q0, [x11]
100006108: 80 01 80 3d 	str	q0, [x12]
10000610c: 8d 09 00 f9 	str	x13, [x12, #16]
100006110: 08 05 00 f1 	subs	x8, x8, #1
100006114: 00 f8 ff 54 	b.eq	0x100006014 <__ZN4core5slice4sort7recurse17he8473940036db2caE+0x508>
100006118: 89 1f 40 38 	ldrb	w9, [x28, #1]!
10000611c: 2b 59 0e 9b 	madd	x11, x9, x14, x22
100006120: e9 03 2a 2a 	mvn	w9, w10
100006124: 29 dd 78 b2 	orr	x9, x9, #0xffffffffffffff00
100006128: 29 6d 0e 9b 	madd	x9, x9, x14, x27
10000612c: 6a 09 40 f9 	ldr	x10, [x11, #16]
100006130: 60 01 c0 3d 	ldr	q0, [x11]
100006134: 20 01 80 3d 	str	q0, [x9]
100006138: 2a 09 00 f9 	str	x10, [x9, #16]
10000613c: 0a 1f 40 38 	ldrb	w10, [x24, #1]!
100006140: e9 03 2a aa 	mvn	x9, x10
100006144: 2c 6d 0e 9b 	madd	x12, x9, x14, x27
100006148: 8d 09 40 f9 	ldr	x13, [x12, #16]
10000614c: 80 01 c0 3d 	ldr	q0, [x12]
100006150: 60 01 80 3d 	str	q0, [x11]
100006154: 6d 09 00 f9 	str	x13, [x11, #16]
100006158: 08 05 00 f1 	subs	x8, x8, #1
10000615c: e1 fd ff 54 	b.ne	0x100006118 <__ZN4core5slice4sort7recurse17he8473940036db2caE+0x60c>
100006160: ad ff ff 17 	b	0x100006014 <__ZN4core5slice4sort7recurse17he8473940036db2caE+0x508>
100006164: f0 03 00 b4 	cbz	x16, 0x1000061e0 <__ZN4core5slice4sort7recurse17he8473940036db2caE+0x6d4>
100006168: f1 db 04 a9 	stp	x17, x22, [sp, #72]
10000616c: ef 17 00 f9 	str	x15, [sp, #40]
100006170: 08 00 80 d2 	mov	x8, #0
100006174: f3 83 02 91 	add	x19, sp, #160
100006178: fc 03 16 aa 	mov	x28, x22
10000617c: 19 05 00 91 	add	x25, x8, #1
100006180: 68 02 00 39 	strb	w8, [x19]
100006184: 80 a3 c1 a8 	ldp	x0, x8, [x28], #24
100006188: 14 01 17 eb 	subs	x20, x8, x23
10000618c: 02 31 97 9a 	csel	x2, x8, x23, lo
100006190: e1 03 1a aa 	mov	x1, x26
100006194: f6 03 10 aa 	mov	x22, x16
100006198: 64 b0 00 94 	bl	0x100032328 <_writev+0x100032328>
10000619c: f0 03 16 aa 	mov	x16, x22
1000061a0: 08 7c 40 93 	sxtw	x8, w0
1000061a4: 1f 00 00 71 	cmp	w0, #0
1000061a8: 88 02 88 9a 	csel	x8, x20, x8, eq
1000061ac: e8 03 28 aa 	mvn	x8, x8
1000061b0: 73 fe 48 8b 	add	x19, x19, x8, lsr #63
1000061b4: e8 03 19 aa 	mov	x8, x25
1000061b8: df 02 19 eb 	cmp	x22, x25
1000061bc: 01 fe ff 54 	b.ne	0x10000617c <__ZN4core5slice4sort7recurse17he8473940036db2caE+0x670>
1000061c0: fc 83 02 91 	add	x28, sp, #160
1000061c4: 0e 03 80 52 	mov	w14, #24
1000061c8: f9 1f 40 f9 	ldr	x25, [sp, #56]
1000061cc: ef 17 40 f9 	ldr	x15, [sp, #40]
1000061d0: f1 db 44 a9 	ldp	x17, x22, [sp, #72]
1000061d4: 1f 03 15 eb 	cmp	x24, x21
1000061d8: 21 f7 ff 54 	b.ne	0x1000060bc <__ZN4core5slice4sort7recurse17he8473940036db2caE+0x5b0>
1000061dc: 05 00 00 14 	b	0x1000061f0 <__ZN4core5slice4sort7recurse17he8473940036db2caE+0x6e4>
1000061e0: f3 83 02 91 	add	x19, sp, #160
1000061e4: fc 83 02 91 	add	x28, sp, #160
1000061e8: 1f 03 15 eb 	cmp	x24, x21
1000061ec: 81 f6 ff 54 	b.ne	0x1000060bc <__ZN4core5slice4sort7recurse17he8473940036db2caE+0x5b0>
1000061f0: 6f 04 00 b4 	cbz	x15, 0x10000627c <__ZN4core5slice4sort7recurse17he8473940036db2caE+0x770>
1000061f4: f1 db 04 a9 	stp	x17, x22, [sp, #72]
1000061f8: f0 17 00 f9 	str	x16, [sp, #40]
1000061fc: 08 00 80 d2 	mov	x8, #0
100006200: 78 63 00 d1 	sub	x24, x27, #24
100006204: b5 03 04 d1 	sub	x21, x29, #256
100006208: 14 05 00 91 	add	x20, x8, #1
10000620c: a8 02 00 39 	strb	w8, [x21]
100006210: 00 a3 fe a8 	ldp	x0, x8, [x24], #-24
100006214: 19 01 17 eb 	subs	x25, x8, x23
100006218: 02 31 97 9a 	csel	x2, x8, x23, lo
10000621c: e1 03 1a aa 	mov	x1, x26
100006220: f6 03 1a aa 	mov	x22, x26
100006224: fa 03 0f aa 	mov	x26, x15
100006228: 40 b0 00 94 	bl	0x100032328 <_writev+0x100032328>
10000622c: ef 03 1a aa 	mov	x15, x26
100006230: fa 03 16 aa 	mov	x26, x22
100006234: 08 7c 40 93 	sxtw	x8, w0
100006238: 1f 00 00 71 	cmp	w0, #0
10000623c: 28 03 88 9a 	csel	x8, x25, x8, eq
100006240: b5 fe 48 8b 	add	x21, x21, x8, lsr #63
100006244: e8 03 14 aa 	mov	x8, x20
100006248: ff 01 14 eb 	cmp	x15, x20
10000624c: e1 fd ff 54 	b.ne	0x100006208 <__ZN4core5slice4sort7recurse17he8473940036db2caE+0x6fc>
100006250: b8 03 04 d1 	sub	x24, x29, #256
100006254: 0e 03 80 52 	mov	w14, #24
100006258: f9 1f 40 f9 	ldr	x25, [sp, #56]
10000625c: f1 db 44 a9 	ldp	x17, x22, [sp, #72]
100006260: f0 17 40 f9 	ldr	x16, [sp, #40]
100006264: 68 02 1c cb 	sub	x8, x19, x28
100006268: a9 02 18 cb 	sub	x9, x21, x24
10000626c: 1f 01 09 eb 	cmp	x8, x9
100006270: 08 31 89 9a 	csel	x8, x8, x9, lo
100006274: e8 f2 ff b5 	cbnz	x8, 0x1000060d0 <__ZN4core5slice4sort7recurse17he8473940036db2caE+0x5c4>
100006278: 6f ff ff 17 	b	0x100006034 <__ZN4core5slice4sort7recurse17he8473940036db2caE+0x528>
10000627c: b5 03 04 d1 	sub	x21, x29, #256
100006280: b8 03 04 d1 	sub	x24, x29, #256
100006284: 68 02 1c cb 	sub	x8, x19, x28
100006288: a9 02 18 cb 	sub	x9, x21, x24
10000628c: 1f 01 09 eb 	cmp	x8, x9
100006290: 08 31 89 9a 	csel	x8, x8, x9, lo
100006294: e8 f1 ff b5 	cbnz	x8, 0x1000060d0 <__ZN4core5slice4sort7recurse17he8473940036db2caE+0x5c4>
100006298: 67 ff ff 17 	b	0x100006034 <__ZN4core5slice4sort7recurse17he8473940036db2caE+0x528>
10000629c: 9f 03 13 eb 	cmp	x28, x19
1000062a0: ab 03 04 d1 	sub	x11, x29, #256
1000062a4: e2 08 00 54 	b.hs	0x1000063c0 <__ZN4core5slice4sort7recurse17he8473940036db2caE+0x8b4>
1000062a8: 68 fe 5f 38 	ldrb	w8, [x19, #-1]!
1000062ac: 09 59 0e 9b 	madd	x9, x8, x14, x22
1000062b0: 68 63 00 d1 	sub	x8, x27, #24
1000062b4: 20 01 c0 3d 	ldr	q0, [x9]
1000062b8: 2a 09 40 f9 	ldr	x10, [x9, #16]
1000062bc: aa 03 19 f8 	stur	x10, [x29, #-112]
1000062c0: 60 21 80 3d 	str	q0, [x11, #128]
1000062c4: 60 83 de 3c 	ldur	q0, [x27, #-24]
1000062c8: 6a 83 5f f8 	ldur	x10, [x27, #-8]
1000062cc: 2a 09 00 f9 	str	x10, [x9, #16]
1000062d0: 20 01 80 3d 	str	q0, [x9]
1000062d4: 60 21 c0 3d 	ldr	q0, [x11, #128]
1000062d8: a9 03 59 f8 	ldur	x9, [x29, #-112]
1000062dc: 69 83 1f f8 	stur	x9, [x27, #-8]
1000062e0: 60 83 9e 3c 	stur	q0, [x27, #-24]
1000062e4: fb 03 08 aa 	mov	x27, x8
1000062e8: 9f 03 13 eb 	cmp	x28, x19
1000062ec: e3 fd ff 54 	b.lo	0x1000062a8 <__ZN4core5slice4sort7recurse17he8473940036db2caE+0x79c>
1000062f0: 0a 03 80 52 	mov	w10, #24
1000062f4: e9 d3 40 a9 	ldp	x9, x20, [sp, #8]
1000062f8: 08 01 09 cb 	sub	x8, x8, x9
1000062fc: e9 f3 01 b2 	mov	x9, #-6148914691236517206
100006300: 69 55 95 f2 	movk	x9, #43691
100006304: 08 7d c9 9b 	umulh	x8, x8, x9
100006308: e0 23 c0 3d 	ldr	q0, [sp, #128]
10000630c: e9 4b 40 f9 	ldr	x9, [sp, #144]
100006310: 3a 13 48 8b 	add	x26, x25, x8, lsr #4
100006314: 89 0a 00 f9 	str	x9, [x20, #16]
100006318: 80 02 80 3d 	str	q0, [x20]
10000631c: e1 0f 40 f9 	ldr	x1, [sp, #24]
100006320: 28 00 1a eb 	subs	x8, x1, x26
100006324: 09 0b 00 54 	b.ls	0x100006484 <__ZN4core5slice4sort7recurse17he8473940036db2caE+0x978>
100006328: e9 03 40 f9 	ldr	x9, [sp]
10000632c: 3f 01 19 eb 	cmp	x9, x25
100006330: f3 87 9f 1a 	cset	w19, ls
100006334: 5c 53 0a 9b 	madd	x28, x26, x10, x20
100006338: 80 02 c0 3d 	ldr	q0, [x20]
10000633c: 89 0a 40 f9 	ldr	x9, [x20, #16]
100006340: a9 03 11 f8 	stur	x9, [x29, #-240]
100006344: 60 01 80 3d 	str	q0, [x11]
100006348: 80 03 c0 3d 	ldr	q0, [x28]
10000634c: 89 0b 40 f9 	ldr	x9, [x28, #16]
100006350: 89 0a 00 f9 	str	x9, [x20, #16]
100006354: 80 02 80 3d 	str	q0, [x20]
100006358: 60 01 c0 3d 	ldr	q0, [x11]
10000635c: a9 03 51 f8 	ldur	x9, [x29, #-240]
100006360: 89 0b 00 f9 	str	x9, [x28, #16]
100006364: 80 03 80 3d 	str	q0, [x28]
100006368: 5f 03 08 eb 	cmp	x26, x8
10000636c: 49 33 88 9a 	csel	x9, x26, x8, lo
100006370: 3f 0d 41 eb 	cmp	x9, x1, lsr #3
100006374: e9 37 9f 1a 	cset	w9, hs
100006378: e9 3b 00 b9 	str	w9, [sp, #56]
10000637c: 97 63 00 91 	add	x23, x28, #24
100006380: 19 05 00 d1 	sub	x25, x8, #1
100006384: 5f 03 19 eb 	cmp	x26, x25
100006388: 62 04 00 54 	b.hs	0x100006414 <__ZN4core5slice4sort7recurse17he8473940036db2caE+0x908>
10000638c: e0 03 14 aa 	mov	x0, x20
100006390: e1 03 1a aa 	mov	x1, x26
100006394: e2 1b 40 f9 	ldr	x2, [sp, #48]
100006398: e3 13 40 f9 	ldr	x3, [sp, #32]
10000639c: e4 47 40 b9 	ldr	w4, [sp, #68]
1000063a0: db fd ff 97 	bl	0x100005b0c <__ZN4core5slice4sort7recurse17he8473940036db2caE>
1000063a4: fa 03 19 aa 	mov	x26, x25
1000063a8: f8 03 17 aa 	mov	x24, x23
1000063ac: f7 67 01 a9 	stp	x23, x25, [sp, #16]
1000063b0: 3f 57 00 f1 	cmp	x25, #21
1000063b4: b6 03 04 d1 	sub	x22, x29, #256
1000063b8: e2 be ff 54 	b.hs	0x100005b94 <__ZN4core5slice4sort7recurse17he8473940036db2caE+0x88>
1000063bc: e2 fd ff 17 	b	0x100005b44 <__ZN4core5slice4sort7recurse17he8473940036db2caE+0x38>
1000063c0: e8 03 16 aa 	mov	x8, x22
1000063c4: 1f 03 15 eb 	cmp	x24, x21
1000063c8: 42 f9 ff 54 	b.hs	0x1000062f0 <__ZN4core5slice4sort7recurse17he8473940036db2caE+0x7e4>
1000063cc: a9 fe 5f 38 	ldrb	w9, [x21, #-1]!
1000063d0: e9 03 29 aa 	mvn	x9, x9
1000063d4: 29 6d 0e 9b 	madd	x9, x9, x14, x27
1000063d8: 00 01 c0 3d 	ldr	q0, [x8]
1000063dc: 0a 09 40 f9 	ldr	x10, [x8, #16]
1000063e0: aa 03 19 f8 	stur	x10, [x29, #-112]
1000063e4: 60 21 80 3d 	str	q0, [x11, #128]
1000063e8: 20 01 c0 3d 	ldr	q0, [x9]
1000063ec: 2a 09 40 f9 	ldr	x10, [x9, #16]
1000063f0: 0a 09 00 f9 	str	x10, [x8, #16]
1000063f4: 00 85 81 3c 	str	q0, [x8], #24
1000063f8: 60 21 c0 3d 	ldr	q0, [x11, #128]
1000063fc: aa 03 59 f8 	ldur	x10, [x29, #-112]
100006400: 2a 09 00 f9 	str	x10, [x9, #16]
100006404: 20 01 80 3d 	str	q0, [x9]
100006408: 1f 03 15 eb 	cmp	x24, x21
10000640c: 03 fe ff 54 	b.lo	0x1000063cc <__ZN4core5slice4sort7recurse17he8473940036db2caE+0x8c0>
100006410: b8 ff ff 17 	b	0x1000062f0 <__ZN4core5slice4sort7recurse17he8473940036db2caE+0x7e4>
100006414: e0 03 17 aa 	mov	x0, x23
100006418: e1 03 19 aa 	mov	x1, x25
10000641c: e2 1b 40 f9 	ldr	x2, [sp, #48]
100006420: e3 03 1c aa 	mov	x3, x28
100006424: e4 47 40 b9 	ldr	w4, [sp, #68]
100006428: b9 fd ff 97 	bl	0x100005b0c <__ZN4core5slice4sort7recurse17he8473940036db2caE>
10000642c: f8 03 14 aa 	mov	x24, x20
100006430: fc 13 40 f9 	ldr	x28, [sp, #32]
100006434: f4 6b 01 a9 	stp	x20, x26, [sp, #16]
100006438: 5f 57 00 f1 	cmp	x26, #21
10000643c: b6 03 04 d1 	sub	x22, x29, #256
100006440: a2 ba ff 54 	b.hs	0x100005b94 <__ZN4core5slice4sort7recurse17he8473940036db2caE+0x88>
100006444: c0 fd ff 17 	b	0x100005b44 <__ZN4core5slice4sort7recurse17he8473940036db2caE+0x38>
100006448: e0 03 18 aa 	mov	x0, x24
10000644c: e1 03 19 aa 	mov	x1, x25
100006450: e2 1b 40 f9 	ldr	x2, [sp, #48]
100006454: a6 a8 00 94 	bl	0x1000306ec <__ZN4core5slice4sort8heapsort17h58a1ffea6c899abdE>
100006458: c1 fd ff 17 	b	0x100005b5c <__ZN4core5slice4sort7recurse17he8473940036db2caE+0x50>
10000645c: 62 02 1d 10 	adr	x2, #237644
100006460: 1f 20 03 d5 	nop
100006464: e0 03 1a aa 	mov	x0, x26
100006468: e1 03 19 aa 	mov	x1, x25
10000646c: b6 ae 00 94 	bl	0x100031f44 <__ZN4core9panicking18panic_bounds_check17hde809934b70194daE>
100006470: 82 05 1d 10 	adr	x2, #237744
100006474: 1f 20 03 d5 	nop
100006478: e0 03 1a aa 	mov	x0, x26
10000647c: e1 03 19 aa 	mov	x1, x25
100006480: b1 ae 00 94 	bl	0x100031f44 <__ZN4core9panicking18panic_bounds_check17hde809934b70194daE>
100006484: 62 06 1d 10 	adr	x2, #237772
100006488: 1f 20 03 d5 	nop
10000648c: e0 03 1a aa 	mov	x0, x26
100006490: ad ae 00 94 	bl	0x100031f44 <__ZN4core9panicking18panic_bounds_check17hde809934b70194daE>
100006494: 62 04 1d 10 	adr	x2, #237708
100006498: 1f 20 03 d5 	nop
10000649c: 00 00 80 d2 	mov	x0, #0
1000064a0: 01 00 80 d2 	mov	x1, #0
1000064a4: a8 ae 00 94 	bl	0x100031f44 <__ZN4core9panicking18panic_bounds_check17hde809934b70194daE>
1000064a8: c2 00 1d 10 	adr	x2, #237592
1000064ac: 1f 20 03 d5 	nop
1000064b0: e1 03 19 aa 	mov	x1, x25
1000064b4: 23 af 00 94 	bl	0x100032140 <__ZN4core5slice5index26slice_start_index_len_fail17hcb4c139efae7a177E>
1000064b8: 02 04 1d 10 	adr	x2, #237696
1000064bc: 1f 20 03 d5 	nop
1000064c0: e0 03 40 f9 	ldr	x0, [sp]
1000064c4: e1 03 1b aa 	mov	x1, x27
1000064c8: 21 af 00 94 	bl	0x10003214c <__ZN4core5slice5index24slice_end_index_len_fail17hce3cc2869df0d02eE>
1000064cc: 06 00 00 14 	b	0x1000064e4 <__ZN4core5slice4sort7recurse17he8473940036db2caE+0x9d8>
1000064d0: 42 03 1d 10 	adr	x2, #237672
1000064d4: 1f 20 03 d5 	nop
1000064d8: e0 03 19 aa 	mov	x0, x25
1000064dc: e1 03 13 aa 	mov	x1, x19
1000064e0: 1e af 00 94 	bl	0x100032158 <__ZN4core5slice5index22slice_index_order_fail17ha9b9b040cb1bc5afE>
1000064e4: 20 00 20 d4 	brk	#0x1
1000064e8: f4 03 00 aa 	mov	x20, x0
1000064ec: e0 03 02 91 	add	x0, sp, #128
1000064f0: e1 0b 40 f9 	ldr	x1, [sp, #16]
1000064f4: 96 f5 ff 97 	bl	0x100003b4c <__ZN4core3ptr91drop_in_place$LT$core..slice..sort..InsertionHole$LT$$LP$$RF$$u5b$u8$u5d$$C$u64$RP$$GT$$GT$17h4818ebefe307fe99E>
1000064f8: e0 03 14 aa 	mov	x0, x20
1000064fc: 46 af 00 94 	bl	0x100032214 <_writev+0x100032214>

0000000100006500 <__ZN4core5slice4sort8heapsort28_$u7b$$u7b$closure$u7d$$u7d$17h76e81f0887983897E>:
100006500: ff c3 01 d1 	sub	sp, sp, #112
100006504: fa 67 02 a9 	stp	x26, x25, [sp, #32]
100006508: f8 5f 03 a9 	stp	x24, x23, [sp, #48]
10000650c: f6 57 04 a9 	stp	x22, x21, [sp, #64]
100006510: f4 4f 05 a9 	stp	x20, x19, [sp, #80]
100006514: fd 7b 06 a9 	stp	x29, x30, [sp, #96]
100006518: fd 83 01 91 	add	x29, sp, #96
10000651c: 38 00 80 52 	mov	w24, #1
100006520: 78 f8 7f b3 	bfi	x24, x3, #1, #63
100006524: 1f 03 02 eb 	cmp	x24, x2
100006528: 62 06 00 54 	b.hs	0x1000065f4 <__ZN4core5slice4sort8heapsort28_$u7b$$u7b$closure$u7d$$u7d$17h76e81f0887983897E+0xf4>
10000652c: f5 03 03 aa 	mov	x21, x3
100006530: f3 03 02 aa 	mov	x19, x2
100006534: f4 03 01 aa 	mov	x20, x1
100006538: 68 f8 7f d3 	lsl	x8, x3, #1
10000653c: 17 03 80 52 	mov	w23, #24
100006540: 09 09 00 91 	add	x9, x8, #2
100006544: 3f 01 13 eb 	cmp	x9, x19
100006548: a2 01 00 54 	b.hs	0x10000657c <__ZN4core5slice4sort8heapsort28_$u7b$$u7b$closure$u7d$$u7d$17h76e81f0887983897E+0x7c>
10000654c: 09 53 17 9b 	madd	x9, x24, x23, x20
100006550: 08 51 17 9b 	madd	x8, x8, x23, x20
100006554: 20 25 40 a9 	ldp	x0, x9, [x9]
100006558: 01 21 43 a9 	ldp	x1, x8, [x8, #48]
10000655c: 36 01 08 eb 	subs	x22, x9, x8
100006560: 22 31 88 9a 	csel	x2, x9, x8, lo
100006564: 71 af 00 94 	bl	0x100032328 <_writev+0x100032328>
100006568: 08 7c 40 93 	sxtw	x8, w0
10000656c: 1f 00 00 71 	cmp	w0, #0
100006570: c8 02 88 9a 	csel	x8, x22, x8, eq
100006574: 16 ff 48 8b 	add	x22, x24, x8, lsr #63
100006578: 02 00 00 14 	b	0x100006580 <__ZN4core5slice4sort8heapsort28_$u7b$$u7b$closure$u7d$$u7d$17h76e81f0887983897E+0x80>
10000657c: f6 03 18 aa 	mov	x22, x24
100006580: bf 02 13 eb 	cmp	x21, x19
100006584: 62 04 00 54 	b.hs	0x100006610 <__ZN4core5slice4sort8heapsort28_$u7b$$u7b$closure$u7d$$u7d$17h76e81f0887983897E+0x110>
100006588: df 02 13 eb 	cmp	x22, x19
10000658c: c2 04 00 54 	b.hs	0x100006624 <__ZN4core5slice4sort8heapsort28_$u7b$$u7b$closure$u7d$$u7d$17h76e81f0887983897E+0x124>
100006590: b8 52 17 9b 	madd	x24, x21, x23, x20
100006594: d5 52 17 9b 	madd	x21, x22, x23, x20
100006598: 00 23 40 a9 	ldp	x0, x8, [x24]
10000659c: a1 26 40 a9 	ldp	x1, x9, [x21]
1000065a0: 19 01 09 eb 	subs	x25, x8, x9
1000065a4: 02 31 89 9a 	csel	x2, x8, x9, lo
1000065a8: 60 af 00 94 	bl	0x100032328 <_writev+0x100032328>
1000065ac: 08 7c 40 93 	sxtw	x8, w0
1000065b0: 1f 00 00 71 	cmp	w0, #0
1000065b4: 28 03 88 9a 	csel	x8, x25, x8, eq
1000065b8: e8 01 f8 b6 	tbz	x8, #63, 0x1000065f4 <__ZN4core5slice4sort8heapsort28_$u7b$$u7b$closure$u7d$$u7d$17h76e81f0887983897E+0xf4>
1000065bc: 08 0b 40 f9 	ldr	x8, [x24, #16]
1000065c0: 00 03 c0 3d 	ldr	q0, [x24]
1000065c4: a9 0a 40 f9 	ldr	x9, [x21, #16]
1000065c8: a1 02 c0 3d 	ldr	q1, [x21]
1000065cc: 01 03 80 3d 	str	q1, [x24]
1000065d0: 09 0b 00 f9 	str	x9, [x24, #16]
1000065d4: a0 02 80 3d 	str	q0, [x21]
1000065d8: a8 0a 00 f9 	str	x8, [x21, #16]
1000065dc: c8 fa 7f d3 	lsl	x8, x22, #1
1000065e0: 38 00 80 52 	mov	w24, #1
1000065e4: d8 fa 7f b3 	bfi	x24, x22, #1, #63
1000065e8: f5 03 16 aa 	mov	x21, x22
1000065ec: 1f 03 13 eb 	cmp	x24, x19
1000065f0: 83 fa ff 54 	b.lo	0x100006540 <__ZN4core5slice4sort8heapsort28_$u7b$$u7b$closure$u7d$$u7d$17h76e81f0887983897E+0x40>
1000065f4: fd 7b 46 a9 	ldp	x29, x30, [sp, #96]
1000065f8: f4 4f 45 a9 	ldp	x20, x19, [sp, #80]
1000065fc: f6 57 44 a9 	ldp	x22, x21, [sp, #64]
100006600: f8 5f 43 a9 	ldp	x24, x23, [sp, #48]
100006604: fa 67 42 a9 	ldp	x26, x25, [sp, #32]
100006608: ff c3 01 91 	add	sp, sp, #112
10000660c: c0 03 5f d6 	ret
100006610: 02 f7 1c 10 	adr	x2, #237280
100006614: 1f 20 03 d5 	nop
100006618: e0 03 15 aa 	mov	x0, x21
10000661c: e1 03 13 aa 	mov	x1, x19
100006620: 49 ae 00 94 	bl	0x100031f44 <__ZN4core9panicking18panic_bounds_check17hde809934b70194daE>
100006624: 22 f7 1c 10 	adr	x2, #237284
100006628: 1f 20 03 d5 	nop
10000662c: e0 03 16 aa 	mov	x0, x22
100006630: e1 03 13 aa 	mov	x1, x19
100006634: 44 ae 00 94 	bl	0x100031f44 <__ZN4core9panicking18panic_bounds_check17hde809934b70194daE>

0000000100006638 <__ZN50_$LT$$BP$mut$u20$T$u20$as$u20$core..fmt..Debug$GT$3fmt17h6f82dc70fac457f5E>:
100006638: 00 00 40 f9 	ldr	x0, [x0]
10000663c: 33 98 00 14 	b	0x10002c708 <__ZN4core3fmt17pointer_fmt_inner17he379e0aeaeff8939E>

0000000100006640 <__ZN50_$LT$$RF$mut$u20$W$u20$as$u20$core..fmt..Write$GT$10write_char17h3cd84ee283b4c305E>:
100006640: ff 83 00 d1 	sub	sp, sp, #32
100006644: fd 7b 01 a9 	stp	x29, x30, [sp, #16]
100006648: fd 43 00 91 	add	x29, sp, #16
10000664c: 00 00 40 f9 	ldr	x0, [x0]
100006650: bf c3 1f b8 	stur	wzr, [x29, #-4]
100006654: 3f 00 02 71 	cmp	w1, #128
100006658: 82 00 00 54 	b.hs	0x100006668 <__ZN50_$LT$$RF$mut$u20$W$u20$as$u20$core..fmt..Write$GT$10write_char17h3cd84ee283b4c305E+0x28>
10000665c: a1 c3 1f 38 	sturb	w1, [x29, #-4]
100006660: 22 00 80 52 	mov	w2, #1
100006664: 25 00 00 14 	b	0x1000066f8 <__ZN50_$LT$$RF$mut$u20$W$u20$as$u20$core..fmt..Write$GT$10write_char17h3cd84ee283b4c305E+0xb8>
100006668: 3f 00 20 71 	cmp	w1, #2048
10000666c: 22 01 00 54 	b.hs	0x100006690 <__ZN50_$LT$$RF$mut$u20$W$u20$as$u20$core..fmt..Write$GT$10write_char17h3cd84ee283b4c305E+0x50>
100006670: 28 7c 06 53 	lsr	w8, w1, #6
100006674: 08 05 1a 32 	orr	w8, w8, #0xc0
100006678: a8 c3 1f 38 	sturb	w8, [x29, #-4]
10000667c: 08 10 80 52 	mov	w8, #128
100006680: 28 14 00 33 	bfxil	w8, w1, #0, #6
100006684: a8 d3 1f 38 	sturb	w8, [x29, #-3]
100006688: 42 00 80 52 	mov	w2, #2
10000668c: 1b 00 00 14 	b	0x1000066f8 <__ZN50_$LT$$RF$mut$u20$W$u20$as$u20$core..fmt..Write$GT$10write_char17h3cd84ee283b4c305E+0xb8>
100006690: 3f 40 40 71 	cmp	w1, #16, lsl #12        ; =65536
100006694: 82 01 00 54 	b.hs	0x1000066c4 <__ZN50_$LT$$RF$mut$u20$W$u20$as$u20$core..fmt..Write$GT$10write_char17h3cd84ee283b4c305E+0x84>
100006698: 28 7c 0c 53 	lsr	w8, w1, #12
10000669c: 08 09 1b 32 	orr	w8, w8, #0xe0
1000066a0: a8 c3 1f 38 	sturb	w8, [x29, #-4]
1000066a4: 08 10 80 52 	mov	w8, #128
1000066a8: 09 10 80 52 	mov	w9, #128
1000066ac: 29 2c 06 33 	bfxil	w9, w1, #6, #6
1000066b0: a9 d3 1f 38 	sturb	w9, [x29, #-3]
1000066b4: 28 14 00 33 	bfxil	w8, w1, #0, #6
1000066b8: a8 e3 1f 38 	sturb	w8, [x29, #-2]
1000066bc: 62 00 80 52 	mov	w2, #3
1000066c0: 0e 00 00 14 	b	0x1000066f8 <__ZN50_$LT$$RF$mut$u20$W$u20$as$u20$core..fmt..Write$GT$10write_char17h3cd84ee283b4c305E+0xb8>
1000066c4: 08 1e 80 52 	mov	w8, #240
1000066c8: 28 50 12 33 	bfxil	w8, w1, #18, #3
1000066cc: a8 c3 1f 38 	sturb	w8, [x29, #-4]
1000066d0: 08 10 80 52 	mov	w8, #128
1000066d4: 09 10 80 52 	mov	w9, #128
1000066d8: 29 44 0c 33 	bfxil	w9, w1, #12, #6
1000066dc: a9 d3 1f 38 	sturb	w9, [x29, #-3]
1000066e0: 09 10 80 52 	mov	w9, #128
1000066e4: 29 2c 06 33 	bfxil	w9, w1, #6, #6
1000066e8: a9 e3 1f 38 	sturb	w9, [x29, #-2]
1000066ec: 28 14 00 33 	bfxil	w8, w1, #0, #6
1000066f0: a8 f3 1f 38 	sturb	w8, [x29, #-1]
1000066f4: 82 00 80 52 	mov	w2, #4
1000066f8: a1 13 00 d1 	sub	x1, x29, #4
1000066fc: fd 44 00 94 	bl	0x100017af0 <__ZN80_$LT$std..io..Write..write_fmt..Adapter$LT$T$GT$$u20$as$u20$core..fmt..Write$GT$9write_str17h6c38d21cd76303d5E>
100006700: fd 7b 41 a9 	ldp	x29, x30, [sp, #16]
100006704: ff 83 00 91 	add	sp, sp, #32
100006708: c0 03 5f d6 	ret

000000010000670c <__ZN50_$LT$$RF$mut$u20$W$u20$as$u20$core..fmt..Write$GT$10write_char17h63a15afc02c78bccE>:
10000670c: ff 83 00 d1 	sub	sp, sp, #32
100006710: fd 7b 01 a9 	stp	x29, x30, [sp, #16]
100006714: fd 43 00 91 	add	x29, sp, #16
100006718: 00 00 40 f9 	ldr	x0, [x0]
10000671c: bf c3 1f b8 	stur	wzr, [x29, #-4]
100006720: 3f 00 02 71 	cmp	w1, #128
100006724: 82 00 00 54 	b.hs	0x100006734 <__ZN50_$LT$$RF$mut$u20$W$u20$as$u20$core..fmt..Write$GT$10write_char17h63a15afc02c78bccE+0x28>
100006728: a1 c3 1f 38 	sturb	w1, [x29, #-4]
10000672c: 22 00 80 52 	mov	w2, #1
100006730: 25 00 00 14 	b	0x1000067c4 <__ZN50_$LT$$RF$mut$u20$W$u20$as$u20$core..fmt..Write$GT$10write_char17h63a15afc02c78bccE+0xb8>
100006734: 3f 00 20 71 	cmp	w1, #2048
100006738: 22 01 00 54 	b.hs	0x10000675c <__ZN50_$LT$$RF$mut$u20$W$u20$as$u20$core..fmt..Write$GT$10write_char17h63a15afc02c78bccE+0x50>
10000673c: 28 7c 06 53 	lsr	w8, w1, #6
100006740: 08 05 1a 32 	orr	w8, w8, #0xc0
100006744: a8 c3 1f 38 	sturb	w8, [x29, #-4]
100006748: 08 10 80 52 	mov	w8, #128
10000674c: 28 14 00 33 	bfxil	w8, w1, #0, #6
100006750: a8 d3 1f 38 	sturb	w8, [x29, #-3]
100006754: 42 00 80 52 	mov	w2, #2
100006758: 1b 00 00 14 	b	0x1000067c4 <__ZN50_$LT$$RF$mut$u20$W$u20$as$u20$core..fmt..Write$GT$10write_char17h63a15afc02c78bccE+0xb8>
10000675c: 3f 40 40 71 	cmp	w1, #16, lsl #12        ; =65536
100006760: 82 01 00 54 	b.hs	0x100006790 <__ZN50_$LT$$RF$mut$u20$W$u20$as$u20$core..fmt..Write$GT$10write_char17h63a15afc02c78bccE+0x84>
100006764: 28 7c 0c 53 	lsr	w8, w1, #12
100006768: 08 09 1b 32 	orr	w8, w8, #0xe0
10000676c: a8 c3 1f 38 	sturb	w8, [x29, #-4]
100006770: 08 10 80 52 	mov	w8, #128
100006774: 09 10 80 52 	mov	w9, #128
100006778: 29 2c 06 33 	bfxil	w9, w1, #6, #6
10000677c: a9 d3 1f 38 	sturb	w9, [x29, #-3]
100006780: 28 14 00 33 	bfxil	w8, w1, #0, #6
100006784: a8 e3 1f 38 	sturb	w8, [x29, #-2]
100006788: 62 00 80 52 	mov	w2, #3
10000678c: 0e 00 00 14 	b	0x1000067c4 <__ZN50_$LT$$RF$mut$u20$W$u20$as$u20$core..fmt..Write$GT$10write_char17h63a15afc02c78bccE+0xb8>
100006790: 08 1e 80 52 	mov	w8, #240
100006794: 28 50 12 33 	bfxil	w8, w1, #18, #3
100006798: a8 c3 1f 38 	sturb	w8, [x29, #-4]
10000679c: 08 10 80 52 	mov	w8, #128
1000067a0: 09 10 80 52 	mov	w9, #128
1000067a4: 29 44 0c 33 	bfxil	w9, w1, #12, #6
1000067a8: a9 d3 1f 38 	sturb	w9, [x29, #-3]
1000067ac: 09 10 80 52 	mov	w9, #128
1000067b0: 29 2c 06 33 	bfxil	w9, w1, #6, #6
1000067b4: a9 e3 1f 38 	sturb	w9, [x29, #-2]
1000067b8: 28 14 00 33 	bfxil	w8, w1, #0, #6
1000067bc: a8 f3 1f 38 	sturb	w8, [x29, #-1]
1000067c0: 82 00 80 52 	mov	w2, #4
1000067c4: a1 13 00 d1 	sub	x1, x29, #4
1000067c8: 17 45 00 94 	bl	0x100017c24 <__ZN80_$LT$std..io..Write..write_fmt..Adapter$LT$T$GT$$u20$as$u20$core..fmt..Write$GT$9write_str17hb8ea9205fd4f45a6E>
1000067cc: fd 7b 41 a9 	ldp	x29, x30, [sp, #16]
1000067d0: ff 83 00 91 	add	sp, sp, #32
1000067d4: c0 03 5f d6 	ret

00000001000067d8 <__ZN50_$LT$$RF$mut$u20$W$u20$as$u20$core..fmt..Write$GT$10write_char17h6606e2651cdad39aE>:
1000067d8: fd 7b bf a9 	stp	x29, x30, [sp, #-16]!
1000067dc: fd 03 00 91 	mov	x29, sp
1000067e0: 00 00 40 f9 	ldr	x0, [x0]
1000067e4: 68 ed ff 97 	bl	0x100001d84 <__ZN4core3fmt5Write10write_char17h0d172b89de7f5acfE>
1000067e8: 00 00 80 52 	mov	w0, #0
1000067ec: fd 7b c1 a8 	ldp	x29, x30, [sp], #16
1000067f0: c0 03 5f d6 	ret

00000001000067f4 <__ZN50_$LT$$RF$mut$u20$W$u20$as$u20$core..fmt..Write$GT$10write_char17h986711879ed7dcd3E>:
1000067f4: ff 03 01 d1 	sub	sp, sp, #64
1000067f8: f6 57 01 a9 	stp	x22, x21, [sp, #16]
1000067fc: f4 4f 02 a9 	stp	x20, x19, [sp, #32]
100006800: fd 7b 03 a9 	stp	x29, x30, [sp, #48]
100006804: fd c3 00 91 	add	x29, sp, #48
100006808: f4 03 01 aa 	mov	x20, x1
10000680c: 13 00 40 f9 	ldr	x19, [x0]
100006810: 3f fc 01 71 	cmp	w1, #127
100006814: 88 01 00 54 	b.hi	0x100006844 <__ZN50_$LT$$RF$mut$u20$W$u20$as$u20$core..fmt..Write$GT$10write_char17h986711879ed7dcd3E+0x50>
100006818: 61 0a 40 f9 	ldr	x1, [x19, #16]
10000681c: 68 02 40 f9 	ldr	x8, [x19]
100006820: 3f 00 08 eb 	cmp	x1, x8
100006824: 81 00 00 54 	b.ne	0x100006834 <__ZN50_$LT$$RF$mut$u20$W$u20$as$u20$core..fmt..Write$GT$10write_char17h986711879ed7dcd3E+0x40>
100006828: e0 03 13 aa 	mov	x0, x19
10000682c: d2 04 00 94 	bl	0x100007b74 <__ZN5alloc7raw_vec19RawVec$LT$T$C$A$GT$16reserve_for_push17hb7831a2d016d3b0eE>
100006830: 61 0a 40 f9 	ldr	x1, [x19, #16]
100006834: 68 06 40 f9 	ldr	x8, [x19, #8]
100006838: 14 69 21 38 	strb	w20, [x8, x1]
10000683c: 28 04 00 91 	add	x8, x1, #1
100006840: 31 00 00 14 	b	0x100006904 <__ZN50_$LT$$RF$mut$u20$W$u20$as$u20$core..fmt..Write$GT$10write_char17h986711879ed7dcd3E+0x110>
100006844: ff 0f 00 b9 	str	wzr, [sp, #12]
100006848: 9f 02 20 71 	cmp	w20, #2048
10000684c: 22 01 00 54 	b.hs	0x100006870 <__ZN50_$LT$$RF$mut$u20$W$u20$as$u20$core..fmt..Write$GT$10write_char17h986711879ed7dcd3E+0x7c>
100006850: 88 7e 06 53 	lsr	w8, w20, #6
100006854: 08 05 1a 32 	orr	w8, w8, #0xc0
100006858: e8 33 00 39 	strb	w8, [sp, #12]
10000685c: 08 10 80 52 	mov	w8, #128
100006860: 88 16 00 33 	bfxil	w8, w20, #0, #6
100006864: e8 37 00 39 	strb	w8, [sp, #13]
100006868: 54 00 80 52 	mov	w20, #2
10000686c: 1b 00 00 14 	b	0x1000068d8 <__ZN50_$LT$$RF$mut$u20$W$u20$as$u20$core..fmt..Write$GT$10write_char17h986711879ed7dcd3E+0xe4>
100006870: 9f 42 40 71 	cmp	w20, #16, lsl #12       ; =65536
100006874: 82 01 00 54 	b.hs	0x1000068a4 <__ZN50_$LT$$RF$mut$u20$W$u20$as$u20$core..fmt..Write$GT$10write_char17h986711879ed7dcd3E+0xb0>
100006878: 88 7e 0c 53 	lsr	w8, w20, #12
10000687c: 08 09 1b 32 	orr	w8, w8, #0xe0
100006880: e8 33 00 39 	strb	w8, [sp, #12]
100006884: 08 10 80 52 	mov	w8, #128
100006888: 09 10 80 52 	mov	w9, #128
10000688c: 89 2e 06 33 	bfxil	w9, w20, #6, #6
100006890: e9 37 00 39 	strb	w9, [sp, #13]
100006894: 88 16 00 33 	bfxil	w8, w20, #0, #6
100006898: e8 3b 00 39 	strb	w8, [sp, #14]
10000689c: 74 00 80 52 	mov	w20, #3
1000068a0: 0e 00 00 14 	b	0x1000068d8 <__ZN50_$LT$$RF$mut$u20$W$u20$as$u20$core..fmt..Write$GT$10write_char17h986711879ed7dcd3E+0xe4>
1000068a4: 08 1e 80 52 	mov	w8, #240
1000068a8: 88 52 12 33 	bfxil	w8, w20, #18, #3
1000068ac: e8 33 00 39 	strb	w8, [sp, #12]
1000068b0: 08 10 80 52 	mov	w8, #128
1000068b4: 09 10 80 52 	mov	w9, #128
1000068b8: 89 46 0c 33 	bfxil	w9, w20, #12, #6
1000068bc: e9 37 00 39 	strb	w9, [sp, #13]
1000068c0: 09 10 80 52 	mov	w9, #128
1000068c4: 89 2e 06 33 	bfxil	w9, w20, #6, #6
1000068c8: e9 3b 00 39 	strb	w9, [sp, #14]
1000068cc: 88 16 00 33 	bfxil	w8, w20, #0, #6
1000068d0: e8 3f 00 39 	strb	w8, [sp, #15]
1000068d4: 94 00 80 52 	mov	w20, #4
1000068d8: 75 0a 40 f9 	ldr	x21, [x19, #16]
1000068dc: 68 02 40 f9 	ldr	x8, [x19]
1000068e0: 08 01 15 cb 	sub	x8, x8, x21
1000068e4: 1f 01 14 eb 	cmp	x8, x20
1000068e8: c3 01 00 54 	b.lo	0x100006920 <__ZN50_$LT$$RF$mut$u20$W$u20$as$u20$core..fmt..Write$GT$10write_char17h986711879ed7dcd3E+0x12c>
1000068ec: 68 06 40 f9 	ldr	x8, [x19, #8]
1000068f0: 00 01 15 8b 	add	x0, x8, x21
1000068f4: e1 33 00 91 	add	x1, sp, #12
1000068f8: e2 03 14 aa 	mov	x2, x20
1000068fc: 8e ae 00 94 	bl	0x100032334 <_writev+0x100032334>
100006900: a8 02 14 8b 	add	x8, x21, x20
100006904: 68 0a 00 f9 	str	x8, [x19, #16]
100006908: 00 00 80 52 	mov	w0, #0
10000690c: fd 7b 43 a9 	ldp	x29, x30, [sp, #48]
100006910: f4 4f 42 a9 	ldp	x20, x19, [sp, #32]
100006914: f6 57 41 a9 	ldp	x22, x21, [sp, #16]
100006918: ff 03 01 91 	add	sp, sp, #64
10000691c: c0 03 5f d6 	ret
100006920: e0 03 13 aa 	mov	x0, x19
100006924: e1 03 15 aa 	mov	x1, x21
100006928: e2 03 14 aa 	mov	x2, x20
10000692c: ee a8 00 94 	bl	0x100030ce4 <__ZN5alloc7raw_vec19RawVec$LT$T$C$A$GT$7reserve21do_reserve_and_handle17h1cf7040786561bc0E>
100006930: 75 0a 40 f9 	ldr	x21, [x19, #16]
100006934: ee ff ff 17 	b	0x1000068ec <__ZN50_$LT$$RF$mut$u20$W$u20$as$u20$core..fmt..Write$GT$10write_char17h986711879ed7dcd3E+0xf8>

0000000100006938 <__ZN50_$LT$$RF$mut$u20$W$u20$as$u20$core..fmt..Write$GT$9write_fmt17h0cbd84ef8c56a584E>:
100006938: ff 43 01 d1 	sub	sp, sp, #80
10000693c: fd 7b 04 a9 	stp	x29, x30, [sp, #64]
100006940: fd 03 01 91 	add	x29, sp, #64
100006944: 08 00 40 f9 	ldr	x8, [x0]
100006948: e8 07 00 f9 	str	x8, [sp, #8]
10000694c: 20 04 40 ad 	ldp	q0, q1, [x1]
100006950: e0 87 00 ad 	stp	q0, q1, [sp, #16]
100006954: 20 08 c0 3d 	ldr	q0, [x1, #32]
100006958: e0 0f 80 3d 	str	q0, [sp, #48]
10000695c: e1 c9 1c 10 	adr	x1, #235836
100006960: 1f 20 03 d5 	nop
100006964: e0 23 00 91 	add	x0, sp, #8
100006968: e2 43 00 91 	add	x2, sp, #16
10000696c: 94 91 00 94 	bl	0x10002afbc <__ZN4core3fmt5write17h34766cf8fff7af1eE>
100006970: fd 7b 44 a9 	ldp	x29, x30, [sp, #64]
100006974: ff 43 01 91 	add	sp, sp, #80
100006978: c0 03 5f d6 	ret

000000010000697c <__ZN50_$LT$$RF$mut$u20$W$u20$as$u20$core..fmt..Write$GT$9write_fmt17h5adf5ac5c7fce902E>:
10000697c: ff 43 01 d1 	sub	sp, sp, #80
100006980: fd 7b 04 a9 	stp	x29, x30, [sp, #64]
100006984: fd 03 01 91 	add	x29, sp, #64
100006988: 08 00 40 f9 	ldr	x8, [x0]
10000698c: e8 07 00 f9 	str	x8, [sp, #8]
100006990: 20 04 40 ad 	ldp	q0, q1, [x1]
100006994: e0 87 00 ad 	stp	q0, q1, [sp, #16]
100006998: 20 08 c0 3d 	ldr	q0, [x1, #32]
10000699c: e0 0f 80 3d 	str	q0, [sp, #48]
1000069a0: 41 c9 1c 10 	adr	x1, #235816
1000069a4: 1f 20 03 d5 	nop
1000069a8: e0 23 00 91 	add	x0, sp, #8
1000069ac: e2 43 00 91 	add	x2, sp, #16
1000069b0: 83 91 00 94 	bl	0x10002afbc <__ZN4core3fmt5write17h34766cf8fff7af1eE>
1000069b4: fd 7b 44 a9 	ldp	x29, x30, [sp, #64]
1000069b8: ff 43 01 91 	add	sp, sp, #80
1000069bc: c0 03 5f d6 	ret

00000001000069c0 <__ZN50_$LT$$RF$mut$u20$W$u20$as$u20$core..fmt..Write$GT$9write_fmt17h81d7c1cd26f35a3aE>:
1000069c0: ff 43 01 d1 	sub	sp, sp, #80
1000069c4: fd 7b 04 a9 	stp	x29, x30, [sp, #64]
1000069c8: fd 03 01 91 	add	x29, sp, #64
1000069cc: 08 00 40 f9 	ldr	x8, [x0]
1000069d0: e8 07 00 f9 	str	x8, [sp, #8]
1000069d4: 20 04 40 ad 	ldp	q0, q1, [x1]
1000069d8: e0 87 00 ad 	stp	q0, q1, [sp, #16]
1000069dc: 20 08 c0 3d 	ldr	q0, [x1, #32]
1000069e0: e0 0f 80 3d 	str	q0, [sp, #48]
1000069e4: 21 c4 1c 10 	adr	x1, #235652
1000069e8: 1f 20 03 d5 	nop
1000069ec: e0 23 00 91 	add	x0, sp, #8
1000069f0: e2 43 00 91 	add	x2, sp, #16
1000069f4: 72 91 00 94 	bl	0x10002afbc <__ZN4core3fmt5write17h34766cf8fff7af1eE>
1000069f8: fd 7b 44 a9 	ldp	x29, x30, [sp, #64]
1000069fc: ff 43 01 91 	add	sp, sp, #80
100006a00: c0 03 5f d6 	ret

0000000100006a04 <__ZN50_$LT$$RF$mut$u20$W$u20$as$u20$core..fmt..Write$GT$9write_fmt17hb11ab8a3c3ec453dE>:
100006a04: ff 43 01 d1 	sub	sp, sp, #80
100006a08: fd 7b 04 a9 	stp	x29, x30, [sp, #64]
100006a0c: fd 03 01 91 	add	x29, sp, #64
100006a10: 08 00 40 f9 	ldr	x8, [x0]
100006a14: e8 07 00 f9 	str	x8, [sp, #8]
100006a18: 20 04 40 ad 	ldp	q0, q1, [x1]
100006a1c: e0 87 00 ad 	stp	q0, q1, [sp, #16]
100006a20: 20 08 c0 3d 	ldr	q0, [x1, #32]
100006a24: e0 0f 80 3d 	str	q0, [sp, #48]
100006a28: 81 c6 1c 10 	adr	x1, #235728
100006a2c: 1f 20 03 d5 	nop
100006a30: e0 23 00 91 	add	x0, sp, #8
100006a34: e2 43 00 91 	add	x2, sp, #16
100006a38: 61 91 00 94 	bl	0x10002afbc <__ZN4core3fmt5write17h34766cf8fff7af1eE>
100006a3c: fd 7b 44 a9 	ldp	x29, x30, [sp, #64]
100006a40: ff 43 01 91 	add	sp, sp, #80
100006a44: c0 03 5f d6 	ret

0000000100006a48 <__ZN50_$LT$$RF$mut$u20$W$u20$as$u20$core..fmt..Write$GT$9write_str17h135000998d53374dE>:
100006a48: f6 57 bd a9 	stp	x22, x21, [sp, #-48]!
100006a4c: f4 4f 01 a9 	stp	x20, x19, [sp, #16]
100006a50: fd 7b 02 a9 	stp	x29, x30, [sp, #32]
100006a54: fd 83 00 91 	add	x29, sp, #32
100006a58: f3 03 02 aa 	mov	x19, x2
100006a5c: f5 03 01 aa 	mov	x21, x1
100006a60: 14 00 40 f9 	ldr	x20, [x0]
100006a64: 96 0a 40 f9 	ldr	x22, [x20, #16]
100006a68: 88 02 40 f9 	ldr	x8, [x20]
100006a6c: 08 01 16 cb 	sub	x8, x8, x22
100006a70: 1f 01 02 eb 	cmp	x8, x2
100006a74: a3 01 00 54 	b.lo	0x100006aa8 <__ZN50_$LT$$RF$mut$u20$W$u20$as$u20$core..fmt..Write$GT$9write_str17h135000998d53374dE+0x60>
100006a78: 88 06 40 f9 	ldr	x8, [x20, #8]
100006a7c: 00 01 16 8b 	add	x0, x8, x22
100006a80: e1 03 15 aa 	mov	x1, x21
100006a84: e2 03 13 aa 	mov	x2, x19
100006a88: 2b ae 00 94 	bl	0x100032334 <_writev+0x100032334>
100006a8c: c8 02 13 8b 	add	x8, x22, x19
100006a90: 88 0a 00 f9 	str	x8, [x20, #16]
100006a94: 00 00 80 52 	mov	w0, #0
100006a98: fd 7b 42 a9 	ldp	x29, x30, [sp, #32]
100006a9c: f4 4f 41 a9 	ldp	x20, x19, [sp, #16]
100006aa0: f6 57 c3 a8 	ldp	x22, x21, [sp], #48
100006aa4: c0 03 5f d6 	ret
100006aa8: e0 03 14 aa 	mov	x0, x20
100006aac: e1 03 16 aa 	mov	x1, x22
100006ab0: e2 03 13 aa 	mov	x2, x19
100006ab4: 8c a8 00 94 	bl	0x100030ce4 <__ZN5alloc7raw_vec19RawVec$LT$T$C$A$GT$7reserve21do_reserve_and_handle17h1cf7040786561bc0E>
100006ab8: 96 0a 40 f9 	ldr	x22, [x20, #16]
100006abc: ef ff ff 17 	b	0x100006a78 <__ZN50_$LT$$RF$mut$u20$W$u20$as$u20$core..fmt..Write$GT$9write_str17h135000998d53374dE+0x30>

0000000100006ac0 <__ZN50_$LT$$RF$mut$u20$W$u20$as$u20$core..fmt..Write$GT$9write_str17h60e4ed12b9e9dec1E>:
100006ac0: 00 00 40 f9 	ldr	x0, [x0]
100006ac4: 58 44 00 14 	b	0x100017c24 <__ZN80_$LT$std..io..Write..write_fmt..Adapter$LT$T$GT$$u20$as$u20$core..fmt..Write$GT$9write_str17hb8ea9205fd4f45a6E>

0000000100006ac8 <__ZN50_$LT$$RF$mut$u20$W$u20$as$u20$core..fmt..Write$GT$9write_str17h95c244635f0aee20E>:
100006ac8: 00 00 40 f9 	ldr	x0, [x0]
100006acc: 09 44 00 14 	b	0x100017af0 <__ZN80_$LT$std..io..Write..write_fmt..Adapter$LT$T$GT$$u20$as$u20$core..fmt..Write$GT$9write_str17h6c38d21cd76303d5E>

0000000100006ad0 <__ZN50_$LT$$RF$mut$u20$W$u20$as$u20$core..fmt..Write$GT$9write_str17hbc39afab920488faE>:
100006ad0: f6 57 bd a9 	stp	x22, x21, [sp, #-48]!
100006ad4: f4 4f 01 a9 	stp	x20, x19, [sp, #16]
100006ad8: fd 7b 02 a9 	stp	x29, x30, [sp, #32]
100006adc: fd 83 00 91 	add	x29, sp, #32
100006ae0: f3 03 02 aa 	mov	x19, x2
100006ae4: f5 03 01 aa 	mov	x21, x1
100006ae8: 08 00 40 f9 	ldr	x8, [x0]
100006aec: 14 05 40 f9 	ldr	x20, [x8, #8]
100006af0: 96 0a 40 f9 	ldr	x22, [x20, #16]
100006af4: 88 02 40 f9 	ldr	x8, [x20]
100006af8: 08 01 16 cb 	sub	x8, x8, x22
100006afc: 1f 01 02 eb 	cmp	x8, x2
100006b00: a3 01 00 54 	b.lo	0x100006b34 <__ZN50_$LT$$RF$mut$u20$W$u20$as$u20$core..fmt..Write$GT$9write_str17hbc39afab920488faE+0x64>
100006b04: 88 06 40 f9 	ldr	x8, [x20, #8]
100006b08: 00 01 16 8b 	add	x0, x8, x22
100006b0c: e1 03 15 aa 	mov	x1, x21
100006b10: e2 03 13 aa 	mov	x2, x19
100006b14: 08 ae 00 94 	bl	0x100032334 <_writev+0x100032334>
100006b18: c8 02 13 8b 	add	x8, x22, x19
100006b1c: 88 0a 00 f9 	str	x8, [x20, #16]
100006b20: 00 00 80 52 	mov	w0, #0
100006b24: fd 7b 42 a9 	ldp	x29, x30, [sp, #32]
100006b28: f4 4f 41 a9 	ldp	x20, x19, [sp, #16]
100006b2c: f6 57 c3 a8 	ldp	x22, x21, [sp], #48
100006b30: c0 03 5f d6 	ret
100006b34: e0 03 14 aa 	mov	x0, x20
100006b38: e1 03 16 aa 	mov	x1, x22
100006b3c: e2 03 13 aa 	mov	x2, x19
100006b40: 69 a8 00 94 	bl	0x100030ce4 <__ZN5alloc7raw_vec19RawVec$LT$T$C$A$GT$7reserve21do_reserve_and_handle17h1cf7040786561bc0E>
100006b44: 96 0a 40 f9 	ldr	x22, [x20, #16]
100006b48: ef ff ff 17 	b	0x100006b04 <__ZN50_$LT$$RF$mut$u20$W$u20$as$u20$core..fmt..Write$GT$9write_str17hbc39afab920488faE+0x34>

0000000100006b4c <__ZN55_$LT$$RF$str$u20$as$u20$core..str..pattern..Pattern$GT$15is_contained_in17hf636a006594aeb1eE>:
100006b4c: ff 43 02 d1 	sub	sp, sp, #144
100006b50: f4 4f 07 a9 	stp	x20, x19, [sp, #112]
100006b54: fd 7b 08 a9 	stp	x29, x30, [sp, #128]
100006b58: fd 03 02 91 	add	x29, sp, #128
100006b5c: ea 03 01 aa 	mov	x10, x1
100006b60: e9 03 00 aa 	mov	x9, x0
100006b64: 3f 00 03 eb 	cmp	x1, x3
100006b68: 02 03 00 54 	b.hs	0x100006bc8 <__ZN55_$LT$$RF$str$u20$as$u20$core..str..pattern..Pattern$GT$15is_contained_in17hf636a006594aeb1eE+0x7c>
100006b6c: e8 23 00 91 	add	x8, sp, #8
100006b70: e0 03 02 aa 	mov	x0, x2
100006b74: e1 03 03 aa 	mov	x1, x3
100006b78: e2 03 09 aa 	mov	x2, x9
100006b7c: e3 03 0a aa 	mov	x3, x10
100006b80: 9a 9a 00 94 	bl	0x10002d5e8 <__ZN4core3str7pattern11StrSearcher3new17h48094438c88d9432E>
100006b84: e8 17 40 f9 	ldr	x8, [sp, #40]
100006b88: c8 08 00 b4 	cbz	x8, 0x100006ca0 <__ZN55_$LT$$RF$str$u20$as$u20$core..str..pattern..Pattern$GT$15is_contained_in17hf636a006594aeb1eE+0x154>
100006b8c: ec 33 40 f9 	ldr	x12, [sp, #96]
100006b90: ea 87 40 a9 	ldp	x10, x1, [sp, #8]
100006b94: eb a3 41 a9 	ldp	x11, x8, [sp, #24]
100006b98: 9f 05 00 b1 	cmn	x12, #1
100006b9c: e0 0f 00 54 	b.eq	0x100006d98 <__ZN55_$LT$$RF$str$u20$as$u20$core..str..pattern..Pattern$GT$15is_contained_in17hf636a006594aeb1eE+0x24c>
100006ba0: ed 2b 40 f9 	ldr	x13, [sp, #80]
100006ba4: 0e 05 00 d1 	sub	x14, x8, #1
100006ba8: c9 01 0d 8b 	add	x9, x14, x13
100006bac: 3f 01 01 eb 	cmp	x9, x1
100006bb0: c2 16 00 54 	b.hs	0x100006e88 <__ZN55_$LT$$RF$str$u20$as$u20$core..str..pattern..Pattern$GT$15is_contained_in17hf636a006594aeb1eE+0x33c>
100006bb4: f1 3f 44 a9 	ldp	x17, x15, [sp, #64]
100006bb8: f0 1b 40 f9 	ldr	x16, [sp, #48]
100006bbc: 02 01 11 cb 	sub	x2, x8, x17
100006bc0: 03 06 00 d1 	sub	x3, x16, #1
100006bc4: 0e 00 00 14 	b	0x100006bfc <__ZN55_$LT$$RF$str$u20$as$u20$core..str..pattern..Pattern$GT$15is_contained_in17hf636a006594aeb1eE+0xb0>
100006bc8: 01 16 00 54 	b.ne	0x100006e88 <__ZN55_$LT$$RF$str$u20$as$u20$core..str..pattern..Pattern$GT$15is_contained_in17hf636a006594aeb1eE+0x33c>
100006bcc: e0 03 09 aa 	mov	x0, x9
100006bd0: e1 03 02 aa 	mov	x1, x2
100006bd4: e2 03 0a aa 	mov	x2, x10
100006bd8: d4 ad 00 94 	bl	0x100032328 <_writev+0x100032328>
100006bdc: 1f 00 00 71 	cmp	w0, #0
100006be0: e0 17 9f 1a 	cset	w0, eq
100006be4: aa 00 00 14 	b	0x100006e8c <__ZN55_$LT$$RF$str$u20$as$u20$core..str..pattern..Pattern$GT$15is_contained_in17hf636a006594aeb1eE+0x340>
100006be8: 0c 00 80 d2 	mov	x12, #0
100006bec: ad 01 08 8b 	add	x13, x13, x8
100006bf0: c9 01 0d 8b 	add	x9, x14, x13
100006bf4: 3f 01 01 eb 	cmp	x9, x1
100006bf8: 22 15 00 54 	b.hs	0x100006e9c <__ZN55_$LT$$RF$str$u20$as$u20$core..str..pattern..Pattern$GT$15is_contained_in17hf636a006594aeb1eE+0x350>
100006bfc: 49 69 69 38 	ldrb	w9, [x10, x9]
100006c00: e9 25 c9 9a 	lsr	x9, x15, x9
100006c04: 29 ff 07 36 	tbz	w9, #0, 0x100006be8 <__ZN55_$LT$$RF$str$u20$as$u20$core..str..pattern..Pattern$GT$15is_contained_in17hf636a006594aeb1eE+0x9c>
100006c08: 1f 02 0c eb 	cmp	x16, x12
100006c0c: 09 82 8c 9a 	csel	x9, x16, x12, hi
100006c10: 60 01 09 8b 	add	x0, x11, x9
100006c14: a6 01 09 8b 	add	x6, x13, x9
100006c18: 04 01 09 eb 	subs	x4, x8, x9
100006c1c: e4 33 84 9a 	csel	x4, xzr, x4, lo
100006c20: c4 01 00 b4 	cbz	x4, 0x100006c58 <__ZN55_$LT$$RF$str$u20$as$u20$core..str..pattern..Pattern$GT$15is_contained_in17hf636a006594aeb1eE+0x10c>
100006c24: e5 03 06 aa 	mov	x5, x6
100006c28: df 00 01 eb 	cmp	x6, x1
100006c2c: 02 14 00 54 	b.hs	0x100006eac <__ZN55_$LT$$RF$str$u20$as$u20$core..str..pattern..Pattern$GT$15is_contained_in17hf636a006594aeb1eE+0x360>
100006c30: 07 14 40 38 	ldrb	w7, [x0], #1
100006c34: 53 69 65 38 	ldrb	w19, [x10, x5]
100006c38: a6 04 00 91 	add	x6, x5, #1
100006c3c: 84 04 00 d1 	sub	x4, x4, #1
100006c40: ff 00 13 6b 	cmp	w7, w19
100006c44: e0 fe ff 54 	b.eq	0x100006c20 <__ZN55_$LT$$RF$str$u20$as$u20$core..str..pattern..Pattern$GT$15is_contained_in17hf636a006594aeb1eE+0xd4>
100006c48: 0c 00 80 d2 	mov	x12, #0
100006c4c: a9 00 10 cb 	sub	x9, x5, x16
100006c50: 2d 05 00 91 	add	x13, x9, #1
100006c54: e7 ff ff 17 	b	0x100006bf0 <__ZN55_$LT$$RF$str$u20$as$u20$core..str..pattern..Pattern$GT$15is_contained_in17hf636a006594aeb1eE+0xa4>
100006c58: 44 01 0d 8b 	add	x4, x10, x13
100006c5c: e0 03 03 aa 	mov	x0, x3
100006c60: 09 04 00 91 	add	x9, x0, #1
100006c64: 9f 01 09 eb 	cmp	x12, x9
100006c68: 02 10 00 54 	b.hs	0x100006e68 <__ZN55_$LT$$RF$str$u20$as$u20$core..str..pattern..Pattern$GT$15is_contained_in17hf636a006594aeb1eE+0x31c>
100006c6c: 1f 00 08 eb 	cmp	x0, x8
100006c70: 22 12 00 54 	b.hs	0x100006eb4 <__ZN55_$LT$$RF$str$u20$as$u20$core..str..pattern..Pattern$GT$15is_contained_in17hf636a006594aeb1eE+0x368>
100006c74: a9 01 00 8b 	add	x9, x13, x0
100006c78: 3f 01 01 eb 	cmp	x9, x1
100006c7c: 42 12 00 54 	b.hs	0x100006ec4 <__ZN55_$LT$$RF$str$u20$as$u20$core..str..pattern..Pattern$GT$15is_contained_in17hf636a006594aeb1eE+0x378>
100006c80: 69 69 60 38 	ldrb	w9, [x11, x0]
100006c84: 85 68 60 38 	ldrb	w5, [x4, x0]
100006c88: 00 04 00 d1 	sub	x0, x0, #1
100006c8c: 3f 01 05 6b 	cmp	w9, w5
100006c90: 80 fe ff 54 	b.eq	0x100006c60 <__ZN55_$LT$$RF$str$u20$as$u20$core..str..pattern..Pattern$GT$15is_contained_in17hf636a006594aeb1eE+0x114>
100006c94: ad 01 11 8b 	add	x13, x13, x17
100006c98: ec 03 02 aa 	mov	x12, x2
100006c9c: d5 ff ff 17 	b	0x100006bf0 <__ZN55_$LT$$RF$str$u20$as$u20$core..str..pattern..Pattern$GT$15is_contained_in17hf636a006594aeb1eE+0xa4>
100006ca0: e8 0b 41 39 	ldrb	w8, [sp, #66]
100006ca4: 28 0f 00 35 	cbnz	w8, 0x100006e88 <__ZN55_$LT$$RF$str$u20$as$u20$core..str..pattern..Pattern$GT$15is_contained_in17hf636a006594aeb1eE+0x33c>
100006ca8: e0 87 40 a9 	ldp	x0, x1, [sp, #8]
100006cac: e8 03 41 39 	ldrb	w8, [sp, #64]
100006cb0: e2 1b 40 f9 	ldr	x2, [sp, #48]
100006cb4: 1f 01 00 71 	cmp	w8, #0
100006cb8: e9 17 9f 1a 	cset	w9, eq
100006cbc: 68 00 80 52 	mov	w8, #3
100006cc0: 04 00 00 14 	b	0x100006cd0 <__ZN55_$LT$$RF$str$u20$as$u20$core..str..pattern..Pattern$GT$15is_contained_in17hf636a006594aeb1eE+0x184>
100006cc4: 2a 00 80 52 	mov	w10, #1
100006cc8: 09 00 80 52 	mov	w9, #0
100006ccc: 42 01 02 8b 	add	x2, x10, x2
100006cd0: ea 03 01 aa 	mov	x10, x1
100006cd4: 02 01 00 b4 	cbz	x2, 0x100006cf4 <__ZN55_$LT$$RF$str$u20$as$u20$core..str..pattern..Pattern$GT$15is_contained_in17hf636a006594aeb1eE+0x1a8>
100006cd8: 2a 00 02 eb 	subs	x10, x1, x2
100006cdc: a9 00 00 54 	b.ls	0x100006cf0 <__ZN55_$LT$$RF$str$u20$as$u20$core..str..pattern..Pattern$GT$15is_contained_in17hf636a006594aeb1eE+0x1a4>
100006ce0: 0b 68 e2 38 	ldrsb	w11, [x0, x2]
100006ce4: 7f 01 01 31 	cmn	w11, #64
100006ce8: 6a 00 00 54 	b.ge	0x100006cf4 <__ZN55_$LT$$RF$str$u20$as$u20$core..str..pattern..Pattern$GT$15is_contained_in17hf636a006594aeb1eE+0x1a8>
100006cec: 80 00 00 14 	b	0x100006eec <__ZN55_$LT$$RF$str$u20$as$u20$core..str..pattern..Pattern$GT$15is_contained_in17hf636a006594aeb1eE+0x3a0>
100006cf0: e1 0f 00 54 	b.ne	0x100006eec <__ZN55_$LT$$RF$str$u20$as$u20$core..str..pattern..Pattern$GT$15is_contained_in17hf636a006594aeb1eE+0x3a0>
100006cf4: 2a 0c 00 b4 	cbz	x10, 0x100006e78 <__ZN55_$LT$$RF$str$u20$as$u20$core..str..pattern..Pattern$GT$15is_contained_in17hf636a006594aeb1eE+0x32c>
100006cf8: 0c 00 02 8b 	add	x12, x0, x2
100006cfc: 8a 01 c0 39 	ldrsb	w10, [x12]
100006d00: 4d 1d 00 12 	and	w13, w10, #0xff
100006d04: 8a 00 f8 37 	tbnz	w10, #31, 0x100006d14 <__ZN55_$LT$$RF$str$u20$as$u20$core..str..pattern..Pattern$GT$15is_contained_in17hf636a006594aeb1eE+0x1c8>
100006d08: ea 03 0d aa 	mov	x10, x13
100006d0c: 09 03 00 37 	tbnz	w9, #0, 0x100006d6c <__ZN55_$LT$$RF$str$u20$as$u20$core..str..pattern..Pattern$GT$15is_contained_in17hf636a006594aeb1eE+0x220>
100006d10: 5b 00 00 14 	b	0x100006e7c <__ZN55_$LT$$RF$str$u20$as$u20$core..str..pattern..Pattern$GT$15is_contained_in17hf636a006594aeb1eE+0x330>
100006d14: ab 11 00 12 	and	w11, w13, #0x1f
100006d18: 8a 05 40 39 	ldrb	w10, [x12, #1]
100006d1c: 4a 15 00 12 	and	w10, w10, #0x3f
100006d20: bf 81 03 71 	cmp	w13, #224
100006d24: 83 01 00 54 	b.lo	0x100006d54 <__ZN55_$LT$$RF$str$u20$as$u20$core..str..pattern..Pattern$GT$15is_contained_in17hf636a006594aeb1eE+0x208>
100006d28: 8e 09 40 39 	ldrb	w14, [x12, #2]
100006d2c: ce 15 00 12 	and	w14, w14, #0x3f
100006d30: 4e 15 1a 33 	bfi	w14, w10, #6, #6
100006d34: bf c1 03 71 	cmp	w13, #240
100006d38: 43 01 00 54 	b.lo	0x100006d60 <__ZN55_$LT$$RF$str$u20$as$u20$core..str..pattern..Pattern$GT$15is_contained_in17hf636a006594aeb1eE+0x214>
100006d3c: 8a 0d 40 39 	ldrb	w10, [x12, #3]
100006d40: 4a 15 00 12 	and	w10, w10, #0x3f
100006d44: ca 2d 1a 33 	bfi	w10, w14, #6, #12
100006d48: 6a 09 0e 33 	bfi	w10, w11, #18, #3
100006d4c: 09 01 00 37 	tbnz	w9, #0, 0x100006d6c <__ZN55_$LT$$RF$str$u20$as$u20$core..str..pattern..Pattern$GT$15is_contained_in17hf636a006594aeb1eE+0x220>
100006d50: 4b 00 00 14 	b	0x100006e7c <__ZN55_$LT$$RF$str$u20$as$u20$core..str..pattern..Pattern$GT$15is_contained_in17hf636a006594aeb1eE+0x330>
100006d54: 6a 11 1a 33 	bfi	w10, w11, #6, #5
100006d58: a9 00 00 37 	tbnz	w9, #0, 0x100006d6c <__ZN55_$LT$$RF$str$u20$as$u20$core..str..pattern..Pattern$GT$15is_contained_in17hf636a006594aeb1eE+0x220>
100006d5c: 48 00 00 14 	b	0x100006e7c <__ZN55_$LT$$RF$str$u20$as$u20$core..str..pattern..Pattern$GT$15is_contained_in17hf636a006594aeb1eE+0x330>
100006d60: 6e 11 14 33 	bfi	w14, w11, #12, #5
100006d64: ea 03 0e aa 	mov	x10, x14
100006d68: a9 08 00 36 	tbz	w9, #0, 0x100006e7c <__ZN55_$LT$$RF$str$u20$as$u20$core..str..pattern..Pattern$GT$15is_contained_in17hf636a006594aeb1eE+0x330>
100006d6c: 5f 41 44 71 	cmp	w10, #272, lsl #12      ; =1114112
100006d70: a0 08 00 54 	b.eq	0x100006e84 <__ZN55_$LT$$RF$str$u20$as$u20$core..str..pattern..Pattern$GT$15is_contained_in17hf636a006594aeb1eE+0x338>
100006d74: 5f 01 02 71 	cmp	w10, #128
100006d78: 63 fa ff 54 	b.lo	0x100006cc4 <__ZN55_$LT$$RF$str$u20$as$u20$core..str..pattern..Pattern$GT$15is_contained_in17hf636a006594aeb1eE+0x178>
100006d7c: 5f 01 20 71 	cmp	w10, #2048
100006d80: 62 00 00 54 	b.hs	0x100006d8c <__ZN55_$LT$$RF$str$u20$as$u20$core..str..pattern..Pattern$GT$15is_contained_in17hf636a006594aeb1eE+0x240>
100006d84: 4a 00 80 52 	mov	w10, #2
100006d88: d0 ff ff 17 	b	0x100006cc8 <__ZN55_$LT$$RF$str$u20$as$u20$core..str..pattern..Pattern$GT$15is_contained_in17hf636a006594aeb1eE+0x17c>
100006d8c: 5f 41 40 71 	cmp	w10, #16, lsl #12       ; =65536
100006d90: 0a 35 88 9a 	cinc	x10, x8, hs
100006d94: cd ff ff 17 	b	0x100006cc8 <__ZN55_$LT$$RF$str$u20$as$u20$core..str..pattern..Pattern$GT$15is_contained_in17hf636a006594aeb1eE+0x17c>
100006d98: ec 2b 40 f9 	ldr	x12, [sp, #80]
100006d9c: 0d 05 00 d1 	sub	x13, x8, #1
100006da0: a9 01 0c 8b 	add	x9, x13, x12
100006da4: 3f 01 01 eb 	cmp	x9, x1
100006da8: 02 07 00 54 	b.hs	0x100006e88 <__ZN55_$LT$$RF$str$u20$as$u20$core..str..pattern..Pattern$GT$15is_contained_in17hf636a006594aeb1eE+0x33c>
100006dac: f0 3f 44 a9 	ldp	x16, x15, [sp, #64]
100006db0: ee 1b 40 f9 	ldr	x14, [sp, #48]
100006db4: d1 05 00 d1 	sub	x17, x14, #1
100006db8: 62 01 0e 8b 	add	x2, x11, x14
100006dbc: 00 01 0e eb 	subs	x0, x8, x14
100006dc0: e3 33 80 9a 	csel	x3, xzr, x0, lo
100006dc4: 06 00 00 14 	b	0x100006ddc <__ZN55_$LT$$RF$str$u20$as$u20$core..str..pattern..Pattern$GT$15is_contained_in17hf636a006594aeb1eE+0x290>
100006dc8: 8c 01 08 8b 	add	x12, x12, x8
100006dcc: 00 00 80 52 	mov	w0, #0
100006dd0: a9 01 0c 8b 	add	x9, x13, x12
100006dd4: 3f 01 01 eb 	cmp	x9, x1
100006dd8: a2 05 00 54 	b.hs	0x100006e8c <__ZN55_$LT$$RF$str$u20$as$u20$core..str..pattern..Pattern$GT$15is_contained_in17hf636a006594aeb1eE+0x340>
100006ddc: 49 69 69 38 	ldrb	w9, [x10, x9]
100006de0: e9 25 c9 9a 	lsr	x9, x15, x9
100006de4: 29 ff 07 36 	tbz	w9, #0, 0x100006dc8 <__ZN55_$LT$$RF$str$u20$as$u20$core..str..pattern..Pattern$GT$15is_contained_in17hf636a006594aeb1eE+0x27c>
100006de8: c5 01 0c 8b 	add	x5, x14, x12
100006dec: e9 03 03 aa 	mov	x9, x3
100006df0: e0 03 02 aa 	mov	x0, x2
100006df4: a9 01 00 b4 	cbz	x9, 0x100006e28 <__ZN55_$LT$$RF$str$u20$as$u20$core..str..pattern..Pattern$GT$15is_contained_in17hf636a006594aeb1eE+0x2dc>
100006df8: e4 03 05 aa 	mov	x4, x5
100006dfc: bf 00 01 eb 	cmp	x5, x1
100006e00: a2 06 00 54 	b.hs	0x100006ed4 <__ZN55_$LT$$RF$str$u20$as$u20$core..str..pattern..Pattern$GT$15is_contained_in17hf636a006594aeb1eE+0x388>
100006e04: 06 14 40 38 	ldrb	w6, [x0], #1
100006e08: 47 69 64 38 	ldrb	w7, [x10, x4]
100006e0c: 85 04 00 91 	add	x5, x4, #1
100006e10: 29 05 00 d1 	sub	x9, x9, #1
100006e14: df 00 07 6b 	cmp	w6, w7
100006e18: e0 fe ff 54 	b.eq	0x100006df4 <__ZN55_$LT$$RF$str$u20$as$u20$core..str..pattern..Pattern$GT$15is_contained_in17hf636a006594aeb1eE+0x2a8>
100006e1c: 89 00 0e cb 	sub	x9, x4, x14
100006e20: 2c 05 00 91 	add	x12, x9, #1
100006e24: ea ff ff 17 	b	0x100006dcc <__ZN55_$LT$$RF$str$u20$as$u20$core..str..pattern..Pattern$GT$15is_contained_in17hf636a006594aeb1eE+0x280>
100006e28: 44 01 0c 8b 	add	x4, x10, x12
100006e2c: e0 03 11 aa 	mov	x0, x17
100006e30: 1f 04 00 b1 	cmn	x0, #1
100006e34: 40 02 00 54 	b.eq	0x100006e7c <__ZN55_$LT$$RF$str$u20$as$u20$core..str..pattern..Pattern$GT$15is_contained_in17hf636a006594aeb1eE+0x330>
100006e38: 3f 02 08 eb 	cmp	x17, x8
100006e3c: c2 03 00 54 	b.hs	0x100006eb4 <__ZN55_$LT$$RF$str$u20$as$u20$core..str..pattern..Pattern$GT$15is_contained_in17hf636a006594aeb1eE+0x368>
100006e40: 89 01 00 8b 	add	x9, x12, x0
100006e44: 3f 01 01 eb 	cmp	x9, x1
100006e48: e2 03 00 54 	b.hs	0x100006ec4 <__ZN55_$LT$$RF$str$u20$as$u20$core..str..pattern..Pattern$GT$15is_contained_in17hf636a006594aeb1eE+0x378>
100006e4c: 69 69 60 38 	ldrb	w9, [x11, x0]
100006e50: 85 68 60 38 	ldrb	w5, [x4, x0]
100006e54: 00 04 00 d1 	sub	x0, x0, #1
100006e58: 3f 01 05 6b 	cmp	w9, w5
100006e5c: a0 fe ff 54 	b.eq	0x100006e30 <__ZN55_$LT$$RF$str$u20$as$u20$core..str..pattern..Pattern$GT$15is_contained_in17hf636a006594aeb1eE+0x2e4>
100006e60: 8c 01 10 8b 	add	x12, x12, x16
100006e64: da ff ff 17 	b	0x100006dcc <__ZN55_$LT$$RF$str$u20$as$u20$core..str..pattern..Pattern$GT$15is_contained_in17hf636a006594aeb1eE+0x280>
100006e68: ed 2b 00 f9 	str	x13, [sp, #80]
100006e6c: ec 33 00 f9 	str	x12, [sp, #96]
100006e70: 20 00 80 52 	mov	w0, #1
100006e74: 06 00 00 14 	b	0x100006e8c <__ZN55_$LT$$RF$str$u20$as$u20$core..str..pattern..Pattern$GT$15is_contained_in17hf636a006594aeb1eE+0x340>
100006e78: 89 00 00 37 	tbnz	w9, #0, 0x100006e88 <__ZN55_$LT$$RF$str$u20$as$u20$core..str..pattern..Pattern$GT$15is_contained_in17hf636a006594aeb1eE+0x33c>
100006e7c: 20 00 80 52 	mov	w0, #1
100006e80: 03 00 00 14 	b	0x100006e8c <__ZN55_$LT$$RF$str$u20$as$u20$core..str..pattern..Pattern$GT$15is_contained_in17hf636a006594aeb1eE+0x340>
100006e84: e2 1b 00 f9 	str	x2, [sp, #48]
100006e88: 00 00 80 52 	mov	w0, #0
100006e8c: fd 7b 48 a9 	ldp	x29, x30, [sp, #128]
100006e90: f4 4f 47 a9 	ldp	x20, x19, [sp, #112]
100006e94: ff 43 02 91 	add	sp, sp, #144
100006e98: c0 03 5f d6 	ret
100006e9c: 00 00 80 52 	mov	w0, #0
100006ea0: ed 2b 00 f9 	str	x13, [sp, #80]
100006ea4: ec 33 00 f9 	str	x12, [sp, #96]
100006ea8: f9 ff ff 17 	b	0x100006e8c <__ZN55_$LT$$RF$str$u20$as$u20$core..str..pattern..Pattern$GT$15is_contained_in17hf636a006594aeb1eE+0x340>
100006eac: a8 01 09 8b 	add	x8, x13, x9
100006eb0: 0a 00 00 14 	b	0x100006ed8 <__ZN55_$LT$$RF$str$u20$as$u20$core..str..pattern..Pattern$GT$15is_contained_in17hf636a006594aeb1eE+0x38c>
100006eb4: 62 a4 1c 10 	adr	x2, #234636
100006eb8: 1f 20 03 d5 	nop
100006ebc: e1 03 08 aa 	mov	x1, x8
100006ec0: 21 ac 00 94 	bl	0x100031f44 <__ZN4core9panicking18panic_bounds_check17hde809934b70194daE>
100006ec4: a2 a4 1c 10 	adr	x2, #234644
100006ec8: 1f 20 03 d5 	nop
100006ecc: e0 03 09 aa 	mov	x0, x9
100006ed0: 1d ac 00 94 	bl	0x100031f44 <__ZN4core9panicking18panic_bounds_check17hde809934b70194daE>
100006ed4: 88 01 0e 8b 	add	x8, x12, x14
100006ed8: 3f 00 08 eb 	cmp	x1, x8
100006edc: 20 80 88 9a 	csel	x0, x1, x8, hi
100006ee0: 42 a2 1c 10 	adr	x2, #234568
100006ee4: 1f 20 03 d5 	nop
100006ee8: 17 ac 00 94 	bl	0x100031f44 <__ZN4core9panicking18panic_bounds_check17hde809934b70194daE>
100006eec: a4 c4 1c 10 	adr	x4, #235668
100006ef0: 1f 20 03 d5 	nop
100006ef4: e3 03 01 aa 	mov	x3, x1
100006ef8: a9 ac 00 94 	bl	0x10003219c <__ZN4core3str16slice_error_fail17h8825b8acd51473acE>

0000000100006efc <__ZN58_$LT$alloc..string..String$u20$as$u20$core..fmt..Debug$GT$3fmt17h85c66cb89c5512beE>:
100006efc: e2 03 01 aa 	mov	x2, x1
100006f00: 08 84 40 a9 	ldp	x8, x1, [x0, #8]
100006f04: e0 03 08 aa 	mov	x0, x8
100006f08: 17 94 00 14 	b	0x10002bf64 <__ZN40_$LT$str$u20$as$u20$core..fmt..Debug$GT$3fmt17hb9b275484375a9ecE>

0000000100006f0c <__ZN5alloc11collections5btree3map25IntoIter$LT$K$C$V$C$A$GT$10dying_next17h1f8099a75a03f531E>:
100006f0c: ff 83 01 d1 	sub	sp, sp, #96
100006f10: fa 67 01 a9 	stp	x26, x25, [sp, #16]
100006f14: f8 5f 02 a9 	stp	x24, x23, [sp, #32]
100006f18: f6 57 03 a9 	stp	x22, x21, [sp, #48]
100006f1c: f4 4f 04 a9 	stp	x20, x19, [sp, #64]
100006f20: fd 7b 05 a9 	stp	x29, x30, [sp, #80]
100006f24: fd 43 01 91 	add	x29, sp, #80
100006f28: f4 03 01 aa 	mov	x20, x1
100006f2c: f3 03 00 aa 	mov	x19, x0
100006f30: 28 20 40 f9 	ldr	x8, [x1, #64]
100006f34: 88 04 00 b4 	cbz	x8, 0x100006fc4 <__ZN5alloc11collections5btree3map25IntoIter$LT$K$C$V$C$A$GT$10dying_next17h1f8099a75a03f531E+0xb8>
100006f38: 08 05 00 d1 	sub	x8, x8, #1
100006f3c: 88 22 00 f9 	str	x8, [x20, #64]
100006f40: 88 02 40 f9 	ldr	x8, [x20]
100006f44: 28 05 00 b4 	cbz	x8, 0x100006fe8 <__ZN5alloc11collections5btree3map25IntoIter$LT$K$C$V$C$A$GT$10dying_next17h1f8099a75a03f531E+0xdc>
100006f48: 1f 09 00 f1 	cmp	x8, #2
100006f4c: 60 0c 00 54 	b.eq	0x1000070d8 <__ZN5alloc11collections5btree3map25IntoIter$LT$K$C$V$C$A$GT$10dying_next17h1f8099a75a03f531E+0x1cc>
100006f50: 88 82 40 a9 	ldp	x8, x0, [x20, #8]
100006f54: 95 0e 40 f9 	ldr	x21, [x20, #24]
100006f58: 09 64 4a 79 	ldrh	w9, [x0, #1330]
100006f5c: bf 02 09 eb 	cmp	x21, x9
100006f60: 03 06 00 54 	b.lo	0x100007020 <__ZN5alloc11collections5btree3map25IntoIter$LT$K$C$V$C$A$GT$10dying_next17h1f8099a75a03f531E+0x114>
100006f64: 18 b3 80 52 	mov	w24, #1432
100006f68: 19 a7 80 52 	mov	w25, #1336
100006f6c: 16 68 42 f9 	ldr	x22, [x0, #1232]
100006f70: b6 09 00 b4 	cbz	x22, 0x1000070a4 <__ZN5alloc11collections5btree3map25IntoIter$LT$K$C$V$C$A$GT$10dying_next17h1f8099a75a03f531E+0x198>
100006f74: 15 60 4a 79 	ldrh	w21, [x0, #1328]
100006f78: 17 05 00 91 	add	x23, x8, #1
100006f7c: 1f 01 00 f1 	cmp	x8, #0
100006f80: 21 03 98 9a 	csel	x1, x25, x24, eq
100006f84: 02 01 80 52 	mov	w2, #8
100006f88: 09 eb ff 97 	bl	0x100001bac <___rust_dealloc>
100006f8c: c9 66 4a 79 	ldrh	w9, [x22, #1330]
100006f90: e8 03 17 aa 	mov	x8, x23
100006f94: e0 03 16 aa 	mov	x0, x22
100006f98: bf 02 09 6b 	cmp	w21, w9
100006f9c: 82 fe ff 54 	b.hs	0x100006f6c <__ZN5alloc11collections5btree3map25IntoIter$LT$K$C$V$C$A$GT$10dying_next17h1f8099a75a03f531E+0x60>
100006fa0: 77 04 00 b4 	cbz	x23, 0x10000702c <__ZN5alloc11collections5btree3map25IntoIter$LT$K$C$V$C$A$GT$10dying_next17h1f8099a75a03f531E+0x120>
100006fa4: c8 0e 15 8b 	add	x8, x22, x21, lsl #3
100006fa8: 08 a1 42 f9 	ldr	x8, [x8, #1344]
100006fac: e9 06 00 f1 	subs	x9, x23, #1
100006fb0: 20 04 00 54 	b.eq	0x100007034 <__ZN5alloc11collections5btree3map25IntoIter$LT$K$C$V$C$A$GT$10dying_next17h1f8099a75a03f531E+0x128>
100006fb4: 08 9d 42 f9 	ldr	x8, [x8, #1336]
100006fb8: 29 05 00 f1 	subs	x9, x9, #1
100006fbc: c1 ff ff 54 	b.ne	0x100006fb4 <__ZN5alloc11collections5btree3map25IntoIter$LT$K$C$V$C$A$GT$10dying_next17h1f8099a75a03f531E+0xa8>
100006fc0: 1d 00 00 14 	b	0x100007034 <__ZN5alloc11collections5btree3map25IntoIter$LT$K$C$V$C$A$GT$10dying_next17h1f8099a75a03f531E+0x128>
100006fc4: 89 22 40 a9 	ldp	x9, x8, [x20]
100006fc8: 80 0a 40 f9 	ldr	x0, [x20, #16]
100006fcc: 4a 00 80 52 	mov	w10, #2
100006fd0: 8a 02 00 f9 	str	x10, [x20]
100006fd4: a9 03 00 b4 	cbz	x9, 0x100007048 <__ZN5alloc11collections5btree3map25IntoIter$LT$K$C$V$C$A$GT$10dying_next17h1f8099a75a03f531E+0x13c>
100006fd8: 3f 05 00 f1 	cmp	x9, #1
100006fdc: 04 08 40 fa 	ccmp	x0, #0, #4, eq
100006fe0: 20 05 00 54 	b.eq	0x100007084 <__ZN5alloc11collections5btree3map25IntoIter$LT$K$C$V$C$A$GT$10dying_next17h1f8099a75a03f531E+0x178>
100006fe4: 1d 00 00 14 	b	0x100007058 <__ZN5alloc11collections5btree3map25IntoIter$LT$K$C$V$C$A$GT$10dying_next17h1f8099a75a03f531E+0x14c>
100006fe8: 88 82 40 a9 	ldp	x8, x0, [x20, #8]
100006fec: 88 00 00 b4 	cbz	x8, 0x100006ffc <__ZN5alloc11collections5btree3map25IntoIter$LT$K$C$V$C$A$GT$10dying_next17h1f8099a75a03f531E+0xf0>
100006ff0: 00 9c 42 f9 	ldr	x0, [x0, #1336]
100006ff4: 08 05 00 f1 	subs	x8, x8, #1
100006ff8: c1 ff ff 54 	b.ne	0x100006ff0 <__ZN5alloc11collections5btree3map25IntoIter$LT$K$C$V$C$A$GT$10dying_next17h1f8099a75a03f531E+0xe4>
100006ffc: 15 00 80 d2 	mov	x21, #0
100007000: 08 00 80 d2 	mov	x8, #0
100007004: 1f 20 03 d5 	nop
100007008: 40 a6 15 9c 	ldr	q0, 0x1000324d0 <_writev+0x1000324d0>
10000700c: 80 02 80 3d 	str	q0, [x20]
100007010: 80 7e 01 a9 	stp	x0, xzr, [x20, #16]
100007014: 09 64 4a 79 	ldrh	w9, [x0, #1330]
100007018: bf 02 09 eb 	cmp	x21, x9
10000701c: 42 fa ff 54 	b.hs	0x100006f64 <__ZN5alloc11collections5btree3map25IntoIter$LT$K$C$V$C$A$GT$10dying_next17h1f8099a75a03f531E+0x58>
100007020: f6 03 00 aa 	mov	x22, x0
100007024: f7 03 08 aa 	mov	x23, x8
100007028: e8 fb ff b5 	cbnz	x8, 0x100006fa4 <__ZN5alloc11collections5btree3map25IntoIter$LT$K$C$V$C$A$GT$10dying_next17h1f8099a75a03f531E+0x98>
10000702c: a9 06 00 91 	add	x9, x21, #1
100007030: e8 03 16 aa 	mov	x8, x22
100007034: 9f a2 00 a9 	stp	xzr, x8, [x20, #8]
100007038: 89 0e 00 f9 	str	x9, [x20, #24]
10000703c: 77 5a 00 a9 	stp	x23, x22, [x19]
100007040: 75 0a 00 f9 	str	x21, [x19, #16]
100007044: 11 00 00 14 	b	0x100007088 <__ZN5alloc11collections5btree3map25IntoIter$LT$K$C$V$C$A$GT$10dying_next17h1f8099a75a03f531E+0x17c>
100007048: 88 00 00 b4 	cbz	x8, 0x100007058 <__ZN5alloc11collections5btree3map25IntoIter$LT$K$C$V$C$A$GT$10dying_next17h1f8099a75a03f531E+0x14c>
10000704c: 00 9c 42 f9 	ldr	x0, [x0, #1336]
100007050: 08 05 00 f1 	subs	x8, x8, #1
100007054: c1 ff ff 54 	b.ne	0x10000704c <__ZN5alloc11collections5btree3map25IntoIter$LT$K$C$V$C$A$GT$10dying_next17h1f8099a75a03f531E+0x140>
100007058: 14 b3 80 52 	mov	w20, #1432
10000705c: 15 a7 80 52 	mov	w21, #1336
100007060: 16 68 42 f9 	ldr	x22, [x0, #1232]
100007064: 17 05 00 91 	add	x23, x8, #1
100007068: 1f 01 00 f1 	cmp	x8, #0
10000706c: a1 02 94 9a 	csel	x1, x21, x20, eq
100007070: 02 01 80 52 	mov	w2, #8
100007074: ce ea ff 97 	bl	0x100001bac <___rust_dealloc>
100007078: e0 03 16 aa 	mov	x0, x22
10000707c: e8 03 17 aa 	mov	x8, x23
100007080: 16 ff ff b5 	cbnz	x22, 0x100007060 <__ZN5alloc11collections5btree3map25IntoIter$LT$K$C$V$C$A$GT$10dying_next17h1f8099a75a03f531E+0x154>
100007084: 7f 06 00 f9 	str	xzr, [x19, #8]
100007088: fd 7b 45 a9 	ldp	x29, x30, [sp, #80]
10000708c: f4 4f 44 a9 	ldp	x20, x19, [sp, #64]
100007090: f6 57 43 a9 	ldp	x22, x21, [sp, #48]
100007094: f8 5f 42 a9 	ldp	x24, x23, [sp, #32]
100007098: fa 67 41 a9 	ldp	x26, x25, [sp, #16]
10000709c: ff 83 01 91 	add	sp, sp, #96
1000070a0: c0 03 5f d6 	ret
1000070a4: 09 b3 80 52 	mov	w9, #1432
1000070a8: 0a a7 80 52 	mov	w10, #1336
1000070ac: 1f 01 00 f1 	cmp	x8, #0
1000070b0: 41 01 89 9a 	csel	x1, x10, x9, eq
1000070b4: 02 01 80 52 	mov	w2, #8
1000070b8: bd ea ff 97 	bl	0x100001bac <___rust_dealloc>
1000070bc: e0 d2 15 50 	adr	x0, #178782
1000070c0: 1f 20 03 d5 	nop
1000070c4: 22 aa 1c 10 	adr	x2, #234820
1000070c8: 1f 20 03 d5 	nop
1000070cc: 61 05 80 52 	mov	w1, #43
1000070d0: 80 ab 00 94 	bl	0x100031ed0 <__ZN4core9panicking5panic17h2f410888133670e4E>
1000070d4: 20 00 20 d4 	brk	#0x1
1000070d8: 00 d2 15 50 	adr	x0, #178754
1000070dc: 1f 20 03 d5 	nop
1000070e0: 02 aa 1c 10 	adr	x2, #234816
1000070e4: 1f 20 03 d5 	nop
1000070e8: 61 05 80 52 	mov	w1, #43
1000070ec: 79 ab 00 94 	bl	0x100031ed0 <__ZN4core9panicking5panic17h2f410888133670e4E>
1000070f0: f3 03 00 aa 	mov	x19, x0
1000070f4: e0 23 00 91 	add	x0, sp, #8
1000070f8: 50 f1 ff 97 	bl	0x100003638 <__ZN4core3ptr72drop_in_place$LT$alloc..collections..btree..mem..replace..PanicGuard$GT$17h551057327056d890E>
1000070fc: e0 03 13 aa 	mov	x0, x19
100007100: 45 ac 00 94 	bl	0x100032214 <_writev+0x100032214>
100007104: a4 ab 00 94 	bl	0x100031f94 <__ZN4core9panicking19panic_cannot_unwind17h96946ae592480b8aE>

0000000100007108 <__ZN5alloc4sync12Arc$LT$T$GT$9drop_slow17h0a775a8ce062156eE>:
100007108: f4 4f be a9 	stp	x20, x19, [sp, #-32]!
10000710c: fd 7b 01 a9 	stp	x29, x30, [sp, #16]
100007110: fd 43 00 91 	add	x29, sp, #16
100007114: f3 03 00 aa 	mov	x19, x0
100007118: 14 08 40 f9 	ldr	x20, [x0, #16]
10000711c: 94 00 00 b4 	cbz	x20, 0x10000712c <__ZN5alloc4sync12Arc$LT$T$GT$9drop_slow17h0a775a8ce062156eE+0x24>
100007120: e0 03 14 aa 	mov	x0, x20
100007124: ab ac 00 94 	bl	0x1000323d0 <_writev+0x1000323d0>
100007128: e0 02 00 34 	cbz	w0, 0x100007184 <__ZN5alloc4sync12Arc$LT$T$GT$9drop_slow17h0a775a8ce062156eE+0x7c>
10000712c: 61 12 40 f9 	ldr	x1, [x19, #32]
100007130: 81 00 00 b4 	cbz	x1, 0x100007140 <__ZN5alloc4sync12Arc$LT$T$GT$9drop_slow17h0a775a8ce062156eE+0x38>
100007134: 60 16 40 f9 	ldr	x0, [x19, #40]
100007138: 22 00 80 52 	mov	w2, #1
10000713c: 9c ea ff 97 	bl	0x100001bac <___rust_dealloc>
100007140: 7f 06 00 b1 	cmn	x19, #1
100007144: a0 01 00 54 	b.eq	0x100007178 <__ZN5alloc4sync12Arc$LT$T$GT$9drop_slow17h0a775a8ce062156eE+0x70>
100007148: 68 22 00 91 	add	x8, x19, #8
10000714c: 09 00 80 92 	mov	x9, #-1
100007150: 08 01 69 f8 	<unknown>
100007154: 1f 05 00 f1 	cmp	x8, #1
100007158: 01 01 00 54 	b.ne	0x100007178 <__ZN5alloc4sync12Arc$LT$T$GT$9drop_slow17h0a775a8ce062156eE+0x70>
10000715c: bf 39 03 d5 	dmb	ishld
100007160: e0 03 13 aa 	mov	x0, x19
100007164: 01 07 80 52 	mov	w1, #56
100007168: 02 01 80 52 	mov	w2, #8
10000716c: fd 7b 41 a9 	ldp	x29, x30, [sp, #16]
100007170: f4 4f c2 a8 	ldp	x20, x19, [sp], #32
100007174: 8e ea ff 17 	b	0x100001bac <___rust_dealloc>
100007178: fd 7b 41 a9 	ldp	x29, x30, [sp, #16]
10000717c: f4 4f c2 a8 	ldp	x20, x19, [sp], #32
100007180: c0 03 5f d6 	ret
100007184: e0 03 14 aa 	mov	x0, x20
100007188: 95 ac 00 94 	bl	0x1000323dc <_writev+0x1000323dc>
10000718c: e0 03 14 aa 	mov	x0, x20
100007190: 87 ac 00 94 	bl	0x1000323ac <_writev+0x1000323ac>
100007194: e0 03 14 aa 	mov	x0, x20
100007198: 01 08 80 52 	mov	w1, #64
10000719c: 02 01 80 52 	mov	w2, #8
1000071a0: 83 ea ff 97 	bl	0x100001bac <___rust_dealloc>
1000071a4: 61 12 40 f9 	ldr	x1, [x19, #32]
1000071a8: 61 fc ff b5 	cbnz	x1, 0x100007134 <__ZN5alloc4sync12Arc$LT$T$GT$9drop_slow17h0a775a8ce062156eE+0x2c>
1000071ac: e5 ff ff 17 	b	0x100007140 <__ZN5alloc4sync12Arc$LT$T$GT$9drop_slow17h0a775a8ce062156eE+0x38>

00000001000071b0 <__ZN5alloc4sync12Arc$LT$T$GT$9drop_slow17h44ded8e8f5693dacE>:
1000071b0: f4 4f be a9 	stp	x20, x19, [sp, #-32]!
1000071b4: fd 7b 01 a9 	stp	x29, x30, [sp, #16]
1000071b8: fd 43 00 91 	add	x29, sp, #16
1000071bc: f3 03 00 aa 	mov	x19, x0
1000071c0: 08 08 40 f9 	ldr	x8, [x0, #16]
1000071c4: e8 00 00 b4 	cbz	x8, 0x1000071e0 <__ZN5alloc4sync12Arc$LT$T$GT$9drop_slow17h44ded8e8f5693dacE+0x30>
1000071c8: 1f 01 00 39 	strb	wzr, [x8]
1000071cc: 61 0e 40 f9 	ldr	x1, [x19, #24]
1000071d0: 81 00 00 b4 	cbz	x1, 0x1000071e0 <__ZN5alloc4sync12Arc$LT$T$GT$9drop_slow17h44ded8e8f5693dacE+0x30>
1000071d4: 60 0a 40 f9 	ldr	x0, [x19, #16]
1000071d8: 22 00 80 52 	mov	w2, #1
1000071dc: 74 ea ff 97 	bl	0x100001bac <___rust_dealloc>
1000071e0: 60 12 40 f9 	ldr	x0, [x19, #32]
1000071e4: 33 ac 00 94 	bl	0x1000322b0 <_writev+0x1000322b0>
1000071e8: 7f 06 00 b1 	cmn	x19, #1
1000071ec: a0 01 00 54 	b.eq	0x100007220 <__ZN5alloc4sync12Arc$LT$T$GT$9drop_slow17h44ded8e8f5693dacE+0x70>
1000071f0: 68 22 00 91 	add	x8, x19, #8
1000071f4: 09 00 80 92 	mov	x9, #-1
1000071f8: 08 01 69 f8 	<unknown>
1000071fc: 1f 05 00 f1 	cmp	x8, #1
100007200: 01 01 00 54 	b.ne	0x100007220 <__ZN5alloc4sync12Arc$LT$T$GT$9drop_slow17h44ded8e8f5693dacE+0x70>
100007204: bf 39 03 d5 	dmb	ishld
100007208: e0 03 13 aa 	mov	x0, x19
10000720c: 01 07 80 52 	mov	w1, #56
100007210: 02 01 80 52 	mov	w2, #8
100007214: fd 7b 41 a9 	ldp	x29, x30, [sp, #16]
100007218: f4 4f c2 a8 	ldp	x20, x19, [sp], #32
10000721c: 64 ea ff 17 	b	0x100001bac <___rust_dealloc>
100007220: fd 7b 41 a9 	ldp	x29, x30, [sp, #16]
100007224: f4 4f c2 a8 	ldp	x20, x19, [sp], #32
100007228: c0 03 5f d6 	ret

000000010000722c <__ZN5alloc4sync12Arc$LT$T$GT$9drop_slow17h7c8fd6e9dfe88e59E>:
10000722c: f4 4f be a9 	stp	x20, x19, [sp, #-32]!
100007230: fd 7b 01 a9 	stp	x29, x30, [sp, #16]
100007234: fd 43 00 91 	add	x29, sp, #16
100007238: f3 03 00 aa 	mov	x19, x0
10000723c: 00 40 00 91 	add	x0, x0, #16
100007240: d7 52 00 94 	bl	0x10001bd9c <__ZN65_$LT$std..sys..unix..fs..Dir$u20$as$u20$core..ops..drop..Drop$GT$4drop17hf26003a20ae3ccd1E>
100007244: 61 0e 40 f9 	ldr	x1, [x19, #24]
100007248: 81 00 00 b4 	cbz	x1, 0x100007258 <__ZN5alloc4sync12Arc$LT$T$GT$9drop_slow17h7c8fd6e9dfe88e59E+0x2c>
10000724c: 60 12 40 f9 	ldr	x0, [x19, #32]
100007250: 22 00 80 52 	mov	w2, #1
100007254: 56 ea ff 97 	bl	0x100001bac <___rust_dealloc>
100007258: 7f 06 00 b1 	cmn	x19, #1
10000725c: a0 01 00 54 	b.eq	0x100007290 <__ZN5alloc4sync12Arc$LT$T$GT$9drop_slow17h7c8fd6e9dfe88e59E+0x64>
100007260: 68 22 00 91 	add	x8, x19, #8
100007264: 09 00 80 92 	mov	x9, #-1
100007268: 08 01 69 f8 	<unknown>
10000726c: 1f 05 00 f1 	cmp	x8, #1
100007270: 01 01 00 54 	b.ne	0x100007290 <__ZN5alloc4sync12Arc$LT$T$GT$9drop_slow17h7c8fd6e9dfe88e59E+0x64>
100007274: bf 39 03 d5 	dmb	ishld
100007278: e0 03 13 aa 	mov	x0, x19
10000727c: 01 06 80 52 	mov	w1, #48
100007280: 02 01 80 52 	mov	w2, #8
100007284: fd 7b 41 a9 	ldp	x29, x30, [sp, #16]
100007288: f4 4f c2 a8 	ldp	x20, x19, [sp], #32
10000728c: 48 ea ff 17 	b	0x100001bac <___rust_dealloc>
100007290: fd 7b 41 a9 	ldp	x29, x30, [sp, #16]
100007294: f4 4f c2 a8 	ldp	x20, x19, [sp], #32
100007298: c0 03 5f d6 	ret
10000729c: f4 03 00 aa 	mov	x20, x0
1000072a0: 60 62 00 91 	add	x0, x19, #24
1000072a4: 21 ee ff 97 	bl	0x100002b28 <__ZN4core3ptr205drop_in_place$LT$$LT$alloc..boxed..Box$LT$dyn$u20$core..error..Error$u2b$core..marker..Sync$u2b$core..marker..Send$GT$$u20$as$u20$core..convert..From$LT$alloc..string..String$GT$$GT$..from..StringError$GT$17hd77eda84c3ac6f7aE>
1000072a8: e0 03 14 aa 	mov	x0, x20
1000072ac: da ab 00 94 	bl	0x100032214 <_writev+0x100032214>

00000001000072b0 <__ZN5alloc4sync12Arc$LT$T$GT$9drop_slow17ha84afde1262a5facE>:
1000072b0: f4 4f be a9 	stp	x20, x19, [sp, #-32]!
1000072b4: fd 7b 01 a9 	stp	x29, x30, [sp, #16]
1000072b8: fd 43 00 91 	add	x29, sp, #16
1000072bc: 13 00 40 f9 	ldr	x19, [x0]
1000072c0: e0 03 13 aa 	mov	x0, x19
1000072c4: 08 0c 4e f8 	ldr	x8, [x0, #224]!
1000072c8: e8 00 00 b4 	cbz	x8, 0x1000072e4 <__ZN5alloc4sync12Arc$LT$T$GT$9drop_slow17ha84afde1262a5facE+0x34>
1000072cc: 09 00 80 92 	mov	x9, #-1
1000072d0: 08 01 69 f8 	<unknown>
1000072d4: 1f 05 00 f1 	cmp	x8, #1
1000072d8: 61 00 00 54 	b.ne	0x1000072e4 <__ZN5alloc4sync12Arc$LT$T$GT$9drop_slow17ha84afde1262a5facE+0x34>
1000072dc: bf 39 03 d5 	dmb	ishld
1000072e0: f4 ff ff 97 	bl	0x1000072b0 <__ZN5alloc4sync12Arc$LT$T$GT$9drop_slow17ha84afde1262a5facE>
1000072e4: 7f 06 00 b1 	cmn	x19, #1
1000072e8: a0 01 00 54 	b.eq	0x10000731c <__ZN5alloc4sync12Arc$LT$T$GT$9drop_slow17ha84afde1262a5facE+0x6c>
1000072ec: 68 22 00 91 	add	x8, x19, #8
1000072f0: 09 00 80 92 	mov	x9, #-1
1000072f4: 08 01 69 f8 	<unknown>
1000072f8: 1f 05 00 f1 	cmp	x8, #1
1000072fc: 01 01 00 54 	b.ne	0x10000731c <__ZN5alloc4sync12Arc$LT$T$GT$9drop_slow17ha84afde1262a5facE+0x6c>
100007300: bf 39 03 d5 	dmb	ishld
100007304: e0 03 13 aa 	mov	x0, x19
100007308: 01 1e 80 52 	mov	w1, #240
10000730c: 02 01 80 52 	mov	w2, #8
100007310: fd 7b 41 a9 	ldp	x29, x30, [sp, #16]
100007314: f4 4f c2 a8 	ldp	x20, x19, [sp], #32
100007318: 25 ea ff 17 	b	0x100001bac <___rust_dealloc>
10000731c: fd 7b 41 a9 	ldp	x29, x30, [sp, #16]
100007320: f4 4f c2 a8 	ldp	x20, x19, [sp], #32
100007324: c0 03 5f d6 	ret

0000000100007328 <__ZN5alloc4sync12Arc$LT$T$GT$9drop_slow17hdd87f3799ee21070E>:
100007328: 1f 04 00 b1 	cmn	x0, #1
10000732c: 40 01 00 54 	b.eq	0x100007354 <__ZN5alloc4sync12Arc$LT$T$GT$9drop_slow17hdd87f3799ee21070E+0x2c>
100007330: 08 20 00 91 	add	x8, x0, #8
100007334: 09 00 80 92 	mov	x9, #-1
100007338: 08 01 69 f8 	<unknown>
10000733c: 1f 05 00 f1 	cmp	x8, #1
100007340: a1 00 00 54 	b.ne	0x100007354 <__ZN5alloc4sync12Arc$LT$T$GT$9drop_slow17hdd87f3799ee21070E+0x2c>
100007344: bf 39 03 d5 	dmb	ishld
100007348: 01 07 80 52 	mov	w1, #56
10000734c: 02 01 80 52 	mov	w2, #8
100007350: 17 ea ff 17 	b	0x100001bac <___rust_dealloc>
100007354: c0 03 5f d6 	ret

0000000100007358 <__ZN5alloc5alloc8box_free17h0b15272aacb880a7E>:
100007358: 41 00 00 b4 	cbz	x1, 0x100007360 <__ZN5alloc5alloc8box_free17h0b15272aacb880a7E+0x8>
10000735c: 14 ea ff 17 	b	0x100001bac <___rust_dealloc>
100007360: c0 03 5f d6 	ret

0000000100007364 <__ZN5alloc5alloc8box_free17h328b2d346ba2467bE>:
100007364: 01 08 80 52 	mov	w1, #64
100007368: 02 01 80 52 	mov	w2, #8
10000736c: 10 ea ff 17 	b	0x100001bac <___rust_dealloc>

0000000100007370 <__ZN5alloc5alloc8box_free17h6f0f6e1382d9c275E>:
100007370: 01 03 80 52 	mov	w1, #24
100007374: 02 01 80 52 	mov	w2, #8
100007378: 0d ea ff 17 	b	0x100001bac <___rust_dealloc>

000000010000737c <__ZN5alloc5alloc8box_free17he830c6f2a7165079E>:
10000737c: 81 00 00 b4 	cbz	x1, 0x10000738c <__ZN5alloc5alloc8box_free17he830c6f2a7165079E+0x10>
100007380: 21 dc 78 d3 	lsl	x1, x1, #8
100007384: 02 01 80 52 	mov	w2, #8
100007388: 09 ea ff 17 	b	0x100001bac <___rust_dealloc>
10000738c: c0 03 5f d6 	ret

0000000100007390 <__ZN5alloc7raw_vec11finish_grow17heeec383c333f063dE>:
100007390: f6 57 bd a9 	stp	x22, x21, [sp, #-48]!
100007394: f4 4f 01 a9 	stp	x20, x19, [sp, #16]
100007398: fd 7b 02 a9 	stp	x29, x30, [sp, #32]
10000739c: fd 83 00 91 	add	x29, sp, #32
1000073a0: f4 03 01 aa 	mov	x20, x1
1000073a4: f3 03 00 aa 	mov	x19, x0
1000073a8: a2 02 00 b4 	cbz	x2, 0x1000073fc <__ZN5alloc7raw_vec11finish_grow17heeec383c333f063dE+0x6c>
1000073ac: f5 03 02 aa 	mov	x21, x2
1000073b0: 68 08 40 f9 	ldr	x8, [x3, #16]
1000073b4: 48 01 00 b4 	cbz	x8, 0x1000073dc <__ZN5alloc7raw_vec11finish_grow17heeec383c333f063dE+0x4c>
1000073b8: 61 04 40 f9 	ldr	x1, [x3, #8]
1000073bc: 01 01 00 b4 	cbz	x1, 0x1000073dc <__ZN5alloc7raw_vec11finish_grow17heeec383c333f063dE+0x4c>
1000073c0: 60 00 40 f9 	ldr	x0, [x3]
1000073c4: e2 03 15 aa 	mov	x2, x21
1000073c8: e3 03 14 aa 	mov	x3, x20
1000073cc: f9 e9 ff 97 	bl	0x100001bb0 <___rust_realloc>
1000073d0: 00 01 00 b5 	cbnz	x0, 0x1000073f0 <__ZN5alloc7raw_vec11finish_grow17heeec383c333f063dE+0x60>
1000073d4: 74 d6 00 a9 	stp	x20, x21, [x19, #8]
1000073d8: 0a 00 00 14 	b	0x100007400 <__ZN5alloc7raw_vec11finish_grow17heeec383c333f063dE+0x70>
1000073dc: f4 01 00 b4 	cbz	x20, 0x100007418 <__ZN5alloc7raw_vec11finish_grow17heeec383c333f063dE+0x88>
1000073e0: e0 03 14 aa 	mov	x0, x20
1000073e4: e1 03 15 aa 	mov	x1, x21
1000073e8: f0 e9 ff 97 	bl	0x100001ba8 <___rust_alloc>
1000073ec: 40 ff ff b4 	cbz	x0, 0x1000073d4 <__ZN5alloc7raw_vec11finish_grow17heeec383c333f063dE+0x44>
1000073f0: 08 00 80 d2 	mov	x8, #0
1000073f4: 60 d2 00 a9 	stp	x0, x20, [x19, #8]
1000073f8: 03 00 00 14 	b	0x100007404 <__ZN5alloc7raw_vec11finish_grow17heeec383c333f063dE+0x74>
1000073fc: 74 fe 00 a9 	stp	x20, xzr, [x19, #8]
100007400: 28 00 80 52 	mov	w8, #1
100007404: 68 02 00 f9 	str	x8, [x19]
100007408: fd 7b 42 a9 	ldp	x29, x30, [sp, #32]
10000740c: f4 4f 41 a9 	ldp	x20, x19, [sp, #16]
100007410: f6 57 c3 a8 	ldp	x22, x21, [sp], #48
100007414: c0 03 5f d6 	ret
100007418: e0 03 15 aa 	mov	x0, x21
10000741c: b5 fe ff b5 	cbnz	x21, 0x1000073f0 <__ZN5alloc7raw_vec11finish_grow17heeec383c333f063dE+0x60>
100007420: ed ff ff 17 	b	0x1000073d4 <__ZN5alloc7raw_vec11finish_grow17heeec383c333f063dE+0x44>

0000000100007424 <__ZN5alloc7raw_vec19RawVec$LT$T$C$A$GT$16reserve_for_push17h0a23908638323fd8E>:
100007424: ff 43 01 d1 	sub	sp, sp, #80
100007428: f4 4f 03 a9 	stp	x20, x19, [sp, #48]
10000742c: fd 7b 04 a9 	stp	x29, x30, [sp, #64]
100007430: fd 03 01 91 	add	x29, sp, #64
100007434: 29 04 00 b1 	adds	x9, x1, #1
100007438: c2 03 00 54 	b.hs	0x1000074b0 <__ZN5alloc7raw_vec19RawVec$LT$T$C$A$GT$16reserve_for_push17h0a23908638323fd8E+0x8c>
10000743c: f3 03 00 aa 	mov	x19, x0
100007440: 08 00 40 f9 	ldr	x8, [x0]
100007444: 0a f9 7f d3 	lsl	x10, x8, #1
100007448: 5f 01 09 eb 	cmp	x10, x9
10000744c: 49 81 89 9a 	csel	x9, x10, x9, hi
100007450: 8a 00 80 52 	mov	w10, #4
100007454: 3f 11 00 f1 	cmp	x9, #4
100007458: 34 81 8a 9a 	csel	x20, x9, x10, hi
10000745c: 81 f2 7d d3 	lsl	x1, x20, #3
100007460: 89 fe 7c d3 	lsr	x9, x20, #60
100007464: 3f 01 00 f1 	cmp	x9, #0
100007468: e9 17 9f 1a 	cset	w9, eq
10000746c: 22 f1 7d d3 	lsl	x2, x9, #3
100007470: 28 02 00 b4 	cbz	x8, 0x1000074b4 <__ZN5alloc7raw_vec19RawVec$LT$T$C$A$GT$16reserve_for_push17h0a23908638323fd8E+0x90>
100007474: 69 06 40 f9 	ldr	x9, [x19, #8]
100007478: 08 f1 7d d3 	lsl	x8, x8, #3
10000747c: e9 a3 01 a9 	stp	x9, x8, [sp, #24]
100007480: 08 01 80 52 	mov	w8, #8
100007484: e8 17 00 f9 	str	x8, [sp, #40]
100007488: e0 03 00 91 	mov	x0, sp
10000748c: e3 63 00 91 	add	x3, sp, #24
100007490: c0 ff ff 97 	bl	0x100007390 <__ZN5alloc7raw_vec11finish_grow17heeec383c333f063dE>
100007494: e8 03 40 a9 	ldp	x8, x0, [sp]
100007498: a8 01 00 b4 	cbz	x8, 0x1000074cc <__ZN5alloc7raw_vec19RawVec$LT$T$C$A$GT$16reserve_for_push17h0a23908638323fd8E+0xa8>
10000749c: e1 0b 40 f9 	ldr	x1, [sp, #16]
1000074a0: e8 07 41 b2 	mov	x8, #-9223372036854775807
1000074a4: 3f 00 08 eb 	cmp	x1, x8
1000074a8: 40 01 00 54 	b.eq	0x1000074d0 <__ZN5alloc7raw_vec19RawVec$LT$T$C$A$GT$16reserve_for_push17h0a23908638323fd8E+0xac>
1000074ac: a1 01 00 b5 	cbnz	x1, 0x1000074e0 <__ZN5alloc7raw_vec19RawVec$LT$T$C$A$GT$16reserve_for_push17h0a23908638323fd8E+0xbc>
1000074b0: ad 88 00 94 	bl	0x100029764 <__ZN5alloc7raw_vec17capacity_overflow17h58bd20af15d65a5fE>
1000074b4: ff 17 00 f9 	str	xzr, [sp, #40]
1000074b8: e0 03 00 91 	mov	x0, sp
1000074bc: e3 63 00 91 	add	x3, sp, #24
1000074c0: b4 ff ff 97 	bl	0x100007390 <__ZN5alloc7raw_vec11finish_grow17heeec383c333f063dE>
1000074c4: e8 03 40 a9 	ldp	x8, x0, [sp]
1000074c8: a8 fe ff b5 	cbnz	x8, 0x10000749c <__ZN5alloc7raw_vec19RawVec$LT$T$C$A$GT$16reserve_for_push17h0a23908638323fd8E+0x78>
1000074cc: 74 02 00 a9 	stp	x20, x0, [x19]
1000074d0: fd 7b 44 a9 	ldp	x29, x30, [sp, #64]
1000074d4: f4 4f 43 a9 	ldp	x20, x19, [sp, #48]
1000074d8: ff 43 01 91 	add	sp, sp, #80
1000074dc: c0 03 5f d6 	ret
1000074e0: 5b aa 00 94 	bl	0x100031e4c <__ZN5alloc5alloc18handle_alloc_error17he988aec40bc1ae62E>

00000001000074e4 <__ZN5alloc7raw_vec19RawVec$LT$T$C$A$GT$16reserve_for_push17h0b15dfe6c8626e83E>:
1000074e4: ff 43 01 d1 	sub	sp, sp, #80
1000074e8: f4 4f 03 a9 	stp	x20, x19, [sp, #48]
1000074ec: fd 7b 04 a9 	stp	x29, x30, [sp, #64]
1000074f0: fd 03 01 91 	add	x29, sp, #64
1000074f4: 29 04 00 b1 	adds	x9, x1, #1
1000074f8: 62 04 00 54 	b.hs	0x100007584 <__ZN5alloc7raw_vec19RawVec$LT$T$C$A$GT$16reserve_for_push17h0b15dfe6c8626e83E+0xa0>
1000074fc: f3 03 00 aa 	mov	x19, x0
100007500: 08 00 40 f9 	ldr	x8, [x0]
100007504: 0a f9 7f d3 	lsl	x10, x8, #1
100007508: 5f 01 09 eb 	cmp	x10, x9
10000750c: 49 81 89 9a 	csel	x9, x10, x9, hi
100007510: 8a 00 80 52 	mov	w10, #4
100007514: 3f 11 00 f1 	cmp	x9, #4
100007518: 34 81 8a 9a 	csel	x20, x9, x10, hi
10000751c: 09 39 8e d2 	mov	x9, #29128
100007520: 89 e3 b8 f2 	movk	x9, #50972, lsl #16
100007524: 29 8e c3 f2 	movk	x9, #7281, lsl #32
100007528: e9 38 e0 f2 	movk	x9, #455, lsl #48
10000752c: 9f 02 09 eb 	cmp	x20, x9
100007530: 89 0e 14 8b 	add	x9, x20, x20, lsl #3
100007534: ea 27 9f 1a 	cset	w10, lo
100007538: 21 f1 7d d3 	lsl	x1, x9, #3
10000753c: 42 f1 7d d3 	lsl	x2, x10, #3
100007540: 48 02 00 b4 	cbz	x8, 0x100007588 <__ZN5alloc7raw_vec19RawVec$LT$T$C$A$GT$16reserve_for_push17h0b15dfe6c8626e83E+0xa4>
100007544: 69 06 40 f9 	ldr	x9, [x19, #8]
100007548: 08 0d 08 8b 	add	x8, x8, x8, lsl #3
10000754c: 08 f1 7d d3 	lsl	x8, x8, #3
100007550: e9 a3 01 a9 	stp	x9, x8, [sp, #24]
100007554: 08 01 80 52 	mov	w8, #8
100007558: e8 17 00 f9 	str	x8, [sp, #40]
10000755c: e0 03 00 91 	mov	x0, sp
100007560: e3 63 00 91 	add	x3, sp, #24
100007564: 8b ff ff 97 	bl	0x100007390 <__ZN5alloc7raw_vec11finish_grow17heeec383c333f063dE>
100007568: e8 03 40 a9 	ldp	x8, x0, [sp]
10000756c: a8 01 00 b4 	cbz	x8, 0x1000075a0 <__ZN5alloc7raw_vec19RawVec$LT$T$C$A$GT$16reserve_for_push17h0b15dfe6c8626e83E+0xbc>
100007570: e1 0b 40 f9 	ldr	x1, [sp, #16]
100007574: e8 07 41 b2 	mov	x8, #-9223372036854775807
100007578: 3f 00 08 eb 	cmp	x1, x8
10000757c: 40 01 00 54 	b.eq	0x1000075a4 <__ZN5alloc7raw_vec19RawVec$LT$T$C$A$GT$16reserve_for_push17h0b15dfe6c8626e83E+0xc0>
100007580: a1 01 00 b5 	cbnz	x1, 0x1000075b4 <__ZN5alloc7raw_vec19RawVec$LT$T$C$A$GT$16reserve_for_push17h0b15dfe6c8626e83E+0xd0>
100007584: 78 88 00 94 	bl	0x100029764 <__ZN5alloc7raw_vec17capacity_overflow17h58bd20af15d65a5fE>
100007588: ff 17 00 f9 	str	xzr, [sp, #40]
10000758c: e0 03 00 91 	mov	x0, sp
100007590: e3 63 00 91 	add	x3, sp, #24
100007594: 7f ff ff 97 	bl	0x100007390 <__ZN5alloc7raw_vec11finish_grow17heeec383c333f063dE>
100007598: e8 03 40 a9 	ldp	x8, x0, [sp]
10000759c: a8 fe ff b5 	cbnz	x8, 0x100007570 <__ZN5alloc7raw_vec19RawVec$LT$T$C$A$GT$16reserve_for_push17h0b15dfe6c8626e83E+0x8c>
1000075a0: 74 02 00 a9 	stp	x20, x0, [x19]
1000075a4: fd 7b 44 a9 	ldp	x29, x30, [sp, #64]
1000075a8: f4 4f 43 a9 	ldp	x20, x19, [sp, #48]
1000075ac: ff 43 01 91 	add	sp, sp, #80
1000075b0: c0 03 5f d6 	ret
1000075b4: 26 aa 00 94 	bl	0x100031e4c <__ZN5alloc5alloc18handle_alloc_error17he988aec40bc1ae62E>

00000001000075b8 <__ZN5alloc7raw_vec19RawVec$LT$T$C$A$GT$16reserve_for_push17h13a5a4ce14398d6dE>:
1000075b8: ff 43 01 d1 	sub	sp, sp, #80
1000075bc: f4 4f 03 a9 	stp	x20, x19, [sp, #48]
1000075c0: fd 7b 04 a9 	stp	x29, x30, [sp, #64]
1000075c4: fd 03 01 91 	add	x29, sp, #64
1000075c8: 29 04 00 b1 	adds	x9, x1, #1
1000075cc: 42 04 00 54 	b.hs	0x100007654 <__ZN5alloc7raw_vec19RawVec$LT$T$C$A$GT$16reserve_for_push17h13a5a4ce14398d6dE+0x9c>
1000075d0: f3 03 00 aa 	mov	x19, x0
1000075d4: 08 00 40 f9 	ldr	x8, [x0]
1000075d8: 0a f9 7f d3 	lsl	x10, x8, #1
1000075dc: 5f 01 09 eb 	cmp	x10, x9
1000075e0: 49 81 89 9a 	csel	x9, x10, x9, hi
1000075e4: 8a 00 80 52 	mov	w10, #4
1000075e8: 3f 11 00 f1 	cmp	x9, #4
1000075ec: 34 81 8a 9a 	csel	x20, x9, x10, hi
1000075f0: e9 f3 00 b2 	mov	x9, #6148914691236517205
1000075f4: c9 aa 8a f2 	movk	x9, #21846
1000075f8: a9 aa e0 f2 	movk	x9, #1365, lsl #48
1000075fc: 9f 02 09 eb 	cmp	x20, x9
100007600: 89 06 14 8b 	add	x9, x20, x20, lsl #1
100007604: ea 27 9f 1a 	cset	w10, lo
100007608: 21 f1 7d d3 	lsl	x1, x9, #3
10000760c: 42 f1 7d d3 	lsl	x2, x10, #3
100007610: 48 02 00 b4 	cbz	x8, 0x100007658 <__ZN5alloc7raw_vec19RawVec$LT$T$C$A$GT$16reserve_for_push17h13a5a4ce14398d6dE+0xa0>
100007614: 69 06 40 f9 	ldr	x9, [x19, #8]
100007618: 08 05 08 8b 	add	x8, x8, x8, lsl #1
10000761c: 08 f1 7d d3 	lsl	x8, x8, #3
100007620: e9 a3 01 a9 	stp	x9, x8, [sp, #24]
100007624: 08 01 80 52 	mov	w8, #8
100007628: e8 17 00 f9 	str	x8, [sp, #40]
10000762c: e0 03 00 91 	mov	x0, sp
100007630: e3 63 00 91 	add	x3, sp, #24
100007634: 57 ff ff 97 	bl	0x100007390 <__ZN5alloc7raw_vec11finish_grow17heeec383c333f063dE>
100007638: e8 03 40 a9 	ldp	x8, x0, [sp]
10000763c: a8 01 00 b4 	cbz	x8, 0x100007670 <__ZN5alloc7raw_vec19RawVec$LT$T$C$A$GT$16reserve_for_push17h13a5a4ce14398d6dE+0xb8>
100007640: e1 0b 40 f9 	ldr	x1, [sp, #16]
100007644: e8 07 41 b2 	mov	x8, #-9223372036854775807
100007648: 3f 00 08 eb 	cmp	x1, x8
10000764c: 40 01 00 54 	b.eq	0x100007674 <__ZN5alloc7raw_vec19RawVec$LT$T$C$A$GT$16reserve_for_push17h13a5a4ce14398d6dE+0xbc>
100007650: a1 01 00 b5 	cbnz	x1, 0x100007684 <__ZN5alloc7raw_vec19RawVec$LT$T$C$A$GT$16reserve_for_push17h13a5a4ce14398d6dE+0xcc>
100007654: 44 88 00 94 	bl	0x100029764 <__ZN5alloc7raw_vec17capacity_overflow17h58bd20af15d65a5fE>
100007658: ff 17 00 f9 	str	xzr, [sp, #40]
10000765c: e0 03 00 91 	mov	x0, sp
100007660: e3 63 00 91 	add	x3, sp, #24
100007664: 4b ff ff 97 	bl	0x100007390 <__ZN5alloc7raw_vec11finish_grow17heeec383c333f063dE>
100007668: e8 03 40 a9 	ldp	x8, x0, [sp]
10000766c: a8 fe ff b5 	cbnz	x8, 0x100007640 <__ZN5alloc7raw_vec19RawVec$LT$T$C$A$GT$16reserve_for_push17h13a5a4ce14398d6dE+0x88>
100007670: 74 02 00 a9 	stp	x20, x0, [x19]
100007674: fd 7b 44 a9 	ldp	x29, x30, [sp, #64]
100007678: f4 4f 43 a9 	ldp	x20, x19, [sp, #48]
10000767c: ff 43 01 91 	add	sp, sp, #80
100007680: c0 03 5f d6 	ret
100007684: f2 a9 00 94 	bl	0x100031e4c <__ZN5alloc5alloc18handle_alloc_error17he988aec40bc1ae62E>

0000000100007688 <__ZN5alloc7raw_vec19RawVec$LT$T$C$A$GT$16reserve_for_push17h16c965a858882c8aE>:
100007688: ff 43 01 d1 	sub	sp, sp, #80
10000768c: f4 4f 03 a9 	stp	x20, x19, [sp, #48]
100007690: fd 7b 04 a9 	stp	x29, x30, [sp, #64]
100007694: fd 03 01 91 	add	x29, sp, #64
100007698: 29 04 00 b1 	adds	x9, x1, #1
10000769c: c2 03 00 54 	b.hs	0x100007714 <__ZN5alloc7raw_vec19RawVec$LT$T$C$A$GT$16reserve_for_push17h16c965a858882c8aE+0x8c>
1000076a0: f3 03 00 aa 	mov	x19, x0
1000076a4: 08 00 40 f9 	ldr	x8, [x0]
1000076a8: 0a f9 7f d3 	lsl	x10, x8, #1
1000076ac: 5f 01 09 eb 	cmp	x10, x9
1000076b0: 49 81 89 9a 	csel	x9, x10, x9, hi
1000076b4: 8a 00 80 52 	mov	w10, #4
1000076b8: 3f 11 00 f1 	cmp	x9, #4
1000076bc: 34 81 8a 9a 	csel	x20, x9, x10, hi
1000076c0: 81 ee 7c d3 	lsl	x1, x20, #4
1000076c4: 89 fe 7b d3 	lsr	x9, x20, #59
1000076c8: 3f 01 00 f1 	cmp	x9, #0
1000076cc: e9 17 9f 1a 	cset	w9, eq
1000076d0: 22 f1 7d d3 	lsl	x2, x9, #3
1000076d4: 28 02 00 b4 	cbz	x8, 0x100007718 <__ZN5alloc7raw_vec19RawVec$LT$T$C$A$GT$16reserve_for_push17h16c965a858882c8aE+0x90>
1000076d8: 69 06 40 f9 	ldr	x9, [x19, #8]
1000076dc: 08 ed 7c d3 	lsl	x8, x8, #4
1000076e0: e9 a3 01 a9 	stp	x9, x8, [sp, #24]
1000076e4: 08 01 80 52 	mov	w8, #8
1000076e8: e8 17 00 f9 	str	x8, [sp, #40]
1000076ec: e0 03 00 91 	mov	x0, sp
1000076f0: e3 63 00 91 	add	x3, sp, #24
1000076f4: 27 ff ff 97 	bl	0x100007390 <__ZN5alloc7raw_vec11finish_grow17heeec383c333f063dE>
1000076f8: e8 03 40 a9 	ldp	x8, x0, [sp]
1000076fc: a8 01 00 b4 	cbz	x8, 0x100007730 <__ZN5alloc7raw_vec19RawVec$LT$T$C$A$GT$16reserve_for_push17h16c965a858882c8aE+0xa8>
100007700: e1 0b 40 f9 	ldr	x1, [sp, #16]
100007704: e8 07 41 b2 	mov	x8, #-9223372036854775807
100007708: 3f 00 08 eb 	cmp	x1, x8
10000770c: 40 01 00 54 	b.eq	0x100007734 <__ZN5alloc7raw_vec19RawVec$LT$T$C$A$GT$16reserve_for_push17h16c965a858882c8aE+0xac>
100007710: a1 01 00 b5 	cbnz	x1, 0x100007744 <__ZN5alloc7raw_vec19RawVec$LT$T$C$A$GT$16reserve_for_push17h16c965a858882c8aE+0xbc>
100007714: 14 88 00 94 	bl	0x100029764 <__ZN5alloc7raw_vec17capacity_overflow17h58bd20af15d65a5fE>
100007718: ff 17 00 f9 	str	xzr, [sp, #40]
10000771c: e0 03 00 91 	mov	x0, sp
100007720: e3 63 00 91 	add	x3, sp, #24
100007724: 1b ff ff 97 	bl	0x100007390 <__ZN5alloc7raw_vec11finish_grow17heeec383c333f063dE>
100007728: e8 03 40 a9 	ldp	x8, x0, [sp]
10000772c: a8 fe ff b5 	cbnz	x8, 0x100007700 <__ZN5alloc7raw_vec19RawVec$LT$T$C$A$GT$16reserve_for_push17h16c965a858882c8aE+0x78>
100007730: 74 02 00 a9 	stp	x20, x0, [x19]
100007734: fd 7b 44 a9 	ldp	x29, x30, [sp, #64]
100007738: f4 4f 43 a9 	ldp	x20, x19, [sp, #48]
10000773c: ff 43 01 91 	add	sp, sp, #80
100007740: c0 03 5f d6 	ret
100007744: c2 a9 00 94 	bl	0x100031e4c <__ZN5alloc5alloc18handle_alloc_error17he988aec40bc1ae62E>

0000000100007748 <__ZN5alloc7raw_vec19RawVec$LT$T$C$A$GT$16reserve_for_push17h19f23da0d88dbf71E>:
100007748: ff 43 01 d1 	sub	sp, sp, #80
10000774c: f4 4f 03 a9 	stp	x20, x19, [sp, #48]
100007750: fd 7b 04 a9 	stp	x29, x30, [sp, #64]
100007754: fd 03 01 91 	add	x29, sp, #64
100007758: 29 04 00 b1 	adds	x9, x1, #1
10000775c: c2 03 00 54 	b.hs	0x1000077d4 <__ZN5alloc7raw_vec19RawVec$LT$T$C$A$GT$16reserve_for_push17h19f23da0d88dbf71E+0x8c>
100007760: f3 03 00 aa 	mov	x19, x0
100007764: 08 00 40 f9 	ldr	x8, [x0]
100007768: 0a f9 7f d3 	lsl	x10, x8, #1
10000776c: 5f 01 09 eb 	cmp	x10, x9
100007770: 49 81 89 9a 	csel	x9, x10, x9, hi
100007774: 8a 00 80 52 	mov	w10, #4
100007778: 3f 11 00 f1 	cmp	x9, #4
10000777c: 34 81 8a 9a 	csel	x20, x9, x10, hi
100007780: 81 e6 7a d3 	lsl	x1, x20, #6
100007784: 89 fe 79 d3 	lsr	x9, x20, #57
100007788: 3f 01 00 f1 	cmp	x9, #0
10000778c: e9 17 9f 1a 	cset	w9, eq
100007790: 22 f1 7d d3 	lsl	x2, x9, #3
100007794: 28 02 00 b4 	cbz	x8, 0x1000077d8 <__ZN5alloc7raw_vec19RawVec$LT$T$C$A$GT$16reserve_for_push17h19f23da0d88dbf71E+0x90>
100007798: 69 06 40 f9 	ldr	x9, [x19, #8]
10000779c: 08 e5 7a d3 	lsl	x8, x8, #6
1000077a0: e9 a3 01 a9 	stp	x9, x8, [sp, #24]
1000077a4: 08 01 80 52 	mov	w8, #8
1000077a8: e8 17 00 f9 	str	x8, [sp, #40]
1000077ac: e0 03 00 91 	mov	x0, sp
1000077b0: e3 63 00 91 	add	x3, sp, #24
1000077b4: f7 fe ff 97 	bl	0x100007390 <__ZN5alloc7raw_vec11finish_grow17heeec383c333f063dE>
1000077b8: e8 03 40 a9 	ldp	x8, x0, [sp]
1000077bc: a8 01 00 b4 	cbz	x8, 0x1000077f0 <__ZN5alloc7raw_vec19RawVec$LT$T$C$A$GT$16reserve_for_push17h19f23da0d88dbf71E+0xa8>
1000077c0: e1 0b 40 f9 	ldr	x1, [sp, #16]
1000077c4: e8 07 41 b2 	mov	x8, #-9223372036854775807
1000077c8: 3f 00 08 eb 	cmp	x1, x8
1000077cc: 40 01 00 54 	b.eq	0x1000077f4 <__ZN5alloc7raw_vec19RawVec$LT$T$C$A$GT$16reserve_for_push17h19f23da0d88dbf71E+0xac>
1000077d0: a1 01 00 b5 	cbnz	x1, 0x100007804 <__ZN5alloc7raw_vec19RawVec$LT$T$C$A$GT$16reserve_for_push17h19f23da0d88dbf71E+0xbc>
1000077d4: e4 87 00 94 	bl	0x100029764 <__ZN5alloc7raw_vec17capacity_overflow17h58bd20af15d65a5fE>
1000077d8: ff 17 00 f9 	str	xzr, [sp, #40]
1000077dc: e0 03 00 91 	mov	x0, sp
1000077e0: e3 63 00 91 	add	x3, sp, #24
1000077e4: eb fe ff 97 	bl	0x100007390 <__ZN5alloc7raw_vec11finish_grow17heeec383c333f063dE>
1000077e8: e8 03 40 a9 	ldp	x8, x0, [sp]
1000077ec: a8 fe ff b5 	cbnz	x8, 0x1000077c0 <__ZN5alloc7raw_vec19RawVec$LT$T$C$A$GT$16reserve_for_push17h19f23da0d88dbf71E+0x78>
1000077f0: 74 02 00 a9 	stp	x20, x0, [x19]
1000077f4: fd 7b 44 a9 	ldp	x29, x30, [sp, #64]
1000077f8: f4 4f 43 a9 	ldp	x20, x19, [sp, #48]
1000077fc: ff 43 01 91 	add	sp, sp, #80
100007800: c0 03 5f d6 	ret
100007804: 92 a9 00 94 	bl	0x100031e4c <__ZN5alloc5alloc18handle_alloc_error17he988aec40bc1ae62E>

0000000100007808 <__ZN5alloc7raw_vec19RawVec$LT$T$C$A$GT$16reserve_for_push17h45931af92fc63da1E>:
100007808: ff 43 01 d1 	sub	sp, sp, #80
10000780c: f4 4f 03 a9 	stp	x20, x19, [sp, #48]
100007810: fd 7b 04 a9 	stp	x29, x30, [sp, #64]
100007814: fd 03 01 91 	add	x29, sp, #64
100007818: 29 04 00 b1 	adds	x9, x1, #1
10000781c: 62 04 00 54 	b.hs	0x1000078a8 <__ZN5alloc7raw_vec19RawVec$LT$T$C$A$GT$16reserve_for_push17h45931af92fc63da1E+0xa0>
100007820: f3 03 00 aa 	mov	x19, x0
100007824: 08 00 40 f9 	ldr	x8, [x0]
100007828: 0a f9 7f d3 	lsl	x10, x8, #1
10000782c: 5f 01 09 eb 	cmp	x10, x9
100007830: 49 81 89 9a 	csel	x9, x10, x9, hi
100007834: 8a 00 80 52 	mov	w10, #4
100007838: 3f 11 00 f1 	cmp	x9, #4
10000783c: 34 81 8a 9a 	csel	x20, x9, x10, hi
100007840: 69 07 95 d2 	mov	x9, #43067
100007844: 69 50 a7 f2 	movk	x9, #14979, lsl #16
100007848: 09 75 d0 f2 	movk	x9, #33704, lsl #32
10000784c: 49 07 e0 f2 	movk	x9, #58, lsl #48
100007850: 9f 02 09 eb 	cmp	x20, x9
100007854: e9 27 9f 1a 	cset	w9, lo
100007858: 0a 46 80 52 	mov	w10, #560
10000785c: 81 7e 0a 9b 	mul	x1, x20, x10
100007860: 22 f1 7d d3 	lsl	x2, x9, #3
100007864: 48 02 00 b4 	cbz	x8, 0x1000078ac <__ZN5alloc7raw_vec19RawVec$LT$T$C$A$GT$16reserve_for_push17h45931af92fc63da1E+0xa4>
100007868: 69 06 40 f9 	ldr	x9, [x19, #8]
10000786c: 0a 46 80 52 	mov	w10, #560
100007870: 08 7d 0a 9b 	mul	x8, x8, x10
100007874: e9 a3 01 a9 	stp	x9, x8, [sp, #24]
100007878: 08 01 80 52 	mov	w8, #8
10000787c: e8 17 00 f9 	str	x8, [sp, #40]
100007880: e0 03 00 91 	mov	x0, sp
100007884: e3 63 00 91 	add	x3, sp, #24
100007888: c2 fe ff 97 	bl	0x100007390 <__ZN5alloc7raw_vec11finish_grow17heeec383c333f063dE>
10000788c: e8 03 40 a9 	ldp	x8, x0, [sp]
100007890: a8 01 00 b4 	cbz	x8, 0x1000078c4 <__ZN5alloc7raw_vec19RawVec$LT$T$C$A$GT$16reserve_for_push17h45931af92fc63da1E+0xbc>
100007894: e1 0b 40 f9 	ldr	x1, [sp, #16]
100007898: e8 07 41 b2 	mov	x8, #-9223372036854775807
10000789c: 3f 00 08 eb 	cmp	x1, x8
1000078a0: 40 01 00 54 	b.eq	0x1000078c8 <__ZN5alloc7raw_vec19RawVec$LT$T$C$A$GT$16reserve_for_push17h45931af92fc63da1E+0xc0>
1000078a4: a1 01 00 b5 	cbnz	x1, 0x1000078d8 <__ZN5alloc7raw_vec19RawVec$LT$T$C$A$GT$16reserve_for_push17h45931af92fc63da1E+0xd0>
1000078a8: af 87 00 94 	bl	0x100029764 <__ZN5alloc7raw_vec17capacity_overflow17h58bd20af15d65a5fE>
1000078ac: ff 17 00 f9 	str	xzr, [sp, #40]
1000078b0: e0 03 00 91 	mov	x0, sp
1000078b4: e3 63 00 91 	add	x3, sp, #24
1000078b8: b6 fe ff 97 	bl	0x100007390 <__ZN5alloc7raw_vec11finish_grow17heeec383c333f063dE>
1000078bc: e8 03 40 a9 	ldp	x8, x0, [sp]
1000078c0: a8 fe ff b5 	cbnz	x8, 0x100007894 <__ZN5alloc7raw_vec19RawVec$LT$T$C$A$GT$16reserve_for_push17h45931af92fc63da1E+0x8c>
1000078c4: 74 02 00 a9 	stp	x20, x0, [x19]
1000078c8: fd 7b 44 a9 	ldp	x29, x30, [sp, #64]
1000078cc: f4 4f 43 a9 	ldp	x20, x19, [sp, #48]
1000078d0: ff 43 01 91 	add	sp, sp, #80
1000078d4: c0 03 5f d6 	ret
1000078d8: 5d a9 00 94 	bl	0x100031e4c <__ZN5alloc5alloc18handle_alloc_error17he988aec40bc1ae62E>

00000001000078dc <__ZN5alloc7raw_vec19RawVec$LT$T$C$A$GT$16reserve_for_push17h4740dffa2bc85aa8E>:
1000078dc: ff 43 01 d1 	sub	sp, sp, #80
1000078e0: f4 4f 03 a9 	stp	x20, x19, [sp, #48]
1000078e4: fd 7b 04 a9 	stp	x29, x30, [sp, #64]
1000078e8: fd 03 01 91 	add	x29, sp, #64
1000078ec: 29 04 00 b1 	adds	x9, x1, #1
1000078f0: c2 03 00 54 	b.hs	0x100007968 <__ZN5alloc7raw_vec19RawVec$LT$T$C$A$GT$16reserve_for_push17h4740dffa2bc85aa8E+0x8c>
1000078f4: f3 03 00 aa 	mov	x19, x0
1000078f8: 08 00 40 f9 	ldr	x8, [x0]
1000078fc: 0a f9 7f d3 	lsl	x10, x8, #1
100007900: 5f 01 09 eb 	cmp	x10, x9
100007904: 49 81 89 9a 	csel	x9, x10, x9, hi
100007908: 8a 00 80 52 	mov	w10, #4
10000790c: 3f 11 00 f1 	cmp	x9, #4
100007910: 34 81 8a 9a 	csel	x20, x9, x10, hi
100007914: 81 ea 7b d3 	lsl	x1, x20, #5
100007918: 89 fe 7a d3 	lsr	x9, x20, #58
10000791c: 3f 01 00 f1 	cmp	x9, #0
100007920: e9 17 9f 1a 	cset	w9, eq
100007924: 22 f1 7d d3 	lsl	x2, x9, #3
100007928: 28 02 00 b4 	cbz	x8, 0x10000796c <__ZN5alloc7raw_vec19RawVec$LT$T$C$A$GT$16reserve_for_push17h4740dffa2bc85aa8E+0x90>
10000792c: 69 06 40 f9 	ldr	x9, [x19, #8]
100007930: 08 e9 7b d3 	lsl	x8, x8, #5
100007934: e9 a3 01 a9 	stp	x9, x8, [sp, #24]
100007938: 08 01 80 52 	mov	w8, #8
10000793c: e8 17 00 f9 	str	x8, [sp, #40]
100007940: e0 03 00 91 	mov	x0, sp
100007944: e3 63 00 91 	add	x3, sp, #24
100007948: 92 fe ff 97 	bl	0x100007390 <__ZN5alloc7raw_vec11finish_grow17heeec383c333f063dE>
10000794c: e8 03 40 a9 	ldp	x8, x0, [sp]
100007950: a8 01 00 b4 	cbz	x8, 0x100007984 <__ZN5alloc7raw_vec19RawVec$LT$T$C$A$GT$16reserve_for_push17h4740dffa2bc85aa8E+0xa8>
100007954: e1 0b 40 f9 	ldr	x1, [sp, #16]
100007958: e8 07 41 b2 	mov	x8, #-9223372036854775807
10000795c: 3f 00 08 eb 	cmp	x1, x8
100007960: 40 01 00 54 	b.eq	0x100007988 <__ZN5alloc7raw_vec19RawVec$LT$T$C$A$GT$16reserve_for_push17h4740dffa2bc85aa8E+0xac>
100007964: a1 01 00 b5 	cbnz	x1, 0x100007998 <__ZN5alloc7raw_vec19RawVec$LT$T$C$A$GT$16reserve_for_push17h4740dffa2bc85aa8E+0xbc>
100007968: 7f 87 00 94 	bl	0x100029764 <__ZN5alloc7raw_vec17capacity_overflow17h58bd20af15d65a5fE>
10000796c: ff 17 00 f9 	str	xzr, [sp, #40]
100007970: e0 03 00 91 	mov	x0, sp
100007974: e3 63 00 91 	add	x3, sp, #24
100007978: 86 fe ff 97 	bl	0x100007390 <__ZN5alloc7raw_vec11finish_grow17heeec383c333f063dE>
10000797c: e8 03 40 a9 	ldp	x8, x0, [sp]
100007980: a8 fe ff b5 	cbnz	x8, 0x100007954 <__ZN5alloc7raw_vec19RawVec$LT$T$C$A$GT$16reserve_for_push17h4740dffa2bc85aa8E+0x78>
100007984: 74 02 00 a9 	stp	x20, x0, [x19]
100007988: fd 7b 44 a9 	ldp	x29, x30, [sp, #64]
10000798c: f4 4f 43 a9 	ldp	x20, x19, [sp, #48]
100007990: ff 43 01 91 	add	sp, sp, #80
100007994: c0 03 5f d6 	ret
100007998: 2d a9 00 94 	bl	0x100031e4c <__ZN5alloc5alloc18handle_alloc_error17he988aec40bc1ae62E>

000000010000799c <__ZN5alloc7raw_vec19RawVec$LT$T$C$A$GT$16reserve_for_push17h68ca7a7b3eaf5402E>:
10000799c: ff 83 01 d1 	sub	sp, sp, #96
1000079a0: f6 57 03 a9 	stp	x22, x21, [sp, #48]
1000079a4: f4 4f 04 a9 	stp	x20, x19, [sp, #64]
1000079a8: fd 7b 05 a9 	stp	x29, x30, [sp, #80]
1000079ac: fd 43 01 91 	add	x29, sp, #80
1000079b0: 09 04 00 b1 	adds	x9, x0, #1
1000079b4: e2 04 00 54 	b.hs	0x100007a50 <__ZN5alloc7raw_vec19RawVec$LT$T$C$A$GT$16reserve_for_push17h68ca7a7b3eaf5402E+0xb4>
1000079b8: f3 01 00 b0 	adrp	x19, 0x100044000 <__ZN5alloc7raw_vec19RawVec$LT$T$C$A$GT$16reserve_for_push17ha9ce7cc14217595bE+0x8>
1000079bc: 73 42 01 91 	add	x19, x19, #80
1000079c0: 75 02 40 f9 	ldr	x21, [x19]
1000079c4: e0 03 13 aa 	mov	x0, x19
1000079c8: a0 02 3f d6 	blr	x21
1000079cc: 08 00 40 f9 	ldr	x8, [x0]
1000079d0: 0a f9 7f d3 	lsl	x10, x8, #1
1000079d4: 5f 01 09 eb 	cmp	x10, x9
1000079d8: 49 81 89 9a 	csel	x9, x10, x9, hi
1000079dc: 8a 00 80 52 	mov	w10, #4
1000079e0: 3f 11 00 f1 	cmp	x9, #4
1000079e4: 36 81 8a 9a 	csel	x22, x9, x10, hi
1000079e8: c1 ee 7c d3 	lsl	x1, x22, #4
1000079ec: c9 fe 7b d3 	lsr	x9, x22, #59
1000079f0: 3f 01 00 f1 	cmp	x9, #0
1000079f4: e9 17 9f 1a 	cset	w9, eq
1000079f8: 22 f1 7d d3 	lsl	x2, x9, #3
1000079fc: f4 01 00 b0 	adrp	x20, 0x100044000 <__ZN5alloc7raw_vec19RawVec$LT$T$C$A$GT$16reserve_for_push17ha9ce7cc14217595bE+0x4c>
100007a00: 94 a2 01 91 	add	x20, x20, #104
100007a04: 88 02 00 b4 	cbz	x8, 0x100007a54 <__ZN5alloc7raw_vec19RawVec$LT$T$C$A$GT$16reserve_for_push17h68ca7a7b3eaf5402E+0xb8>
100007a08: 89 02 40 f9 	ldr	x9, [x20]
100007a0c: e0 03 14 aa 	mov	x0, x20
100007a10: 20 01 3f d6 	blr	x9
100007a14: 09 00 40 f9 	ldr	x9, [x0]
100007a18: 08 ed 7c d3 	lsl	x8, x8, #4
100007a1c: e9 a3 01 a9 	stp	x9, x8, [sp, #24]
100007a20: 08 01 80 52 	mov	w8, #8
100007a24: e8 17 00 f9 	str	x8, [sp, #40]
100007a28: e0 03 00 91 	mov	x0, sp
100007a2c: e3 63 00 91 	add	x3, sp, #24
100007a30: 58 fe ff 97 	bl	0x100007390 <__ZN5alloc7raw_vec11finish_grow17heeec383c333f063dE>
100007a34: e9 23 40 a9 	ldp	x9, x8, [sp]
100007a38: a9 01 00 b4 	cbz	x9, 0x100007a6c <__ZN5alloc7raw_vec19RawVec$LT$T$C$A$GT$16reserve_for_push17h68ca7a7b3eaf5402E+0xd0>
100007a3c: e1 0b 40 f9 	ldr	x1, [sp, #16]
100007a40: e9 07 41 b2 	mov	x9, #-9223372036854775807
100007a44: 3f 00 09 eb 	cmp	x1, x9
100007a48: 00 02 00 54 	b.eq	0x100007a88 <__ZN5alloc7raw_vec19RawVec$LT$T$C$A$GT$16reserve_for_push17h68ca7a7b3eaf5402E+0xec>
100007a4c: 81 02 00 b5 	cbnz	x1, 0x100007a9c <__ZN5alloc7raw_vec19RawVec$LT$T$C$A$GT$16reserve_for_push17h68ca7a7b3eaf5402E+0x100>
100007a50: 45 87 00 94 	bl	0x100029764 <__ZN5alloc7raw_vec17capacity_overflow17h58bd20af15d65a5fE>
100007a54: ff 17 00 f9 	str	xzr, [sp, #40]
100007a58: e0 03 00 91 	mov	x0, sp
100007a5c: e3 63 00 91 	add	x3, sp, #24
100007a60: 4c fe ff 97 	bl	0x100007390 <__ZN5alloc7raw_vec11finish_grow17heeec383c333f063dE>
100007a64: e9 23 40 a9 	ldp	x9, x8, [sp]
100007a68: a9 fe ff b5 	cbnz	x9, 0x100007a3c <__ZN5alloc7raw_vec19RawVec$LT$T$C$A$GT$16reserve_for_push17h68ca7a7b3eaf5402E+0xa0>
100007a6c: 89 02 40 f9 	ldr	x9, [x20]
100007a70: e0 03 14 aa 	mov	x0, x20
100007a74: 20 01 3f d6 	blr	x9
100007a78: 08 00 00 f9 	str	x8, [x0]
100007a7c: e0 03 13 aa 	mov	x0, x19
100007a80: a0 02 3f d6 	blr	x21
100007a84: 16 00 00 f9 	str	x22, [x0]
100007a88: fd 7b 45 a9 	ldp	x29, x30, [sp, #80]
100007a8c: f4 4f 44 a9 	ldp	x20, x19, [sp, #64]
100007a90: f6 57 43 a9 	ldp	x22, x21, [sp, #48]
100007a94: ff 83 01 91 	add	sp, sp, #96
100007a98: c0 03 5f d6 	ret
100007a9c: e0 03 08 aa 	mov	x0, x8
100007aa0: eb a8 00 94 	bl	0x100031e4c <__ZN5alloc5alloc18handle_alloc_error17he988aec40bc1ae62E>

0000000100007aa4 <__ZN5alloc7raw_vec19RawVec$LT$T$C$A$GT$16reserve_for_push17ha9ce7cc14217595bE>:
100007aa4: ff 43 01 d1 	sub	sp, sp, #80
100007aa8: f4 4f 03 a9 	stp	x20, x19, [sp, #48]
100007aac: fd 7b 04 a9 	stp	x29, x30, [sp, #64]
100007ab0: fd 03 01 91 	add	x29, sp, #64
100007ab4: 29 04 00 b1 	adds	x9, x1, #1
100007ab8: 42 04 00 54 	b.hs	0x100007b40 <__ZN5alloc7raw_vec19RawVec$LT$T$C$A$GT$16reserve_for_push17ha9ce7cc14217595bE+0x9c>
100007abc: f3 03 00 aa 	mov	x19, x0
100007ac0: 08 00 40 f9 	ldr	x8, [x0]
100007ac4: 0a f9 7f d3 	lsl	x10, x8, #1
100007ac8: 5f 01 09 eb 	cmp	x10, x9
100007acc: 49 81 89 9a 	csel	x9, x10, x9, hi
100007ad0: 8a 00 80 52 	mov	w10, #4
100007ad4: 3f 11 00 f1 	cmp	x9, #4
100007ad8: 34 81 8a 9a 	csel	x20, x9, x10, hi
100007adc: e9 e7 00 b2 	mov	x9, #3689348814741910323
100007ae0: 89 66 86 f2 	movk	x9, #13108
100007ae4: 69 66 e0 f2 	movk	x9, #819, lsl #48
100007ae8: 9f 02 09 eb 	cmp	x20, x9
100007aec: 89 0a 14 8b 	add	x9, x20, x20, lsl #2
100007af0: ea 27 9f 1a 	cset	w10, lo
100007af4: 21 f1 7d d3 	lsl	x1, x9, #3
100007af8: 42 f1 7d d3 	lsl	x2, x10, #3
100007afc: 48 02 00 b4 	cbz	x8, 0x100007b44 <__ZN5alloc7raw_vec19RawVec$LT$T$C$A$GT$16reserve_for_push17ha9ce7cc14217595bE+0xa0>
100007b00: 69 06 40 f9 	ldr	x9, [x19, #8]
100007b04: 08 09 08 8b 	add	x8, x8, x8, lsl #2
100007b08: 08 f1 7d d3 	lsl	x8, x8, #3
100007b0c: e9 a3 01 a9 	stp	x9, x8, [sp, #24]
100007b10: 08 01 80 52 	mov	w8, #8
100007b14: e8 17 00 f9 	str	x8, [sp, #40]
100007b18: e0 03 00 91 	mov	x0, sp
100007b1c: e3 63 00 91 	add	x3, sp, #24
100007b20: 1c fe ff 97 	bl	0x100007390 <__ZN5alloc7raw_vec11finish_grow17heeec383c333f063dE>
100007b24: e8 03 40 a9 	ldp	x8, x0, [sp]
100007b28: a8 01 00 b4 	cbz	x8, 0x100007b5c <__ZN5alloc7raw_vec19RawVec$LT$T$C$A$GT$16reserve_for_push17ha9ce7cc14217595bE+0xb8>
100007b2c: e1 0b 40 f9 	ldr	x1, [sp, #16]
100007b30: e8 07 41 b2 	mov	x8, #-9223372036854775807
100007b34: 3f 00 08 eb 	cmp	x1, x8
100007b38: 40 01 00 54 	b.eq	0x100007b60 <__ZN5alloc7raw_vec19RawVec$LT$T$C$A$GT$16reserve_for_push17ha9ce7cc14217595bE+0xbc>
100007b3c: a1 01 00 b5 	cbnz	x1, 0x100007b70 <__ZN5alloc7raw_vec19RawVec$LT$T$C$A$GT$16reserve_for_push17ha9ce7cc14217595bE+0xcc>
100007b40: 09 87 00 94 	bl	0x100029764 <__ZN5alloc7raw_vec17capacity_overflow17h58bd20af15d65a5fE>
100007b44: ff 17 00 f9 	str	xzr, [sp, #40]
100007b48: e0 03 00 91 	mov	x0, sp
100007b4c: e3 63 00 91 	add	x3, sp, #24
100007b50: 10 fe ff 97 	bl	0x100007390 <__ZN5alloc7raw_vec11finish_grow17heeec383c333f063dE>
100007b54: e8 03 40 a9 	ldp	x8, x0, [sp]
100007b58: a8 fe ff b5 	cbnz	x8, 0x100007b2c <__ZN5alloc7raw_vec19RawVec$LT$T$C$A$GT$16reserve_for_push17ha9ce7cc14217595bE+0x88>
100007b5c: 74 02 00 a9 	stp	x20, x0, [x19]
100007b60: fd 7b 44 a9 	ldp	x29, x30, [sp, #64]
100007b64: f4 4f 43 a9 	ldp	x20, x19, [sp, #48]
100007b68: ff 43 01 91 	add	sp, sp, #80
100007b6c: c0 03 5f d6 	ret
100007b70: b7 a8 00 94 	bl	0x100031e4c <__ZN5alloc5alloc18handle_alloc_error17he988aec40bc1ae62E>

0000000100007b74 <__ZN5alloc7raw_vec19RawVec$LT$T$C$A$GT$16reserve_for_push17hb7831a2d016d3b0eE>:
100007b74: ff 43 01 d1 	sub	sp, sp, #80
100007b78: f4 4f 03 a9 	stp	x20, x19, [sp, #48]
100007b7c: fd 7b 04 a9 	stp	x29, x30, [sp, #64]
100007b80: fd 03 01 91 	add	x29, sp, #64
100007b84: 29 04 00 b1 	adds	x9, x1, #1
100007b88: 62 03 00 54 	b.hs	0x100007bf4 <__ZN5alloc7raw_vec19RawVec$LT$T$C$A$GT$16reserve_for_push17hb7831a2d016d3b0eE+0x80>
100007b8c: f3 03 00 aa 	mov	x19, x0
100007b90: 08 00 40 f9 	ldr	x8, [x0]
100007b94: 0a f9 7f d3 	lsl	x10, x8, #1
100007b98: 5f 01 09 eb 	cmp	x10, x9
100007b9c: 49 81 89 9a 	csel	x9, x10, x9, hi
100007ba0: 0a 01 80 52 	mov	w10, #8
100007ba4: 3f 21 00 f1 	cmp	x9, #8
100007ba8: 34 81 8a 9a 	csel	x20, x9, x10, hi
100007bac: e9 03 34 aa 	mvn	x9, x20
100007bb0: 22 fd 7f d3 	lsr	x2, x9, #63
100007bb4: 28 02 00 b4 	cbz	x8, 0x100007bf8 <__ZN5alloc7raw_vec19RawVec$LT$T$C$A$GT$16reserve_for_push17hb7831a2d016d3b0eE+0x84>
100007bb8: 69 06 40 f9 	ldr	x9, [x19, #8]
100007bbc: e9 a3 01 a9 	stp	x9, x8, [sp, #24]
100007bc0: 28 00 80 52 	mov	w8, #1
100007bc4: e8 17 00 f9 	str	x8, [sp, #40]
100007bc8: e0 03 00 91 	mov	x0, sp
100007bcc: e3 63 00 91 	add	x3, sp, #24
100007bd0: e1 03 14 aa 	mov	x1, x20
100007bd4: ef fd ff 97 	bl	0x100007390 <__ZN5alloc7raw_vec11finish_grow17heeec383c333f063dE>
100007bd8: e8 03 40 a9 	ldp	x8, x0, [sp]
100007bdc: c8 01 00 b4 	cbz	x8, 0x100007c14 <__ZN5alloc7raw_vec19RawVec$LT$T$C$A$GT$16reserve_for_push17hb7831a2d016d3b0eE+0xa0>
100007be0: e1 0b 40 f9 	ldr	x1, [sp, #16]
100007be4: e8 07 41 b2 	mov	x8, #-9223372036854775807
100007be8: 3f 00 08 eb 	cmp	x1, x8
100007bec: 60 01 00 54 	b.eq	0x100007c18 <__ZN5alloc7raw_vec19RawVec$LT$T$C$A$GT$16reserve_for_push17hb7831a2d016d3b0eE+0xa4>
100007bf0: c1 01 00 b5 	cbnz	x1, 0x100007c28 <__ZN5alloc7raw_vec19RawVec$LT$T$C$A$GT$16reserve_for_push17hb7831a2d016d3b0eE+0xb4>
100007bf4: dc 86 00 94 	bl	0x100029764 <__ZN5alloc7raw_vec17capacity_overflow17h58bd20af15d65a5fE>
100007bf8: ff 17 00 f9 	str	xzr, [sp, #40]
100007bfc: e0 03 00 91 	mov	x0, sp
100007c00: e3 63 00 91 	add	x3, sp, #24
100007c04: e1 03 14 aa 	mov	x1, x20
100007c08: e2 fd ff 97 	bl	0x100007390 <__ZN5alloc7raw_vec11finish_grow17heeec383c333f063dE>
100007c0c: e8 03 40 a9 	ldp	x8, x0, [sp]
100007c10: 88 fe ff b5 	cbnz	x8, 0x100007be0 <__ZN5alloc7raw_vec19RawVec$LT$T$C$A$GT$16reserve_for_push17hb7831a2d016d3b0eE+0x6c>
100007c14: 74 02 00 a9 	stp	x20, x0, [x19]
100007c18: fd 7b 44 a9 	ldp	x29, x30, [sp, #64]
100007c1c: f4 4f 43 a9 	ldp	x20, x19, [sp, #48]
100007c20: ff 43 01 91 	add	sp, sp, #80
100007c24: c0 03 5f d6 	ret
100007c28: 89 a8 00 94 	bl	0x100031e4c <__ZN5alloc5alloc18handle_alloc_error17he988aec40bc1ae62E>

0000000100007c2c <__ZN5alloc7raw_vec19RawVec$LT$T$C$A$GT$16reserve_for_push17hfa6e990e0ee6ff91E>:
100007c2c: ff 43 01 d1 	sub	sp, sp, #80
100007c30: f4 4f 03 a9 	stp	x20, x19, [sp, #48]
100007c34: fd 7b 04 a9 	stp	x29, x30, [sp, #64]
100007c38: fd 03 01 91 	add	x29, sp, #64
100007c3c: 29 04 00 b1 	adds	x9, x1, #1
100007c40: c2 03 00 54 	b.hs	0x100007cb8 <__ZN5alloc7raw_vec19RawVec$LT$T$C$A$GT$16reserve_for_push17hfa6e990e0ee6ff91E+0x8c>
100007c44: f3 03 00 aa 	mov	x19, x0
100007c48: 08 00 40 f9 	ldr	x8, [x0]
100007c4c: 0a f9 7f d3 	lsl	x10, x8, #1
100007c50: 5f 01 09 eb 	cmp	x10, x9
100007c54: 49 81 89 9a 	csel	x9, x10, x9, hi
100007c58: 8a 00 80 52 	mov	w10, #4
100007c5c: 3f 11 00 f1 	cmp	x9, #4
100007c60: 34 81 8a 9a 	csel	x20, x9, x10, hi
100007c64: 81 f6 7e d3 	lsl	x1, x20, #2
100007c68: 89 fe 7d d3 	lsr	x9, x20, #61
100007c6c: 3f 01 00 f1 	cmp	x9, #0
100007c70: e9 17 9f 1a 	cset	w9, eq
100007c74: 22 f9 7f d3 	lsl	x2, x9, #1
100007c78: 28 02 00 b4 	cbz	x8, 0x100007cbc <__ZN5alloc7raw_vec19RawVec$LT$T$C$A$GT$16reserve_for_push17hfa6e990e0ee6ff91E+0x90>
100007c7c: 69 06 40 f9 	ldr	x9, [x19, #8]
100007c80: 08 f5 7e d3 	lsl	x8, x8, #2
100007c84: e9 a3 01 a9 	stp	x9, x8, [sp, #24]
100007c88: 48 00 80 52 	mov	w8, #2
100007c8c: e8 17 00 f9 	str	x8, [sp, #40]
100007c90: e0 03 00 91 	mov	x0, sp
100007c94: e3 63 00 91 	add	x3, sp, #24
100007c98: be fd ff 97 	bl	0x100007390 <__ZN5alloc7raw_vec11finish_grow17heeec383c333f063dE>
100007c9c: e8 03 40 a9 	ldp	x8, x0, [sp]
100007ca0: a8 01 00 b4 	cbz	x8, 0x100007cd4 <__ZN5alloc7raw_vec19RawVec$LT$T$C$A$GT$16reserve_for_push17hfa6e990e0ee6ff91E+0xa8>
100007ca4: e1 0b 40 f9 	ldr	x1, [sp, #16]
100007ca8: e8 07 41 b2 	mov	x8, #-9223372036854775807
100007cac: 3f 00 08 eb 	cmp	x1, x8
100007cb0: 40 01 00 54 	b.eq	0x100007cd8 <__ZN5alloc7raw_vec19RawVec$LT$T$C$A$GT$16reserve_for_push17hfa6e990e0ee6ff91E+0xac>
100007cb4: a1 01 00 b5 	cbnz	x1, 0x100007ce8 <__ZN5alloc7raw_vec19RawVec$LT$T$C$A$GT$16reserve_for_push17hfa6e990e0ee6ff91E+0xbc>
100007cb8: ab 86 00 94 	bl	0x100029764 <__ZN5alloc7raw_vec17capacity_overflow17h58bd20af15d65a5fE>
100007cbc: ff 17 00 f9 	str	xzr, [sp, #40]
100007cc0: e0 03 00 91 	mov	x0, sp
100007cc4: e3 63 00 91 	add	x3, sp, #24
100007cc8: b2 fd ff 97 	bl	0x100007390 <__ZN5alloc7raw_vec11finish_grow17heeec383c333f063dE>
100007ccc: e8 03 40 a9 	ldp	x8, x0, [sp]
100007cd0: a8 fe ff b5 	cbnz	x8, 0x100007ca4 <__ZN5alloc7raw_vec19RawVec$LT$T$C$A$GT$16reserve_for_push17hfa6e990e0ee6ff91E+0x78>
100007cd4: 74 02 00 a9 	stp	x20, x0, [x19]
100007cd8: fd 7b 44 a9 	ldp	x29, x30, [sp, #64]
100007cdc: f4 4f 43 a9 	ldp	x20, x19, [sp, #48]
100007ce0: ff 43 01 91 	add	sp, sp, #80
100007ce4: c0 03 5f d6 	ret
100007ce8: 59 a8 00 94 	bl	0x100031e4c <__ZN5alloc5alloc18handle_alloc_error17he988aec40bc1ae62E>

0000000100007cec <__ZN5gimli4read4line15FileEntryFormat5parse17h6efdd65052ed09edE>:
100007cec: ff 03 02 d1 	sub	sp, sp, #128
100007cf0: fc 6f 02 a9 	stp	x28, x27, [sp, #32]
100007cf4: fa 67 03 a9 	stp	x26, x25, [sp, #48]
100007cf8: f8 5f 04 a9 	stp	x24, x23, [sp, #64]
100007cfc: f6 57 05 a9 	stp	x22, x21, [sp, #80]
100007d00: f4 4f 06 a9 	stp	x20, x19, [sp, #96]
100007d04: fd 7b 07 a9 	stp	x29, x30, [sp, #112]
100007d08: fd c3 01 91 	add	x29, sp, #112
100007d0c: f3 03 00 aa 	mov	x19, x0
100007d10: 36 20 40 a9 	ldp	x22, x8, [x1]
100007d14: e8 0b 00 b4 	cbz	x8, 0x100007e90 <__ZN5gimli4read4line15FileEntryFormat5parse17h6efdd65052ed09edE+0x1a4>
100007d18: f4 03 01 aa 	mov	x20, x1
100007d1c: d7 16 40 38 	ldrb	w23, [x22], #1
100007d20: 1a 05 00 d1 	sub	x26, x8, #1
100007d24: 36 68 00 a9 	stp	x22, x26, [x1]
100007d28: 57 0c 00 b4 	cbz	x23, 0x100007eb0 <__ZN5gimli4read4line15FileEntryFormat5parse17h6efdd65052ed09edE+0x1c4>
100007d2c: f5 f6 7e d3 	lsl	x21, x23, #2
100007d30: e0 03 15 aa 	mov	x0, x21
100007d34: 41 00 80 52 	mov	w1, #2
100007d38: 9c e7 ff 97 	bl	0x100001ba8 <___rust_alloc>
100007d3c: 40 12 00 b4 	cbz	x0, 0x100007f84 <__ZN5gimli4read4line15FileEntryFormat5parse17h6efdd65052ed09edE+0x298>
100007d40: 01 00 80 d2 	mov	x1, #0
100007d44: 18 00 80 52 	mov	w24, #0
100007d48: 19 00 80 d2 	mov	x25, #0
100007d4c: f7 83 00 a9 	stp	x23, x0, [sp, #8]
100007d50: ee ff 9f 52 	mov	w14, #65535
100007d54: ff 0f 00 f9 	str	xzr, [sp, #24]
100007d58: 09 00 80 d2 	mov	x9, #0
100007d5c: 0a 00 80 52 	mov	w10, #0
100007d60: e8 03 1c aa 	mov	x8, x28
100007d64: 39 07 00 91 	add	x25, x25, #1
100007d68: eb 03 1a aa 	mov	x11, x26
100007d6c: 1c 00 80 d2 	mov	x28, #0
100007d70: 07 00 00 14 	b	0x100007d8c <__ZN5gimli4read4line15FileEntryFormat5parse17h6efdd65052ed09edE+0xa0>
100007d74: 8d 19 40 92 	and	x13, x12, #0x7f
100007d78: ad 21 ca 9a 	lsl	x13, x13, x10
100007d7c: bc 01 1c aa 	orr	x28, x13, x28
100007d80: 4a 1d 00 11 	add	w10, w10, #7
100007d84: 29 05 00 91 	add	x9, x9, #1
100007d88: 8c 01 38 36 	tbz	w12, #7, 0x100007db8 <__ZN5gimli4read4line15FileEntryFormat5parse17h6efdd65052ed09edE+0xcc>
100007d8c: cd 02 09 8b 	add	x13, x22, x9
100007d90: 5f 03 09 eb 	cmp	x26, x9
100007d94: 20 0a 00 54 	b.eq	0x100007ed8 <__ZN5gimli4read4line15FileEntryFormat5parse17h6efdd65052ed09edE+0x1ec>
100007d98: ac 15 40 38 	ldrb	w12, [x13], #1
100007d9c: 6b 05 00 d1 	sub	x11, x11, #1
100007da0: 8d 2e 00 a9 	stp	x13, x11, [x20]
100007da4: 5f fd 00 71 	cmp	w10, #63
100007da8: 61 fe ff 54 	b.ne	0x100007d74 <__ZN5gimli4read4line15FileEntryFormat5parse17h6efdd65052ed09edE+0x88>
100007dac: 9f 09 00 71 	cmp	w12, #2
100007db0: 23 fe ff 54 	b.lo	0x100007d74 <__ZN5gimli4read4line15FileEntryFormat5parse17h6efdd65052ed09edE+0x88>
100007db4: 4c 00 00 14 	b	0x100007ee4 <__ZN5gimli4read4line15FileEntryFormat5parse17h6efdd65052ed09edE+0x1f8>
100007db8: c8 02 09 8b 	add	x8, x22, x9
100007dbc: 9f 03 0e eb 	cmp	x28, x14
100007dc0: e9 ff 9f 52 	mov	w9, #65535
100007dc4: 95 33 89 9a 	csel	x21, x28, x9, lo
100007dc8: bf 06 00 71 	cmp	w21, #1
100007dcc: 18 17 98 1a 	cinc	w24, w24, eq
100007dd0: 6b 0b 00 b4 	cbz	x11, 0x100007f3c <__ZN5gimli4read4line15FileEntryFormat5parse17h6efdd65052ed09edE+0x250>
100007dd4: 09 05 00 d1 	sub	x9, x8, #1
100007dd8: 6a 05 00 91 	add	x10, x11, #1
100007ddc: 36 09 00 91 	add	x22, x9, #2
100007de0: 5a 09 00 d1 	sub	x26, x10, #2
100007de4: 96 6a 00 a9 	stp	x22, x26, [x20]
100007de8: 0b 01 40 39 	ldrb	w11, [x8]
100007dec: 68 19 00 12 	and	w8, w11, #0x7f
100007df0: 2b 02 38 36 	tbz	w11, #7, 0x100007e34 <__ZN5gimli4read4line15FileEntryFormat5parse17h6efdd65052ed09edE+0x148>
100007df4: ba 0a 00 b4 	cbz	x26, 0x100007f48 <__ZN5gimli4read4line15FileEntryFormat5parse17h6efdd65052ed09edE+0x25c>
100007df8: 36 0d 00 91 	add	x22, x9, #3
100007dfc: 5a 0d 00 d1 	sub	x26, x10, #3
100007e00: 96 6a 00 a9 	stp	x22, x26, [x20]
100007e04: 2b 09 40 39 	ldrb	w11, [x9, #2]
100007e08: 6c 19 00 12 	and	w12, w11, #0x7f
100007e0c: 88 19 19 33 	bfi	w8, w12, #7, #7
100007e10: 2b 01 38 36 	tbz	w11, #7, 0x100007e34 <__ZN5gimli4read4line15FileEntryFormat5parse17h6efdd65052ed09edE+0x148>
100007e14: ba 09 00 b4 	cbz	x26, 0x100007f48 <__ZN5gimli4read4line15FileEntryFormat5parse17h6efdd65052ed09edE+0x25c>
100007e18: 36 11 00 91 	add	x22, x9, #4
100007e1c: 5a 11 00 d1 	sub	x26, x10, #4
100007e20: 96 6a 00 a9 	stp	x22, x26, [x20]
100007e24: 29 0d 40 39 	ldrb	w9, [x9, #3]
100007e28: 3f 0d 00 71 	cmp	w9, #3
100007e2c: 68 09 00 54 	b.hi	0x100007f58 <__ZN5gimli4read4line15FileEntryFormat5parse17h6efdd65052ed09edE+0x26c>
100007e30: 28 1d 12 33 	bfi	w8, w9, #14, #8
100007e34: fb 03 08 aa 	mov	x27, x8
100007e38: e8 07 40 f9 	ldr	x8, [sp, #8]
100007e3c: 3f 00 08 eb 	cmp	x1, x8
100007e40: 81 00 00 54 	b.ne	0x100007e50 <__ZN5gimli4read4line15FileEntryFormat5parse17h6efdd65052ed09edE+0x164>
100007e44: e0 23 00 91 	add	x0, sp, #8
100007e48: 79 ff ff 97 	bl	0x100007c2c <__ZN5alloc7raw_vec19RawVec$LT$T$C$A$GT$16reserve_for_push17hfa6e990e0ee6ff91E>
100007e4c: e0 07 41 a9 	ldp	x0, x1, [sp, #16]
100007e50: 08 08 01 8b 	add	x8, x0, x1, lsl #2
100007e54: 15 01 00 79 	strh	w21, [x8]
100007e58: 1b 05 00 79 	strh	w27, [x8, #2]
100007e5c: 21 04 00 91 	add	x1, x1, #1
100007e60: e1 0f 00 f9 	str	x1, [sp, #24]
100007e64: 3f 03 17 eb 	cmp	x25, x23
100007e68: ee ff 9f 52 	mov	w14, #65535
100007e6c: 61 f7 ff 54 	b.ne	0x100007d58 <__ZN5gimli4read4line15FileEntryFormat5parse17h6efdd65052ed09edE+0x6c>
100007e70: 1f 07 00 71 	cmp	w24, #1
100007e74: 41 02 00 54 	b.ne	0x100007ebc <__ZN5gimli4read4line15FileEntryFormat5parse17h6efdd65052ed09edE+0x1d0>
100007e78: e0 83 c0 3c 	ldur	q0, [sp, #8]
100007e7c: 60 82 80 3c 	stur	q0, [x19, #8]
100007e80: e8 0f 40 f9 	ldr	x8, [sp, #24]
100007e84: 68 0e 00 f9 	str	x8, [x19, #24]
100007e88: 7f 02 00 f9 	str	xzr, [x19]
100007e8c: 24 00 00 14 	b	0x100007f1c <__ZN5gimli4read4line15FileEntryFormat5parse17h6efdd65052ed09edE+0x230>
100007e90: 68 02 80 52 	mov	w8, #19
100007e94: 68 12 00 79 	strh	w8, [x19, #8]
100007e98: 7f 1e 00 79 	strh	wzr, [x19, #14]
100007e9c: 7f a2 00 b8 	stur	wzr, [x19, #10]
100007ea0: 76 0a 00 f9 	str	x22, [x19, #16]
100007ea4: 28 00 80 52 	mov	w8, #1
100007ea8: 68 02 00 f9 	str	x8, [x19]
100007eac: 1c 00 00 14 	b	0x100007f1c <__ZN5gimli4read4line15FileEntryFormat5parse17h6efdd65052ed09edE+0x230>
100007eb0: 48 00 80 52 	mov	w8, #2
100007eb4: f7 a3 00 a9 	stp	x23, x8, [sp, #8]
100007eb8: ff 0f 00 f9 	str	xzr, [sp, #24]
100007ebc: 88 08 80 52 	mov	w8, #68
100007ec0: 68 22 00 39 	strb	w8, [x19, #8]
100007ec4: 28 00 80 52 	mov	w8, #1
100007ec8: 68 02 00 f9 	str	x8, [x19]
100007ecc: e8 07 40 f9 	ldr	x8, [sp, #8]
100007ed0: e8 01 00 b5 	cbnz	x8, 0x100007f0c <__ZN5gimli4read4line15FileEntryFormat5parse17h6efdd65052ed09edE+0x220>
100007ed4: 12 00 00 14 	b	0x100007f1c <__ZN5gimli4read4line15FileEntryFormat5parse17h6efdd65052ed09edE+0x230>
100007ed8: 69 02 80 52 	mov	w9, #19
100007edc: e8 03 0d aa 	mov	x8, x13
100007ee0: 02 00 00 14 	b	0x100007ee8 <__ZN5gimli4read4line15FileEntryFormat5parse17h6efdd65052ed09edE+0x1fc>
100007ee4: c9 00 80 52 	mov	w9, #6
100007ee8: 69 22 00 39 	strb	w9, [x19, #8]
100007eec: 7f 26 00 39 	strb	wzr, [x19, #9]
100007ef0: 7f 1e 00 79 	strh	wzr, [x19, #14]
100007ef4: 7f a2 00 b8 	stur	wzr, [x19, #10]
100007ef8: 68 0a 00 f9 	str	x8, [x19, #16]
100007efc: 28 00 80 52 	mov	w8, #1
100007f00: 68 02 00 f9 	str	x8, [x19]
100007f04: e8 07 40 f9 	ldr	x8, [sp, #8]
100007f08: a8 00 00 b4 	cbz	x8, 0x100007f1c <__ZN5gimli4read4line15FileEntryFormat5parse17h6efdd65052ed09edE+0x230>
100007f0c: e0 0b 40 f9 	ldr	x0, [sp, #16]
100007f10: 01 f5 7e d3 	lsl	x1, x8, #2
100007f14: 42 00 80 52 	mov	w2, #2
100007f18: 25 e7 ff 97 	bl	0x100001bac <___rust_dealloc>
100007f1c: fd 7b 47 a9 	ldp	x29, x30, [sp, #112]
100007f20: f4 4f 46 a9 	ldp	x20, x19, [sp, #96]
100007f24: f6 57 45 a9 	ldp	x22, x21, [sp, #80]
100007f28: f8 5f 44 a9 	ldp	x24, x23, [sp, #64]
100007f2c: fa 67 43 a9 	ldp	x26, x25, [sp, #48]
100007f30: fc 6f 42 a9 	ldp	x28, x27, [sp, #32]
100007f34: ff 03 02 91 	add	sp, sp, #128
100007f38: c0 03 5f d6 	ret
100007f3c: 1b 00 80 52 	mov	w27, #0
100007f40: 69 02 80 52 	mov	w9, #19
100007f44: 06 00 00 14 	b	0x100007f5c <__ZN5gimli4read4line15FileEntryFormat5parse17h6efdd65052ed09edE+0x270>
100007f48: 1b 00 80 52 	mov	w27, #0
100007f4c: 69 02 80 52 	mov	w9, #19
100007f50: e8 03 16 aa 	mov	x8, x22
100007f54: 02 00 00 14 	b	0x100007f5c <__ZN5gimli4read4line15FileEntryFormat5parse17h6efdd65052ed09edE+0x270>
100007f58: c9 00 80 52 	mov	w9, #6
100007f5c: 69 22 00 39 	strb	w9, [x19, #8]
100007f60: 7f 26 00 39 	strb	wzr, [x19, #9]
100007f64: 7b 16 00 79 	strh	w27, [x19, #10]
100007f68: 7f 0e 00 b9 	str	wzr, [x19, #12]
100007f6c: 68 0a 00 f9 	str	x8, [x19, #16]
100007f70: 28 00 80 52 	mov	w8, #1
100007f74: 68 02 00 f9 	str	x8, [x19]
100007f78: e8 07 40 f9 	ldr	x8, [sp, #8]
100007f7c: 88 fc ff b5 	cbnz	x8, 0x100007f0c <__ZN5gimli4read4line15FileEntryFormat5parse17h6efdd65052ed09edE+0x220>
100007f80: e7 ff ff 17 	b	0x100007f1c <__ZN5gimli4read4line15FileEntryFormat5parse17h6efdd65052ed09edE+0x230>
100007f84: e0 03 15 aa 	mov	x0, x21
100007f88: 41 00 80 52 	mov	w1, #2
100007f8c: b0 a7 00 94 	bl	0x100031e4c <__ZN5alloc5alloc18handle_alloc_error17he988aec40bc1ae62E>
100007f90: f3 03 00 aa 	mov	x19, x0
100007f94: e0 23 00 91 	add	x0, sp, #8
100007f98: ef ed ff 97 	bl	0x100003754 <__ZN4core3ptr78drop_in_place$LT$alloc..vec..Vec$LT$gimli..read..line..FileEntryFormat$GT$$GT$17ha2db4e571bf659f0E>
100007f9c: e0 03 13 aa 	mov	x0, x19
100007fa0: 9d a8 00 94 	bl	0x100032214 <_writev+0x100032214>
100007fa4: fc a7 00 94 	bl	0x100031f94 <__ZN4core9panicking19panic_cannot_unwind17h96946ae592480b8aE>

0000000100007fa8 <__ZN5gimli4read4line15parse_attribute17h8f3317e83ecea927E>:
100007fa8: ff 03 01 d1 	sub	sp, sp, #64
100007fac: f4 4f 02 a9 	stp	x20, x19, [sp, #32]
100007fb0: fd 7b 03 a9 	stp	x29, x30, [sp, #48]
100007fb4: fd c3 00 91 	add	x29, sp, #48
100007fb8: f3 03 00 aa 	mov	x19, x0
100007fbc: 48 3c 08 53 	ubfx	w8, w2, #8, #8
100007fc0: 69 3c 00 12 	and	w9, w3, #0xffff
100007fc4: 2a 0d 00 51 	sub	w10, w9, #3
100007fc8: 5f 95 00 71 	cmp	w10, #37
100007fcc: 28 02 00 54 	b.hi	0x100008010 <__ZN5gimli4read4line15parse_attribute17h8f3317e83ecea927E+0x68>
100007fd0: 29 2f 15 10 	adr	x9, #173540
100007fd4: 1f 20 03 d5 	nop
100007fd8: 8b 00 00 10 	adr	x11, #16
100007fdc: 2c 79 6a 78 	ldrh	w12, [x9, x10, lsl #1]
100007fe0: 6b 09 0c 8b 	add	x11, x11, x12, lsl #2
100007fe4: 60 01 1f d6 	br	x11
100007fe8: 28 30 40 a9 	ldp	x8, x12, [x1]
100007fec: 8b 09 00 f1 	subs	x11, x12, #2
100007ff0: c2 27 00 54 	b.hs	0x1000084e8 <__ZN5gimli4read4line15parse_attribute17h8f3317e83ecea927E+0x540>
100007ff4: 09 00 80 d2 	mov	x9, #0
100007ff8: 6a 02 80 52 	mov	w10, #19
100007ffc: eb 03 0c aa 	mov	x11, x12
100008000: 4c 1d 00 12 	and	w12, w10, #0xff
100008004: 9f 2d 01 71 	cmp	w12, #75
100008008: c1 27 00 54 	b.ne	0x100008500 <__ZN5gimli4read4line15parse_attribute17h8f3317e83ecea927E+0x558>
10000800c: 49 01 00 14 	b	0x100008530 <__ZN5gimli4read4line15parse_attribute17h8f3317e83ecea927E+0x588>
100008010: 4a e0 83 52 	mov	w10, #7938
100008014: 3f 01 0a 6b 	cmp	w9, w10
100008018: 80 01 00 54 	b.eq	0x100008048 <__ZN5gimli4read4line15parse_attribute17h8f3317e83ecea927E+0xa0>
10000801c: 2a e4 83 52 	mov	w10, #7969
100008020: 3f 01 0a 6b 	cmp	w9, w10
100008024: a1 03 00 54 	b.ne	0x100008098 <__ZN5gimli4read4line15parse_attribute17h8f3317e83ecea927E+0xf0>
100008028: 1f 21 00 71 	cmp	w8, #8
10000802c: 61 24 00 54 	b.ne	0x1000084b8 <__ZN5gimli4read4line15parse_attribute17h8f3317e83ecea927E+0x510>
100008030: 29 20 40 a9 	ldp	x9, x8, [x1]
100008034: 0a 21 00 f1 	subs	x10, x8, #8
100008038: a2 36 00 54 	b.hs	0x10000870c <__ZN5gimli4read4line15parse_attribute17h8f3317e83ecea927E+0x764>
10000803c: 08 00 80 d2 	mov	x8, #0
100008040: 6a 02 80 52 	mov	w10, #19
100008044: b5 01 00 14 	b	0x100008718 <__ZN5gimli4read4line15parse_attribute17h8f3317e83ecea927E+0x770>
100008048: 09 00 80 52 	mov	w9, #0
10000804c: 0e 00 80 d2 	mov	x14, #0
100008050: 28 28 40 a9 	ldp	x8, x10, [x1]
100008054: 4a 05 00 d1 	sub	x10, x10, #1
100008058: 07 00 00 14 	b	0x100008074 <__ZN5gimli4read4line15parse_attribute17h8f3317e83ecea927E+0xcc>
10000805c: 6c 19 40 92 	and	x12, x11, #0x7f
100008060: 8c 21 c9 9a 	lsl	x12, x12, x9
100008064: 8e 01 0e aa 	orr	x14, x12, x14
100008068: 29 1d 00 11 	add	w9, w9, #7
10000806c: 4a 05 00 d1 	sub	x10, x10, #1
100008070: 0b 23 38 36 	tbz	w11, #7, 0x1000084d0 <__ZN5gimli4read4line15parse_attribute17h8f3317e83ecea927E+0x528>
100008074: 5f 05 00 b1 	cmn	x10, #1
100008078: a0 16 00 54 	b.eq	0x10000834c <__ZN5gimli4read4line15parse_attribute17h8f3317e83ecea927E+0x3a4>
10000807c: 0b 15 40 38 	ldrb	w11, [x8], #1
100008080: 28 28 00 a9 	stp	x8, x10, [x1]
100008084: 3f fd 00 71 	cmp	w9, #63
100008088: a1 fe ff 54 	b.ne	0x10000805c <__ZN5gimli4read4line15parse_attribute17h8f3317e83ecea927E+0xb4>
10000808c: 7f 09 00 71 	cmp	w11, #2
100008090: 63 fe ff 54 	b.lo	0x10000805c <__ZN5gimli4read4line15parse_attribute17h8f3317e83ecea927E+0xb4>
100008094: ac 00 00 14 	b	0x100008344 <__ZN5gimli4read4line15parse_attribute17h8f3317e83ecea927E+0x39c>
100008098: 88 01 80 52 	mov	w8, #12
10000809c: 68 22 00 39 	strb	w8, [x19, #8]
1000080a0: 30 02 00 14 	b	0x100008960 <__ZN5gimli4read4line15parse_attribute17h8f3317e83ecea927E+0x9b8>
1000080a4: 28 30 40 a9 	ldp	x8, x12, [x1]
1000080a8: 8b 11 00 f1 	subs	x11, x12, #4
1000080ac: 62 23 00 54 	b.hs	0x100008518 <__ZN5gimli4read4line15parse_attribute17h8f3317e83ecea927E+0x570>
1000080b0: 09 00 80 d2 	mov	x9, #0
1000080b4: 6a 02 80 52 	mov	w10, #19
1000080b8: eb 03 0c aa 	mov	x11, x12
1000080bc: 4c 1d 00 12 	and	w12, w10, #0xff
1000080c0: 9f 2d 01 71 	cmp	w12, #75
1000080c4: 60 23 00 54 	b.eq	0x100008530 <__ZN5gimli4read4line15parse_attribute17h8f3317e83ecea927E+0x588>
1000080c8: 7e 01 00 14 	b	0x1000086c0 <__ZN5gimli4read4line15parse_attribute17h8f3317e83ecea927E+0x718>
1000080cc: 29 20 40 a9 	ldp	x9, x8, [x1]
1000080d0: 0a 09 00 f1 	subs	x10, x8, #2
1000080d4: 62 24 00 54 	b.hs	0x100008560 <__ZN5gimli4read4line15parse_attribute17h8f3317e83ecea927E+0x5b8>
1000080d8: 08 00 80 52 	mov	w8, #0
1000080dc: 6a 02 80 52 	mov	w10, #19
1000080e0: 4b 1d 00 12 	and	w11, w10, #0xff
1000080e4: 7f 2d 01 71 	cmp	w11, #75
1000080e8: 80 24 00 54 	b.eq	0x100008578 <__ZN5gimli4read4line15parse_attribute17h8f3317e83ecea927E+0x5d0>
1000080ec: ff 03 00 79 	strh	wzr, [sp]
1000080f0: ff 23 00 b8 	stur	wzr, [sp, #2]
1000080f4: e8 13 40 78 	ldurh	w8, [sp, #1]
1000080f8: 6a 22 00 39 	strb	w10, [x19, #8]
1000080fc: 7f 26 00 39 	strb	wzr, [x19, #9]
100008100: 68 16 00 79 	strh	w8, [x19, #10]
100008104: 7f 0e 00 b9 	str	wzr, [x19, #12]
100008108: 15 02 00 14 	b	0x10000895c <__ZN5gimli4read4line15parse_attribute17h8f3317e83ecea927E+0x9b4>
10000810c: 29 20 40 a9 	ldp	x9, x8, [x1]
100008110: 0a 11 00 f1 	subs	x10, x8, #4
100008114: c2 23 00 54 	b.hs	0x10000858c <__ZN5gimli4read4line15parse_attribute17h8f3317e83ecea927E+0x5e4>
100008118: 08 00 80 52 	mov	w8, #0
10000811c: 6a 02 80 52 	mov	w10, #19
100008120: 4b 1d 00 12 	and	w11, w10, #0xff
100008124: 7f 2d 01 71 	cmp	w11, #75
100008128: e0 23 00 54 	b.eq	0x1000085a4 <__ZN5gimli4read4line15parse_attribute17h8f3317e83ecea927E+0x5fc>
10000812c: ff 03 00 b9 	str	wzr, [sp]
100008130: ff 1b 00 39 	strb	wzr, [sp, #6]
100008134: ff 0b 00 79 	strh	wzr, [sp, #4]
100008138: e8 33 40 b8 	ldur	w8, [sp, #3]
10000813c: 7f 92 00 78 	sturh	wzr, [x19, #9]
100008140: eb 5f 10 53 	ubfx	w11, wzr, #16, #8
100008144: 6b 2e 00 39 	strb	w11, [x19, #11]
100008148: 6a 22 00 39 	strb	w10, [x19, #8]
10000814c: 68 0e 00 b9 	str	w8, [x19, #12]
100008150: 03 02 00 14 	b	0x10000895c <__ZN5gimli4read4line15parse_attribute17h8f3317e83ecea927E+0x9b4>
100008154: 2a 20 40 a9 	ldp	x10, x8, [x1]
100008158: 09 21 00 f1 	subs	x9, x8, #8
10000815c: e2 22 00 54 	b.hs	0x1000085b8 <__ZN5gimli4read4line15parse_attribute17h8f3317e83ecea927E+0x610>
100008160: 08 00 80 d2 	mov	x8, #0
100008164: 69 02 80 52 	mov	w9, #19
100008168: 2b 1d 00 12 	and	w11, w9, #0xff
10000816c: 7f 2d 01 71 	cmp	w11, #75
100008170: 00 23 00 54 	b.eq	0x1000085d0 <__ZN5gimli4read4line15parse_attribute17h8f3317e83ecea927E+0x628>
100008174: ff 1b 00 39 	strb	wzr, [sp, #6]
100008178: ff 0b 00 79 	strh	wzr, [sp, #4]
10000817c: ff 03 00 b9 	str	wzr, [sp]
100008180: ea 73 00 f8 	stur	x10, [sp, #7]
100008184: e8 03 40 f9 	ldr	x8, [sp]
100008188: ea 0b 40 b9 	ldr	w10, [sp, #8]
10000818c: ea 1b 00 b9 	str	w10, [sp, #24]
100008190: ea b3 40 b8 	ldur	w10, [sp, #11]
100008194: ea b3 01 b8 	stur	w10, [sp, #27]
100008198: e8 0b 00 f9 	str	x8, [sp, #16]
10000819c: ea 73 41 f8 	ldur	x10, [sp, #23]
1000081a0: 68 92 00 b8 	stur	w8, [x19, #9]
1000081a4: e8 33 41 b8 	ldur	w8, [sp, #19]
1000081a8: 68 0e 00 b9 	str	w8, [x19, #12]
1000081ac: 69 22 00 39 	strb	w9, [x19, #8]
1000081b0: 6a 0a 00 f9 	str	x10, [x19, #16]
1000081b4: eb 01 00 14 	b	0x100008960 <__ZN5gimli4read4line15parse_attribute17h8f3317e83ecea927E+0x9b8>
1000081b8: 28 28 40 a9 	ldp	x8, x10, [x1]
1000081bc: ea 1b 00 b4 	cbz	x10, 0x100008538 <__ZN5gimli4read4line15parse_attribute17h8f3317e83ecea927E+0x590>
1000081c0: 09 00 80 d2 	mov	x9, #0
1000081c4: 0b 69 69 38 	ldrb	w11, [x8, x9]
1000081c8: cb 30 00 34 	cbz	w11, 0x1000087e0 <__ZN5gimli4read4line15parse_attribute17h8f3317e83ecea927E+0x838>
1000081cc: 29 05 00 91 	add	x9, x9, #1
1000081d0: 5f 01 09 eb 	cmp	x10, x9
1000081d4: 81 ff ff 54 	b.ne	0x1000081c4 <__ZN5gimli4read4line15parse_attribute17h8f3317e83ecea927E+0x21c>
1000081d8: d8 00 00 14 	b	0x100008538 <__ZN5gimli4read4line15parse_attribute17h8f3317e83ecea927E+0x590>
1000081dc: 0b 00 80 52 	mov	w11, #0
1000081e0: 09 00 80 d2 	mov	x9, #0
1000081e4: 28 28 40 a9 	ldp	x8, x10, [x1]
1000081e8: 06 00 00 14 	b	0x100008200 <__ZN5gimli4read4line15parse_attribute17h8f3317e83ecea927E+0x258>
1000081ec: 8d 19 40 92 	and	x13, x12, #0x7f
1000081f0: ad 21 cb 9a 	lsl	x13, x13, x11
1000081f4: a9 01 09 aa 	orr	x9, x13, x9
1000081f8: 6b 1d 00 11 	add	w11, w11, #7
1000081fc: ec 01 38 36 	tbz	w12, #7, 0x100008238 <__ZN5gimli4read4line15parse_attribute17h8f3317e83ecea927E+0x290>
100008200: 6a 0a 00 b4 	cbz	x10, 0x10000834c <__ZN5gimli4read4line15parse_attribute17h8f3317e83ecea927E+0x3a4>
100008204: 0c 15 40 38 	ldrb	w12, [x8], #1
100008208: 4a 05 00 d1 	sub	x10, x10, #1
10000820c: 28 28 00 a9 	stp	x8, x10, [x1]
100008210: 7f fd 00 71 	cmp	w11, #63
100008214: c1 fe ff 54 	b.ne	0x1000081ec <__ZN5gimli4read4line15parse_attribute17h8f3317e83ecea927E+0x244>
100008218: 9f 09 00 71 	cmp	w12, #2
10000821c: 83 fe ff 54 	b.lo	0x1000081ec <__ZN5gimli4read4line15parse_attribute17h8f3317e83ecea927E+0x244>
100008220: 49 00 00 14 	b	0x100008344 <__ZN5gimli4read4line15parse_attribute17h8f3317e83ecea927E+0x39c>
100008224: 28 28 40 a9 	ldp	x8, x10, [x1]
100008228: 6a 29 00 b4 	cbz	x10, 0x100008754 <__ZN5gimli4read4line15parse_attribute17h8f3317e83ecea927E+0x7ac>
10000822c: 09 15 40 38 	ldrb	w9, [x8], #1
100008230: 4a 05 00 d1 	sub	x10, x10, #1
100008234: 28 28 00 a9 	stp	x8, x10, [x1]
100008238: 4b 01 09 eb 	subs	x11, x10, x9
10000823c: e3 17 00 54 	b.lo	0x100008538 <__ZN5gimli4read4line15parse_attribute17h8f3317e83ecea927E+0x590>
100008240: c1 00 00 14 	b	0x100008544 <__ZN5gimli4read4line15parse_attribute17h8f3317e83ecea927E+0x59c>
100008244: 29 28 40 a9 	ldp	x9, x10, [x1]
100008248: ca 28 00 b4 	cbz	x10, 0x100008760 <__ZN5gimli4read4line15parse_attribute17h8f3317e83ecea927E+0x7b8>
10000824c: 28 15 40 38 	ldrb	w8, [x9], #1
100008250: 4a 05 00 d1 	sub	x10, x10, #1
100008254: 29 28 00 a9 	stp	x9, x10, [x1]
100008258: 6a 09 80 52 	mov	w10, #75
10000825c: 4b 1d 00 12 	and	w11, w10, #0xff
100008260: 7f 2d 01 71 	cmp	w11, #75
100008264: 80 28 00 54 	b.eq	0x100008774 <__ZN5gimli4read4line15parse_attribute17h8f3317e83ecea927E+0x7cc>
100008268: 59 01 00 14 	b	0x1000087cc <__ZN5gimli4read4line15parse_attribute17h8f3317e83ecea927E+0x824>
10000826c: 28 28 40 a9 	ldp	x8, x10, [x1]
100008270: ca 28 00 b4 	cbz	x10, 0x100008788 <__ZN5gimli4read4line15parse_attribute17h8f3317e83ecea927E+0x7e0>
100008274: 09 15 40 38 	ldrb	w9, [x8], #1
100008278: 4a 05 00 d1 	sub	x10, x10, #1
10000827c: 28 28 00 a9 	stp	x8, x10, [x1]
100008280: 6a 09 80 52 	mov	w10, #75
100008284: 4b 1d 00 12 	and	w11, w10, #0xff
100008288: 7f 2d 01 71 	cmp	w11, #75
10000828c: 81 28 00 54 	b.ne	0x10000879c <__ZN5gimli4read4line15parse_attribute17h8f3317e83ecea927E+0x7f4>
100008290: 0a 00 80 52 	mov	w10, #0
100008294: 0b 00 80 52 	mov	w11, #0
100008298: 0c 00 80 d2 	mov	x12, #0
10000829c: 3f 01 00 71 	cmp	w9, #0
1000082a0: e8 07 9f 1a 	cset	w8, ne
1000082a4: 2d 01 80 52 	mov	w13, #9
1000082a8: 9e 01 00 14 	b	0x100008920 <__ZN5gimli4read4line15parse_attribute17h8f3317e83ecea927E+0x978>
1000082ac: e0 03 00 91 	mov	x0, sp
1000082b0: 97 09 00 94 	bl	0x10000a90c <__ZN5gimli4read6reader6Reader12read_sleb12817h5173f85286a4d796E>
1000082b4: e8 03 40 39 	ldrb	w8, [sp]
1000082b8: 1f 2d 01 71 	cmp	w8, #75
1000082bc: 41 19 00 54 	b.ne	0x1000085e4 <__ZN5gimli4read4line15parse_attribute17h8f3317e83ecea927E+0x63c>
1000082c0: e8 07 40 f9 	ldr	x8, [sp, #8]
1000082c4: 0a 3d 08 53 	ubfx	w10, w8, #8, #8
1000082c8: 0b 3d 10 12 	and	w11, w8, #0xffff0000
1000082cc: 0c 7d 60 92 	and	x12, x8, #0xffffffff00000000
1000082d0: cd 00 80 52 	mov	w13, #6
1000082d4: 93 01 00 14 	b	0x100008920 <__ZN5gimli4read4line15parse_attribute17h8f3317e83ecea927E+0x978>
1000082d8: 1f 21 00 71 	cmp	w8, #8
1000082dc: 21 19 00 54 	b.ne	0x100008600 <__ZN5gimli4read4line15parse_attribute17h8f3317e83ecea927E+0x658>
1000082e0: 29 20 40 a9 	ldp	x9, x8, [x1]
1000082e4: 0a 21 00 f1 	subs	x10, x8, #8
1000082e8: c2 29 00 54 	b.hs	0x100008820 <__ZN5gimli4read4line15parse_attribute17h8f3317e83ecea927E+0x878>
1000082ec: 08 00 80 d2 	mov	x8, #0
1000082f0: 6a 02 80 52 	mov	w10, #19
1000082f4: 4e 01 00 14 	b	0x10000882c <__ZN5gimli4read4line15parse_attribute17h8f3317e83ecea927E+0x884>
1000082f8: 09 00 80 52 	mov	w9, #0
1000082fc: 0e 00 80 d2 	mov	x14, #0
100008300: 28 28 40 a9 	ldp	x8, x10, [x1]
100008304: 4a 05 00 d1 	sub	x10, x10, #1
100008308: 07 00 00 14 	b	0x100008324 <__ZN5gimli4read4line15parse_attribute17h8f3317e83ecea927E+0x37c>
10000830c: 6c 19 40 92 	and	x12, x11, #0x7f
100008310: 8c 21 c9 9a 	lsl	x12, x12, x9
100008314: 8e 01 0e aa 	orr	x14, x12, x14
100008318: 29 1d 00 11 	add	w9, w9, #7
10000831c: 4a 05 00 d1 	sub	x10, x10, #1
100008320: 4b 27 38 36 	tbz	w11, #7, 0x100008808 <__ZN5gimli4read4line15parse_attribute17h8f3317e83ecea927E+0x860>
100008324: 5f 05 00 b1 	cmn	x10, #1
100008328: 20 01 00 54 	b.eq	0x10000834c <__ZN5gimli4read4line15parse_attribute17h8f3317e83ecea927E+0x3a4>
10000832c: 0b 15 40 38 	ldrb	w11, [x8], #1
100008330: 28 28 00 a9 	stp	x8, x10, [x1]
100008334: 3f fd 00 71 	cmp	w9, #63
100008338: a1 fe ff 54 	b.ne	0x10000830c <__ZN5gimli4read4line15parse_attribute17h8f3317e83ecea927E+0x364>
10000833c: 7f 09 00 71 	cmp	w11, #2
100008340: 63 fe ff 54 	b.lo	0x10000830c <__ZN5gimli4read4line15parse_attribute17h8f3317e83ecea927E+0x364>
100008344: c9 00 80 52 	mov	w9, #6
100008348: 02 00 00 14 	b	0x100008350 <__ZN5gimli4read4line15parse_attribute17h8f3317e83ecea927E+0x3a8>
10000834c: 69 02 80 52 	mov	w9, #19
100008350: 69 22 00 39 	strb	w9, [x19, #8]
100008354: 7f 26 00 39 	strb	wzr, [x19, #9]
100008358: 7f 1e 00 79 	strh	wzr, [x19, #14]
10000835c: 7f a2 00 b8 	stur	wzr, [x19, #10]
100008360: 68 0a 00 f9 	str	x8, [x19, #16]
100008364: 7f 01 00 14 	b	0x100008960 <__ZN5gimli4read4line15parse_attribute17h8f3317e83ecea927E+0x9b8>
100008368: 28 24 40 a9 	ldp	x8, x9, [x1]
10000836c: 29 41 00 f1 	subs	x9, x9, #16
100008370: 43 0e 00 54 	b.lo	0x100008538 <__ZN5gimli4read4line15parse_attribute17h8f3317e83ecea927E+0x590>
100008374: 0c 41 00 91 	add	x12, x8, #16
100008378: 0a 3d 08 53 	ubfx	w10, w8, #8, #8
10000837c: 0b 3d 10 12 	and	w11, w8, #0xffff0000
100008380: 2c 24 00 a9 	stp	x12, x9, [x1]
100008384: 0c 7d 60 92 	and	x12, x8, #0xffffffff00000000
100008388: 2d 00 80 52 	mov	w13, #1
10000838c: 09 02 80 52 	mov	w9, #16
100008390: 64 01 00 14 	b	0x100008920 <__ZN5gimli4read4line15parse_attribute17h8f3317e83ecea927E+0x978>
100008394: 1f 21 00 71 	cmp	w8, #8
100008398: 01 14 00 54 	b.ne	0x100008618 <__ZN5gimli4read4line15parse_attribute17h8f3317e83ecea927E+0x670>
10000839c: 29 20 40 a9 	ldp	x9, x8, [x1]
1000083a0: 0a 21 00 f1 	subs	x10, x8, #8
1000083a4: c2 24 00 54 	b.hs	0x10000883c <__ZN5gimli4read4line15parse_attribute17h8f3317e83ecea927E+0x894>
1000083a8: 08 00 80 d2 	mov	x8, #0
1000083ac: 6a 02 80 52 	mov	w10, #19
1000083b0: 26 01 00 14 	b	0x100008848 <__ZN5gimli4read4line15parse_attribute17h8f3317e83ecea927E+0x8a0>
1000083b4: 29 28 40 a9 	ldp	x9, x10, [x1]
1000083b8: 6a 1f 00 b4 	cbz	x10, 0x1000087a4 <__ZN5gimli4read4line15parse_attribute17h8f3317e83ecea927E+0x7fc>
1000083bc: 28 15 40 38 	ldrb	w8, [x9], #1
1000083c0: 4a 05 00 d1 	sub	x10, x10, #1
1000083c4: 29 28 00 a9 	stp	x9, x10, [x1]
1000083c8: 6a 09 80 52 	mov	w10, #75
1000083cc: 4b 1d 00 12 	and	w11, w10, #0xff
1000083d0: 7f 2d 01 71 	cmp	w11, #75
1000083d4: c1 1f 00 54 	b.ne	0x1000087cc <__ZN5gimli4read4line15parse_attribute17h8f3317e83ecea927E+0x824>
1000083d8: f8 00 00 14 	b	0x1000087b8 <__ZN5gimli4read4line15parse_attribute17h8f3317e83ecea927E+0x810>
1000083dc: 29 20 40 a9 	ldp	x9, x8, [x1]
1000083e0: 0a 09 00 f1 	subs	x10, x8, #2
1000083e4: 62 12 00 54 	b.hs	0x100008630 <__ZN5gimli4read4line15parse_attribute17h8f3317e83ecea927E+0x688>
1000083e8: 08 00 80 52 	mov	w8, #0
1000083ec: 6a 02 80 52 	mov	w10, #19
1000083f0: 4b 1d 00 12 	and	w11, w10, #0xff
1000083f4: 7f 2d 01 71 	cmp	w11, #75
1000083f8: 80 12 00 54 	b.eq	0x100008648 <__ZN5gimli4read4line15parse_attribute17h8f3317e83ecea927E+0x6a0>
1000083fc: ff 03 00 79 	strh	wzr, [sp]
100008400: ff 23 00 b8 	stur	wzr, [sp, #2]
100008404: ff 1b 00 39 	strb	wzr, [sp, #6]
100008408: e8 03 40 b9 	ldr	w8, [sp]
10000840c: e8 13 00 b9 	str	w8, [sp, #16]
100008410: 1a 00 00 14 	b	0x100008478 <__ZN5gimli4read4line15parse_attribute17h8f3317e83ecea927E+0x4d0>
100008414: 29 20 40 a9 	ldp	x9, x8, [x1]
100008418: 08 0d 00 f1 	subs	x8, x8, #3
10000841c: 02 12 00 54 	b.hs	0x10000865c <__ZN5gimli4read4line15parse_attribute17h8f3317e83ecea927E+0x6b4>
100008420: 08 00 80 d2 	mov	x8, #0
100008424: 6a 02 80 52 	mov	w10, #19
100008428: 4b 1d 00 12 	and	w11, w10, #0xff
10000842c: 7f 2d 01 71 	cmp	w11, #75
100008430: 80 12 00 54 	b.eq	0x100008680 <__ZN5gimli4read4line15parse_attribute17h8f3317e83ecea927E+0x6d8>
100008434: 6a 22 00 39 	strb	w10, [x19, #8]
100008438: 7f 3e 00 39 	strb	wzr, [x19, #15]
10000843c: 7f d2 00 78 	sturh	wzr, [x19, #13]
100008440: 7f 92 00 b8 	stur	wzr, [x19, #9]
100008444: 46 01 00 14 	b	0x10000895c <__ZN5gimli4read4line15parse_attribute17h8f3317e83ecea927E+0x9b4>
100008448: 29 20 40 a9 	ldp	x9, x8, [x1]
10000844c: 0a 11 00 f1 	subs	x10, x8, #4
100008450: 22 12 00 54 	b.hs	0x100008694 <__ZN5gimli4read4line15parse_attribute17h8f3317e83ecea927E+0x6ec>
100008454: 08 00 80 52 	mov	w8, #0
100008458: 6a 02 80 52 	mov	w10, #19
10000845c: 4b 1d 00 12 	and	w11, w10, #0xff
100008460: 7f 2d 01 71 	cmp	w11, #75
100008464: 40 12 00 54 	b.eq	0x1000086ac <__ZN5gimli4read4line15parse_attribute17h8f3317e83ecea927E+0x704>
100008468: ff 03 00 b9 	str	wzr, [sp]
10000846c: ff 1b 00 39 	strb	wzr, [sp, #6]
100008470: ff 0b 00 79 	strh	wzr, [sp, #4]
100008474: ff 13 00 b9 	str	wzr, [sp, #16]
100008478: e8 33 40 b8 	ldur	w8, [sp, #3]
10000847c: e8 33 01 b8 	stur	w8, [sp, #19]
100008480: e8 13 40 b9 	ldr	w8, [sp, #16]
100008484: 68 92 00 b8 	stur	w8, [x19, #9]
100008488: e8 33 41 b8 	ldur	w8, [sp, #19]
10000848c: 68 0e 00 b9 	str	w8, [x19, #12]
100008490: 6a 22 00 39 	strb	w10, [x19, #8]
100008494: 32 01 00 14 	b	0x10000895c <__ZN5gimli4read4line15parse_attribute17h8f3317e83ecea927E+0x9b4>
100008498: 1f 21 00 71 	cmp	w8, #8
10000849c: c1 12 00 54 	b.ne	0x1000086f4 <__ZN5gimli4read4line15parse_attribute17h8f3317e83ecea927E+0x74c>
1000084a0: 29 20 40 a9 	ldp	x9, x8, [x1]
1000084a4: 0a 21 00 f1 	subs	x10, x8, #8
1000084a8: 82 1d 00 54 	b.hs	0x100008858 <__ZN5gimli4read4line15parse_attribute17h8f3317e83ecea927E+0x8b0>
1000084ac: 08 00 80 d2 	mov	x8, #0
1000084b0: 6a 02 80 52 	mov	w10, #19
1000084b4: ec 00 00 14 	b	0x100008864 <__ZN5gimli4read4line15parse_attribute17h8f3317e83ecea927E+0x8bc>
1000084b8: 29 20 40 a9 	ldp	x9, x8, [x1]
1000084bc: 0a 11 00 f1 	subs	x10, x8, #4
1000084c0: 42 13 00 54 	b.hs	0x100008728 <__ZN5gimli4read4line15parse_attribute17h8f3317e83ecea927E+0x780>
1000084c4: 08 00 80 d2 	mov	x8, #0
1000084c8: 6a 02 80 52 	mov	w10, #19
1000084cc: 9a 00 00 14 	b	0x100008734 <__ZN5gimli4read4line15parse_attribute17h8f3317e83ecea927E+0x78c>
1000084d0: ca 3d 08 53 	ubfx	w10, w14, #8, #8
1000084d4: cb 3d 10 12 	and	w11, w14, #0xffff0000
1000084d8: cc 7d 60 92 	and	x12, x14, #0xffffffff00000000
1000084dc: ad 03 80 52 	mov	w13, #29
1000084e0: e8 03 0e aa 	mov	x8, x14
1000084e4: 0f 01 00 14 	b	0x100008920 <__ZN5gimli4read4line15parse_attribute17h8f3317e83ecea927E+0x978>
1000084e8: 09 25 40 78 	ldrh	w9, [x8], #2
1000084ec: 28 2c 00 a9 	stp	x8, x11, [x1]
1000084f0: 6a 09 80 52 	mov	w10, #75
1000084f4: 4c 1d 00 12 	and	w12, w10, #0xff
1000084f8: 9f 2d 01 71 	cmp	w12, #75
1000084fc: a0 01 00 54 	b.eq	0x100008530 <__ZN5gimli4read4line15parse_attribute17h8f3317e83ecea927E+0x588>
100008500: ff 03 00 79 	strh	wzr, [sp]
100008504: ff 23 00 b8 	stur	wzr, [sp, #2]
100008508: ff 1b 00 39 	strb	wzr, [sp, #6]
10000850c: e9 03 40 b9 	ldr	w9, [sp]
100008510: e9 13 00 b9 	str	w9, [sp, #16]
100008514: 6f 00 00 14 	b	0x1000086d0 <__ZN5gimli4read4line15parse_attribute17h8f3317e83ecea927E+0x728>
100008518: 09 45 40 b8 	ldr	w9, [x8], #4
10000851c: 28 2c 00 a9 	stp	x8, x11, [x1]
100008520: 6a 09 80 52 	mov	w10, #75
100008524: 4c 1d 00 12 	and	w12, w10, #0xff
100008528: 9f 2d 01 71 	cmp	w12, #75
10000852c: a1 0c 00 54 	b.ne	0x1000086c0 <__ZN5gimli4read4line15parse_attribute17h8f3317e83ecea927E+0x718>
100008530: 6b 01 09 eb 	subs	x11, x11, x9
100008534: 82 00 00 54 	b.hs	0x100008544 <__ZN5gimli4read4line15parse_attribute17h8f3317e83ecea927E+0x59c>
100008538: 69 02 80 52 	mov	w9, #19
10000853c: 69 a2 00 a9 	stp	x9, x8, [x19, #8]
100008540: 08 01 00 14 	b	0x100008960 <__ZN5gimli4read4line15parse_attribute17h8f3317e83ecea927E+0x9b8>
100008544: 0c 01 09 8b 	add	x12, x8, x9
100008548: 0a 3d 08 53 	ubfx	w10, w8, #8, #8
10000854c: 2c 2c 00 a9 	stp	x12, x11, [x1]
100008550: 0b 3d 10 12 	and	w11, w8, #0xffff0000
100008554: 0c 7d 60 92 	and	x12, x8, #0xffffffff00000000
100008558: 2d 00 80 52 	mov	w13, #1
10000855c: f1 00 00 14 	b	0x100008920 <__ZN5gimli4read4line15parse_attribute17h8f3317e83ecea927E+0x978>
100008560: 28 25 40 78 	ldrh	w8, [x9], #2
100008564: 29 28 00 a9 	stp	x9, x10, [x1]
100008568: 6a 09 80 52 	mov	w10, #75
10000856c: 4b 1d 00 12 	and	w11, w10, #0xff
100008570: 7f 2d 01 71 	cmp	w11, #75
100008574: c1 db ff 54 	b.ne	0x1000080ec <__ZN5gimli4read4line15parse_attribute17h8f3317e83ecea927E+0x144>
100008578: 0b 00 80 52 	mov	w11, #0
10000857c: 0c 00 80 d2 	mov	x12, #0
100008580: 0a 7d 08 53 	lsr	w10, w8, #8
100008584: 6d 00 80 52 	mov	w13, #3
100008588: e6 00 00 14 	b	0x100008920 <__ZN5gimli4read4line15parse_attribute17h8f3317e83ecea927E+0x978>
10000858c: 28 45 40 b8 	ldr	w8, [x9], #4
100008590: 29 28 00 a9 	stp	x9, x10, [x1]
100008594: 6a 09 80 52 	mov	w10, #75
100008598: 4b 1d 00 12 	and	w11, w10, #0xff
10000859c: 7f 2d 01 71 	cmp	w11, #75
1000085a0: 61 dc ff 54 	b.ne	0x10000812c <__ZN5gimli4read4line15parse_attribute17h8f3317e83ecea927E+0x184>
1000085a4: 0c 00 80 d2 	mov	x12, #0
1000085a8: 0a 3d 08 53 	ubfx	w10, w8, #8, #8
1000085ac: 0b 3d 10 12 	and	w11, w8, #0xffff0000
1000085b0: 8d 00 80 52 	mov	w13, #4
1000085b4: db 00 00 14 	b	0x100008920 <__ZN5gimli4read4line15parse_attribute17h8f3317e83ecea927E+0x978>
1000085b8: 48 85 40 f8 	ldr	x8, [x10], #8
1000085bc: 2a 24 00 a9 	stp	x10, x9, [x1]
1000085c0: 69 09 80 52 	mov	w9, #75
1000085c4: 2b 1d 00 12 	and	w11, w9, #0xff
1000085c8: 7f 2d 01 71 	cmp	w11, #75
1000085cc: 41 dd ff 54 	b.ne	0x100008174 <__ZN5gimli4read4line15parse_attribute17h8f3317e83ecea927E+0x1cc>
1000085d0: 0a 3d 08 53 	ubfx	w10, w8, #8, #8
1000085d4: 0b 3d 10 12 	and	w11, w8, #0xffff0000
1000085d8: 0c 7d 60 92 	and	x12, x8, #0xffffffff00000000
1000085dc: ad 00 80 52 	mov	w13, #5
1000085e0: d0 00 00 14 	b	0x100008920 <__ZN5gimli4read4line15parse_attribute17h8f3317e83ecea927E+0x978>
1000085e4: e9 07 40 f9 	ldr	x9, [sp, #8]
1000085e8: ea 13 40 b8 	ldur	w10, [sp, #1]
1000085ec: 6a 92 00 b8 	stur	w10, [x19, #9]
1000085f0: ea 07 40 b9 	ldr	w10, [sp, #4]
1000085f4: 6a 0e 00 b9 	str	w10, [x19, #12]
1000085f8: 68 22 00 39 	strb	w8, [x19, #8]
1000085fc: d8 00 00 14 	b	0x10000895c <__ZN5gimli4read4line15parse_attribute17h8f3317e83ecea927E+0x9b4>
100008600: 29 20 40 a9 	ldp	x9, x8, [x1]
100008604: 0a 11 00 f1 	subs	x10, x8, #4
100008608: c2 14 00 54 	b.hs	0x1000088a0 <__ZN5gimli4read4line15parse_attribute17h8f3317e83ecea927E+0x8f8>
10000860c: 08 00 80 d2 	mov	x8, #0
100008610: 6a 02 80 52 	mov	w10, #19
100008614: a6 00 00 14 	b	0x1000088ac <__ZN5gimli4read4line15parse_attribute17h8f3317e83ecea927E+0x904>
100008618: 29 20 40 a9 	ldp	x9, x8, [x1]
10000861c: 0a 11 00 f1 	subs	x10, x8, #4
100008620: 62 15 00 54 	b.hs	0x1000088cc <__ZN5gimli4read4line15parse_attribute17h8f3317e83ecea927E+0x924>
100008624: 08 00 80 d2 	mov	x8, #0
100008628: 6a 02 80 52 	mov	w10, #19
10000862c: ab 00 00 14 	b	0x1000088d8 <__ZN5gimli4read4line15parse_attribute17h8f3317e83ecea927E+0x930>
100008630: 28 25 40 78 	ldrh	w8, [x9], #2
100008634: 29 28 00 a9 	stp	x9, x10, [x1]
100008638: 6a 09 80 52 	mov	w10, #75
10000863c: 4b 1d 00 12 	and	w11, w10, #0xff
100008640: 7f 2d 01 71 	cmp	w11, #75
100008644: c1 ed ff 54 	b.ne	0x1000083fc <__ZN5gimli4read4line15parse_attribute17h8f3317e83ecea927E+0x454>
100008648: 0b 00 80 52 	mov	w11, #0
10000864c: 0c 00 80 d2 	mov	x12, #0
100008650: 0a 7d 08 53 	lsr	w10, w8, #8
100008654: ad 03 80 52 	mov	w13, #29
100008658: b2 00 00 14 	b	0x100008920 <__ZN5gimli4read4line15parse_attribute17h8f3317e83ecea927E+0x978>
10000865c: 2a 0d 00 91 	add	x10, x9, #3
100008660: 2a 20 00 a9 	stp	x10, x8, [x1]
100008664: 2a 09 40 39 	ldrb	w10, [x9, #2]
100008668: 28 01 40 79 	ldrh	w8, [x9]
10000866c: 48 1d 70 b3 	bfi	x8, x10, #16, #8
100008670: 6a 09 80 52 	mov	w10, #75
100008674: 4b 1d 00 12 	and	w11, w10, #0xff
100008678: 7f 2d 01 71 	cmp	w11, #75
10000867c: c1 ed ff 54 	b.ne	0x100008434 <__ZN5gimli4read4line15parse_attribute17h8f3317e83ecea927E+0x48c>
100008680: 0c 00 80 d2 	mov	x12, #0
100008684: 0a 3d 08 53 	ubfx	w10, w8, #8, #8
100008688: 0b 1d 10 12 	and	w11, w8, #0xff0000
10000868c: ad 03 80 52 	mov	w13, #29
100008690: a4 00 00 14 	b	0x100008920 <__ZN5gimli4read4line15parse_attribute17h8f3317e83ecea927E+0x978>
100008694: 28 45 40 b8 	ldr	w8, [x9], #4
100008698: 29 28 00 a9 	stp	x9, x10, [x1]
10000869c: 6a 09 80 52 	mov	w10, #75
1000086a0: 4b 1d 00 12 	and	w11, w10, #0xff
1000086a4: 7f 2d 01 71 	cmp	w11, #75
1000086a8: 01 ee ff 54 	b.ne	0x100008468 <__ZN5gimli4read4line15parse_attribute17h8f3317e83ecea927E+0x4c0>
1000086ac: 0c 00 80 d2 	mov	x12, #0
1000086b0: 0a 7d 08 53 	lsr	w10, w8, #8
1000086b4: 0b 3d 10 12 	and	w11, w8, #0xffff0000
1000086b8: ad 03 80 52 	mov	w13, #29
1000086bc: 99 00 00 14 	b	0x100008920 <__ZN5gimli4read4line15parse_attribute17h8f3317e83ecea927E+0x978>
1000086c0: ff 03 00 b9 	str	wzr, [sp]
1000086c4: ff 1b 00 39 	strb	wzr, [sp, #6]
1000086c8: ff 0b 00 79 	strh	wzr, [sp, #4]
1000086cc: ff 13 00 b9 	str	wzr, [sp, #16]
1000086d0: e9 33 40 b8 	ldur	w9, [sp, #3]
1000086d4: e9 33 01 b8 	stur	w9, [sp, #19]
1000086d8: e9 13 40 b9 	ldr	w9, [sp, #16]
1000086dc: 69 92 00 b8 	stur	w9, [x19, #9]
1000086e0: e9 33 41 b8 	ldur	w9, [sp, #19]
1000086e4: 69 0e 00 b9 	str	w9, [x19, #12]
1000086e8: 6a 22 00 39 	strb	w10, [x19, #8]
1000086ec: 68 0a 00 f9 	str	x8, [x19, #16]
1000086f0: 9c 00 00 14 	b	0x100008960 <__ZN5gimli4read4line15parse_attribute17h8f3317e83ecea927E+0x9b8>
1000086f4: 29 20 40 a9 	ldp	x9, x8, [x1]
1000086f8: 0a 11 00 f1 	subs	x10, x8, #4
1000086fc: e2 0f 00 54 	b.hs	0x1000088f8 <__ZN5gimli4read4line15parse_attribute17h8f3317e83ecea927E+0x950>
100008700: 08 00 80 d2 	mov	x8, #0
100008704: 6a 02 80 52 	mov	w10, #19
100008708: 7f 00 00 14 	b	0x100008904 <__ZN5gimli4read4line15parse_attribute17h8f3317e83ecea927E+0x95c>
10000870c: 28 85 40 f8 	ldr	x8, [x9], #8
100008710: 29 28 00 a9 	stp	x9, x10, [x1]
100008714: 6a 09 80 52 	mov	w10, #75
100008718: 4a 1d 00 12 	and	w10, w10, #0xff
10000871c: 5f 2d 01 71 	cmp	w10, #75
100008720: 00 01 00 54 	b.eq	0x100008740 <__ZN5gimli4read4line15parse_attribute17h8f3317e83ecea927E+0x798>
100008724: 53 00 00 14 	b	0x100008870 <__ZN5gimli4read4line15parse_attribute17h8f3317e83ecea927E+0x8c8>
100008728: 28 45 40 b8 	ldr	w8, [x9], #4
10000872c: 29 28 00 a9 	stp	x9, x10, [x1]
100008730: 6a 09 80 52 	mov	w10, #75
100008734: 4a 1d 00 12 	and	w10, w10, #0xff
100008738: 5f 2d 01 71 	cmp	w10, #75
10000873c: 01 10 00 54 	b.ne	0x10000893c <__ZN5gimli4read4line15parse_attribute17h8f3317e83ecea927E+0x994>
100008740: 0a 3d 08 53 	ubfx	w10, w8, #8, #8
100008744: 0b 3d 10 12 	and	w11, w8, #0xffff0000
100008748: 0c 7d 60 92 	and	x12, x8, #0xffffffff00000000
10000874c: 6d 03 80 52 	mov	w13, #27
100008750: 74 00 00 14 	b	0x100008920 <__ZN5gimli4read4line15parse_attribute17h8f3317e83ecea927E+0x978>
100008754: 69 02 80 52 	mov	w9, #19
100008758: 69 12 00 79 	strh	w9, [x19, #8]
10000875c: ff fe ff 17 	b	0x100008358 <__ZN5gimli4read4line15parse_attribute17h8f3317e83ecea927E+0x3b0>
100008760: 08 00 80 52 	mov	w8, #0
100008764: 6a 02 80 52 	mov	w10, #19
100008768: 4b 1d 00 12 	and	w11, w10, #0xff
10000876c: 7f 2d 01 71 	cmp	w11, #75
100008770: e1 02 00 54 	b.ne	0x1000087cc <__ZN5gimli4read4line15parse_attribute17h8f3317e83ecea927E+0x824>
100008774: 0a 00 80 52 	mov	w10, #0
100008778: 0b 00 80 52 	mov	w11, #0
10000877c: 0c 00 80 d2 	mov	x12, #0
100008780: 4d 00 80 52 	mov	w13, #2
100008784: 67 00 00 14 	b	0x100008920 <__ZN5gimli4read4line15parse_attribute17h8f3317e83ecea927E+0x978>
100008788: 09 00 80 52 	mov	w9, #0
10000878c: 6a 02 80 52 	mov	w10, #19
100008790: 4b 1d 00 12 	and	w11, w10, #0xff
100008794: 7f 2d 01 71 	cmp	w11, #75
100008798: c0 d7 ff 54 	b.eq	0x100008290 <__ZN5gimli4read4line15parse_attribute17h8f3317e83ecea927E+0x2e8>
10000879c: 6a 22 00 39 	strb	w10, [x19, #8]
1000087a0: ed fe ff 17 	b	0x100008354 <__ZN5gimli4read4line15parse_attribute17h8f3317e83ecea927E+0x3ac>
1000087a4: 08 00 80 52 	mov	w8, #0
1000087a8: 6a 02 80 52 	mov	w10, #19
1000087ac: 4b 1d 00 12 	and	w11, w10, #0xff
1000087b0: 7f 2d 01 71 	cmp	w11, #75
1000087b4: c1 00 00 54 	b.ne	0x1000087cc <__ZN5gimli4read4line15parse_attribute17h8f3317e83ecea927E+0x824>
1000087b8: 0a 00 80 52 	mov	w10, #0
1000087bc: 0b 00 80 52 	mov	w11, #0
1000087c0: 0c 00 80 d2 	mov	x12, #0
1000087c4: ad 03 80 52 	mov	w13, #29
1000087c8: 56 00 00 14 	b	0x100008920 <__ZN5gimli4read4line15parse_attribute17h8f3317e83ecea927E+0x978>
1000087cc: 6a 22 00 39 	strb	w10, [x19, #8]
1000087d0: 7f 26 00 39 	strb	wzr, [x19, #9]
1000087d4: 7f 1e 00 79 	strh	wzr, [x19, #14]
1000087d8: 7f a2 00 b8 	stur	wzr, [x19, #10]
1000087dc: 60 00 00 14 	b	0x10000895c <__ZN5gimli4read4line15parse_attribute17h8f3317e83ecea927E+0x9b4>
1000087e0: 0b 01 09 8b 	add	x11, x8, x9
1000087e4: 6b 05 00 91 	add	x11, x11, #1
1000087e8: ec 03 29 aa 	mvn	x12, x9
1000087ec: 4a 01 0c 8b 	add	x10, x10, x12
1000087f0: 2b 28 00 a9 	stp	x11, x10, [x1]
1000087f4: 0a 3d 08 53 	ubfx	w10, w8, #8, #8
1000087f8: 0b 3d 10 12 	and	w11, w8, #0xffff0000
1000087fc: 0c 7d 60 92 	and	x12, x8, #0xffffffff00000000
100008800: ed 03 80 52 	mov	w13, #31
100008804: 47 00 00 14 	b	0x100008920 <__ZN5gimli4read4line15parse_attribute17h8f3317e83ecea927E+0x978>
100008808: ca 3d 08 53 	ubfx	w10, w14, #8, #8
10000880c: cb 3d 10 12 	and	w11, w14, #0xffff0000
100008810: cc 7d 60 92 	and	x12, x14, #0xffffffff00000000
100008814: ed 00 80 52 	mov	w13, #7
100008818: e8 03 0e aa 	mov	x8, x14
10000881c: 41 00 00 14 	b	0x100008920 <__ZN5gimli4read4line15parse_attribute17h8f3317e83ecea927E+0x978>
100008820: 28 85 40 f8 	ldr	x8, [x9], #8
100008824: 29 28 00 a9 	stp	x9, x10, [x1]
100008828: 6a 09 80 52 	mov	w10, #75
10000882c: 4a 1d 00 12 	and	w10, w10, #0xff
100008830: 5f 2d 01 71 	cmp	w10, #75
100008834: e1 01 00 54 	b.ne	0x100008870 <__ZN5gimli4read4line15parse_attribute17h8f3317e83ecea927E+0x8c8>
100008838: 20 00 00 14 	b	0x1000088b8 <__ZN5gimli4read4line15parse_attribute17h8f3317e83ecea927E+0x910>
10000883c: 28 85 40 f8 	ldr	x8, [x9], #8
100008840: 29 28 00 a9 	stp	x9, x10, [x1]
100008844: 6a 09 80 52 	mov	w10, #75
100008848: 4a 1d 00 12 	and	w10, w10, #0xff
10000884c: 5f 2d 01 71 	cmp	w10, #75
100008850: 01 01 00 54 	b.ne	0x100008870 <__ZN5gimli4read4line15parse_attribute17h8f3317e83ecea927E+0x8c8>
100008854: 24 00 00 14 	b	0x1000088e4 <__ZN5gimli4read4line15parse_attribute17h8f3317e83ecea927E+0x93c>
100008858: 28 85 40 f8 	ldr	x8, [x9], #8
10000885c: 29 28 00 a9 	stp	x9, x10, [x1]
100008860: 6a 09 80 52 	mov	w10, #75
100008864: 4a 1d 00 12 	and	w10, w10, #0xff
100008868: 5f 2d 01 71 	cmp	w10, #75
10000886c: 20 05 00 54 	b.eq	0x100008910 <__ZN5gimli4read4line15parse_attribute17h8f3317e83ecea927E+0x968>
100008870: ff 1b 00 39 	strb	wzr, [sp, #6]
100008874: ff 0b 00 79 	strh	wzr, [sp, #4]
100008878: ff 03 00 b9 	str	wzr, [sp]
10000887c: e9 73 00 f8 	stur	x9, [sp, #7]
100008880: e8 03 40 f9 	ldr	x8, [sp]
100008884: e9 0b 40 b9 	ldr	w9, [sp, #8]
100008888: e9 1b 00 b9 	str	w9, [sp, #24]
10000888c: e9 b3 40 b8 	ldur	w9, [sp, #11]
100008890: e9 b3 01 b8 	stur	w9, [sp, #27]
100008894: e8 0b 00 f9 	str	x8, [sp, #16]
100008898: e9 73 41 f8 	ldur	x9, [sp, #23]
10000889c: 2b 00 00 14 	b	0x100008948 <__ZN5gimli4read4line15parse_attribute17h8f3317e83ecea927E+0x9a0>
1000088a0: 28 45 40 b8 	ldr	w8, [x9], #4
1000088a4: 29 28 00 a9 	stp	x9, x10, [x1]
1000088a8: 6a 09 80 52 	mov	w10, #75
1000088ac: 4a 1d 00 12 	and	w10, w10, #0xff
1000088b0: 5f 2d 01 71 	cmp	w10, #75
1000088b4: 41 04 00 54 	b.ne	0x10000893c <__ZN5gimli4read4line15parse_attribute17h8f3317e83ecea927E+0x994>
1000088b8: 0a 3d 08 53 	ubfx	w10, w8, #8, #8
1000088bc: 0b 3d 10 12 	and	w11, w8, #0xffff0000
1000088c0: 0c 7d 60 92 	and	x12, x8, #0xffffffff00000000
1000088c4: 4d 03 80 52 	mov	w13, #26
1000088c8: 16 00 00 14 	b	0x100008920 <__ZN5gimli4read4line15parse_attribute17h8f3317e83ecea927E+0x978>
1000088cc: 28 45 40 b8 	ldr	w8, [x9], #4
1000088d0: 29 28 00 a9 	stp	x9, x10, [x1]
1000088d4: 6a 09 80 52 	mov	w10, #75
1000088d8: 4a 1d 00 12 	and	w10, w10, #0xff
1000088dc: 5f 2d 01 71 	cmp	w10, #75
1000088e0: e1 02 00 54 	b.ne	0x10000893c <__ZN5gimli4read4line15parse_attribute17h8f3317e83ecea927E+0x994>
1000088e4: 0a 3d 08 53 	ubfx	w10, w8, #8, #8
1000088e8: 0b 3d 10 12 	and	w11, w8, #0xffff0000
1000088ec: 0c 7d 60 92 	and	x12, x8, #0xffffffff00000000
1000088f0: cd 03 80 52 	mov	w13, #30
1000088f4: 0b 00 00 14 	b	0x100008920 <__ZN5gimli4read4line15parse_attribute17h8f3317e83ecea927E+0x978>
1000088f8: 28 45 40 b8 	ldr	w8, [x9], #4
1000088fc: 29 28 00 a9 	stp	x9, x10, [x1]
100008900: 6a 09 80 52 	mov	w10, #75
100008904: 4a 1d 00 12 	and	w10, w10, #0xff
100008908: 5f 2d 01 71 	cmp	w10, #75
10000890c: 81 01 00 54 	b.ne	0x10000893c <__ZN5gimli4read4line15parse_attribute17h8f3317e83ecea927E+0x994>
100008910: 0a 3d 08 53 	ubfx	w10, w8, #8, #8
100008914: 0b 3d 10 12 	and	w11, w8, #0xffff0000
100008918: 0c 7d 60 92 	and	x12, x8, #0xffffffff00000000
10000891c: 4d 01 80 52 	mov	w13, #10
100008920: 08 1d 00 12 	and	w8, w8, #0xff
100008924: 48 1d 18 33 	bfi	w8, w10, #8, #8
100008928: 08 01 0b 2a 	orr	w8, w8, w11
10000892c: 88 01 08 aa 	orr	x8, x12, x8
100008930: 6d 22 00 a9 	stp	x13, x8, [x19]
100008934: 69 0a 00 f9 	str	x9, [x19, #16]
100008938: 0c 00 00 14 	b	0x100008968 <__ZN5gimli4read4line15parse_attribute17h8f3317e83ecea927E+0x9c0>
10000893c: ff 13 00 b9 	str	wzr, [sp, #16]
100008940: ff 5b 00 39 	strb	wzr, [sp, #22]
100008944: ff 2b 00 79 	strh	wzr, [sp, #20]
100008948: e8 13 40 b9 	ldr	w8, [sp, #16]
10000894c: 68 92 00 b8 	stur	w8, [x19, #9]
100008950: e8 33 41 b8 	ldur	w8, [sp, #19]
100008954: 68 0e 00 b9 	str	w8, [x19, #12]
100008958: 6a 22 00 39 	strb	w10, [x19, #8]
10000895c: 69 0a 00 f9 	str	x9, [x19, #16]
100008960: c8 05 80 52 	mov	w8, #46
100008964: 68 02 00 f9 	str	x8, [x19]
100008968: fd 7b 43 a9 	ldp	x29, x30, [sp, #48]
10000896c: f4 4f 42 a9 	ldp	x20, x19, [sp, #32]
100008970: ff 03 01 91 	add	sp, sp, #64
100008974: c0 03 5f d6 	ret

0000000100008978 <__ZN5gimli4read4unit15parse_attribute17hb289118b3cfe8316E>:
100008978: ff 83 01 d1 	sub	sp, sp, #96
10000897c: f6 57 03 a9 	stp	x22, x21, [sp, #48]
100008980: f4 4f 04 a9 	stp	x20, x19, [sp, #64]
100008984: fd 7b 05 a9 	stp	x29, x30, [sp, #80]
100008988: fd 43 01 91 	add	x29, sp, #80
10000898c: f4 03 03 aa 	mov	x20, x3
100008990: f5 03 01 aa 	mov	x21, x1
100008994: f3 03 00 aa 	mov	x19, x0
100008998: 69 14 40 79 	ldrh	w9, [x3, #10]
10000899c: 2b e3 14 10 	adr	x11, #171108
1000089a0: 1f 20 03 d5 	nop
1000089a4: ec 03 09 aa 	mov	x12, x9
1000089a8: e8 03 0c aa 	mov	x8, x12
1000089ac: 8a 3d 00 12 	and	w10, w12, #0xffff
1000089b0: 4c 05 00 51 	sub	w12, w10, #1
1000089b4: 9f ad 00 71 	cmp	w12, #43
1000089b8: c8 03 00 54 	b.hi	0x100008a30 <__ZN5gimli4read4unit15parse_attribute17hb289118b3cfe8316E+0xb8>
1000089bc: 8a 00 00 10 	adr	x10, #16
1000089c0: 6d 79 6c 78 	ldrh	w13, [x11, x12, lsl #1]
1000089c4: 4a 09 0d 8b 	add	x10, x10, x13, lsl #2
1000089c8: 40 01 1f d6 	br	x10
1000089cc: aa 36 40 a9 	ldp	x10, x13, [x21]
1000089d0: ad 3b 00 b4 	cbz	x13, 0x100009144 <__ZN5gimli4read4unit15parse_attribute17hb289118b3cfe8316E+0x7cc>
1000089d4: ee 03 0a aa 	mov	x14, x10
1000089d8: d0 15 40 38 	ldrb	w16, [x14], #1
1000089dc: af 05 00 d1 	sub	x15, x13, #1
1000089e0: ae 3e 00 a9 	stp	x14, x15, [x21]
1000089e4: 0c 1a 00 12 	and	w12, w16, #0x7f
1000089e8: 10 fe 3f 36 	tbz	w16, #7, 0x1000089a8 <__ZN5gimli4read4unit15parse_attribute17hb289118b3cfe8316E+0x30>
1000089ec: 2f 62 00 b4 	cbz	x15, 0x100009630 <__ZN5gimli4read4unit15parse_attribute17hb289118b3cfe8316E+0xcb8>
1000089f0: 4e 09 00 91 	add	x14, x10, #2
1000089f4: af 09 00 d1 	sub	x15, x13, #2
1000089f8: ae 3e 00 a9 	stp	x14, x15, [x21]
1000089fc: 50 05 40 39 	ldrb	w16, [x10, #1]
100008a00: 11 1a 00 12 	and	w17, w16, #0x7f
100008a04: 2c 1a 19 33 	bfi	w12, w17, #7, #7
100008a08: 10 fd 3f 36 	tbz	w16, #7, 0x1000089a8 <__ZN5gimli4read4unit15parse_attribute17hb289118b3cfe8316E+0x30>
100008a0c: 2f 61 00 b4 	cbz	x15, 0x100009630 <__ZN5gimli4read4unit15parse_attribute17hb289118b3cfe8316E+0xcb8>
100008a10: 4e 0d 00 91 	add	x14, x10, #3
100008a14: ad 0d 00 d1 	sub	x13, x13, #3
100008a18: ae 36 00 a9 	stp	x14, x13, [x21]
100008a1c: 4a 09 40 39 	ldrb	w10, [x10, #2]
100008a20: 5f 0d 00 71 	cmp	w10, #3
100008a24: c8 84 00 54 	b.hi	0x100009abc <__ZN5gimli4read4unit15parse_attribute17hb289118b3cfe8316E+0x1144>
100008a28: 4c 1d 12 33 	bfi	w12, w10, #14, #8
100008a2c: df ff ff 17 	b	0x1000089a8 <__ZN5gimli4read4unit15parse_attribute17hb289118b3cfe8316E+0x30>
100008a30: 08 e0 83 12 	mov	w8, #-7937
100008a34: 48 01 08 0b 	add	w8, w10, w8
100008a38: 1f 81 00 71 	cmp	w8, #32
100008a3c: a8 38 00 54 	b.hi	0x100009150 <__ZN5gimli4read4unit15parse_attribute17hb289118b3cfe8316E+0x7d8>
100008a40: c9 e0 14 10 	adr	x9, #171032
100008a44: 1f 20 03 d5 	nop
100008a48: 8a 00 00 10 	adr	x10, #16
100008a4c: 2b 79 68 78 	ldrh	w11, [x9, x8, lsl #1]
100008a50: 4a 09 0b 8b 	add	x10, x10, x11, lsl #2
100008a54: 40 01 1f d6 	br	x10
100008a58: 09 00 80 52 	mov	w9, #0
100008a5c: 0c 00 80 d2 	mov	x12, #0
100008a60: a8 2a 40 a9 	ldp	x8, x10, [x21]
100008a64: 4a 05 00 d1 	sub	x10, x10, #1
100008a68: 07 00 00 14 	b	0x100008a84 <__ZN5gimli4read4unit15parse_attribute17hb289118b3cfe8316E+0x10c>
100008a6c: 6d 19 40 92 	and	x13, x11, #0x7f
100008a70: ad 21 c9 9a 	lsl	x13, x13, x9
100008a74: ac 01 0c aa 	orr	x12, x13, x12
100008a78: 29 1d 00 11 	add	w9, w9, #7
100008a7c: 4a 05 00 d1 	sub	x10, x10, #1
100008a80: 4b 38 38 36 	tbz	w11, #7, 0x100009188 <__ZN5gimli4read4unit15parse_attribute17hb289118b3cfe8316E+0x810>
100008a84: 5f 05 00 b1 	cmn	x10, #1
100008a88: e0 2b 00 54 	b.eq	0x100009004 <__ZN5gimli4read4unit15parse_attribute17hb289118b3cfe8316E+0x68c>
100008a8c: 0b 15 40 38 	ldrb	w11, [x8], #1
100008a90: a8 2a 00 a9 	stp	x8, x10, [x21]
100008a94: 3f fd 00 71 	cmp	w9, #63
100008a98: a1 fe ff 54 	b.ne	0x100008a6c <__ZN5gimli4read4unit15parse_attribute17hb289118b3cfe8316E+0xf4>
100008a9c: 7f 09 00 71 	cmp	w11, #2
100008aa0: 63 fe ff 54 	b.lo	0x100008a6c <__ZN5gimli4read4unit15parse_attribute17hb289118b3cfe8316E+0xf4>
100008aa4: 56 01 00 14 	b	0x100008ffc <__ZN5gimli4read4unit15parse_attribute17hb289118b3cfe8316E+0x684>
100008aa8: 09 00 80 52 	mov	w9, #0
100008aac: 0c 00 80 d2 	mov	x12, #0
100008ab0: a8 2a 40 a9 	ldp	x8, x10, [x21]
100008ab4: 4a 05 00 d1 	sub	x10, x10, #1
100008ab8: 07 00 00 14 	b	0x100008ad4 <__ZN5gimli4read4unit15parse_attribute17hb289118b3cfe8316E+0x15c>
100008abc: 6d 19 40 92 	and	x13, x11, #0x7f
100008ac0: ad 21 c9 9a 	lsl	x13, x13, x9
100008ac4: ac 01 0c aa 	orr	x12, x13, x12
100008ac8: 29 1d 00 11 	add	w9, w9, #7
100008acc: 4a 05 00 d1 	sub	x10, x10, #1
100008ad0: 8b 36 38 36 	tbz	w11, #7, 0x1000091a0 <__ZN5gimli4read4unit15parse_attribute17hb289118b3cfe8316E+0x828>
100008ad4: 5f 05 00 b1 	cmn	x10, #1
100008ad8: 60 29 00 54 	b.eq	0x100009004 <__ZN5gimli4read4unit15parse_attribute17hb289118b3cfe8316E+0x68c>
100008adc: 0b 15 40 38 	ldrb	w11, [x8], #1
100008ae0: a8 2a 00 a9 	stp	x8, x10, [x21]
100008ae4: 3f fd 00 71 	cmp	w9, #63
100008ae8: a1 fe ff 54 	b.ne	0x100008abc <__ZN5gimli4read4unit15parse_attribute17hb289118b3cfe8316E+0x144>
100008aec: 7f 09 00 71 	cmp	w11, #2
100008af0: 63 fe ff 54 	b.lo	0x100008abc <__ZN5gimli4read4unit15parse_attribute17hb289118b3cfe8316E+0x144>
100008af4: 42 01 00 14 	b	0x100008ffc <__ZN5gimli4read4unit15parse_attribute17hb289118b3cfe8316E+0x684>
100008af8: 48 3c 08 53 	ubfx	w8, w2, #8, #8
100008afc: 1f 21 00 71 	cmp	w8, #8
100008b00: 61 31 00 54 	b.ne	0x10000912c <__ZN5gimli4read4unit15parse_attribute17hb289118b3cfe8316E+0x7b4>
100008b04: a9 22 40 a9 	ldp	x9, x8, [x21]
100008b08: 0a 21 00 f1 	subs	x10, x8, #8
100008b0c: 62 35 00 54 	b.hs	0x1000091b8 <__ZN5gimli4read4unit15parse_attribute17hb289118b3cfe8316E+0x840>
100008b10: 08 00 80 d2 	mov	x8, #0
100008b14: 6a 02 80 52 	mov	w10, #19
100008b18: ab 01 00 14 	b	0x1000091c4 <__ZN5gimli4read4unit15parse_attribute17hb289118b3cfe8316E+0x84c>
100008b1c: e0 23 00 91 	add	x0, sp, #8
100008b20: e1 03 15 aa 	mov	x1, x21
100008b24: 07 07 00 94 	bl	0x10000a740 <__ZN5gimli4read6reader6Reader12read_address17he819aabe518f7061E>
100008b28: e8 23 40 39 	ldrb	w8, [sp, #8]
100008b2c: 1f 2d 01 71 	cmp	w8, #75
100008b30: e1 38 00 54 	b.ne	0x10000924c <__ZN5gimli4read4unit15parse_attribute17hb289118b3cfe8316E+0x8d4>
100008b34: 0b 00 80 d2 	mov	x11, #0
100008b38: e8 0b 40 f9 	ldr	x8, [sp, #16]
100008b3c: 09 3d 08 53 	ubfx	w9, w8, #8, #8
100008b40: 0d 7d 50 d3 	ubfx	x13, x8, #16, #16
100008b44: 0a 7d 60 92 	and	x10, x8, #0xffffffff00000000
100008b48: b9 03 00 14 	b	0x100009a2c <__ZN5gimli4read4unit15parse_attribute17hb289118b3cfe8316E+0x10b4>
100008b4c: a8 26 40 a9 	ldp	x8, x9, [x21]
100008b50: 29 09 00 f1 	subs	x9, x9, #2
100008b54: 23 65 00 54 	b.lo	0x1000097f8 <__ZN5gimli4read4unit15parse_attribute17hb289118b3cfe8316E+0xe80>
100008b58: 0c 25 40 78 	ldrh	w12, [x8], #2
100008b5c: 46 00 00 14 	b	0x100008c74 <__ZN5gimli4read4unit15parse_attribute17hb289118b3cfe8316E+0x2fc>
100008b60: a8 26 40 a9 	ldp	x8, x9, [x21]
100008b64: 29 11 00 f1 	subs	x9, x9, #4
100008b68: 83 64 00 54 	b.lo	0x1000097f8 <__ZN5gimli4read4unit15parse_attribute17hb289118b3cfe8316E+0xe80>
100008b6c: 0c 45 40 b8 	ldr	w12, [x8], #4
100008b70: 41 00 00 14 	b	0x100008c74 <__ZN5gimli4read4unit15parse_attribute17hb289118b3cfe8316E+0x2fc>
100008b74: a9 22 40 a9 	ldp	x9, x8, [x21]
100008b78: 0a 09 00 f1 	subs	x10, x8, #2
100008b7c: c2 32 00 54 	b.hs	0x1000091d4 <__ZN5gimli4read4unit15parse_attribute17hb289118b3cfe8316E+0x85c>
100008b80: 08 00 80 52 	mov	w8, #0
100008b84: 6a 02 80 52 	mov	w10, #19
100008b88: 96 01 00 14 	b	0x1000091e0 <__ZN5gimli4read4unit15parse_attribute17hb289118b3cfe8316E+0x868>
100008b8c: 48 1c 18 12 	and	w8, w2, #0xff00
100008b90: 1f 01 10 71 	cmp	w8, #1024
100008b94: 21 2e 00 54 	b.ne	0x100009158 <__ZN5gimli4read4unit15parse_attribute17hb289118b3cfe8316E+0x7e0>
100008b98: 41 7c 10 53 	lsr	w1, w2, #16
100008b9c: 80 12 40 79 	ldrh	w0, [x20, #8]
100008ba0: f0 68 00 94 	bl	0x100022f60 <__ZN5gimli4read4unit20allow_section_offset17h4e659d93628fbbe0E>
100008ba4: a0 2d 00 36 	tbz	w0, #0, 0x100009158 <__ZN5gimli4read4unit15parse_attribute17hb289118b3cfe8316E+0x7e0>
100008ba8: a8 26 40 a9 	ldp	x8, x9, [x21]
100008bac: 29 11 00 f1 	subs	x9, x9, #4
100008bb0: 22 71 00 54 	b.hs	0x1000099d4 <__ZN5gimli4read4unit15parse_attribute17hb289118b3cfe8316E+0x105c>
100008bb4: 0c 00 80 d2 	mov	x12, #0
100008bb8: 69 02 80 52 	mov	w9, #19
100008bbc: 89 03 00 14 	b	0x1000099e0 <__ZN5gimli4read4unit15parse_attribute17hb289118b3cfe8316E+0x1068>
100008bc0: 48 1c 18 12 	and	w8, w2, #0xff00
100008bc4: 1f 01 20 71 	cmp	w8, #2048
100008bc8: 41 2d 00 54 	b.ne	0x100009170 <__ZN5gimli4read4unit15parse_attribute17hb289118b3cfe8316E+0x7f8>
100008bcc: 41 7c 10 53 	lsr	w1, w2, #16
100008bd0: 80 12 40 79 	ldrh	w0, [x20, #8]
100008bd4: e3 68 00 94 	bl	0x100022f60 <__ZN5gimli4read4unit20allow_section_offset17h4e659d93628fbbe0E>
100008bd8: c0 2c 00 36 	tbz	w0, #0, 0x100009170 <__ZN5gimli4read4unit15parse_attribute17hb289118b3cfe8316E+0x7f8>
100008bdc: aa 22 40 a9 	ldp	x10, x8, [x21]
100008be0: 09 21 00 f1 	subs	x9, x8, #8
100008be4: 02 71 00 54 	b.hs	0x100009a04 <__ZN5gimli4read4unit15parse_attribute17hb289118b3cfe8316E+0x108c>
100008be8: 08 00 80 d2 	mov	x8, #0
100008bec: 69 02 80 52 	mov	w9, #19
100008bf0: 88 03 00 14 	b	0x100009a10 <__ZN5gimli4read4unit15parse_attribute17hb289118b3cfe8316E+0x1098>
100008bf4: a8 26 40 a9 	ldp	x8, x9, [x21]
100008bf8: 09 60 00 b4 	cbz	x9, 0x1000097f8 <__ZN5gimli4read4unit15parse_attribute17hb289118b3cfe8316E+0xe80>
100008bfc: 0c 00 80 d2 	mov	x12, #0
100008c00: 0a 69 6c 38 	ldrb	w10, [x8, x12]
100008c04: 0a 5d 00 34 	cbz	w10, 0x1000097a4 <__ZN5gimli4read4unit15parse_attribute17hb289118b3cfe8316E+0xe2c>
100008c08: 8c 05 00 91 	add	x12, x12, #1
100008c0c: 3f 01 0c eb 	cmp	x9, x12
100008c10: 81 ff ff 54 	b.ne	0x100008c00 <__ZN5gimli4read4unit15parse_attribute17hb289118b3cfe8316E+0x288>
100008c14: f9 02 00 14 	b	0x1000097f8 <__ZN5gimli4read4unit15parse_attribute17hb289118b3cfe8316E+0xe80>
100008c18: 0b 00 80 52 	mov	w11, #0
100008c1c: 0c 00 80 d2 	mov	x12, #0
100008c20: a8 2a 40 a9 	ldp	x8, x10, [x21]
100008c24: c9 00 80 52 	mov	w9, #6
100008c28: 06 00 00 14 	b	0x100008c40 <__ZN5gimli4read4unit15parse_attribute17hb289118b3cfe8316E+0x2c8>
100008c2c: ae 19 40 92 	and	x14, x13, #0x7f
100008c30: ce 21 cb 9a 	lsl	x14, x14, x11
100008c34: cc 01 0c aa 	orr	x12, x14, x12
100008c38: 6b 1d 00 11 	add	w11, w11, #7
100008c3c: 8d 5c 38 36 	tbz	w13, #7, 0x1000097cc <__ZN5gimli4read4unit15parse_attribute17hb289118b3cfe8316E+0xe54>
100008c40: ca 5d 00 b4 	cbz	x10, 0x1000097f8 <__ZN5gimli4read4unit15parse_attribute17hb289118b3cfe8316E+0xe80>
100008c44: 0d 15 40 38 	ldrb	w13, [x8], #1
100008c48: 4a 05 00 d1 	sub	x10, x10, #1
100008c4c: a8 2a 00 a9 	stp	x8, x10, [x21]
100008c50: 7f fd 00 71 	cmp	w11, #63
100008c54: c1 fe ff 54 	b.ne	0x100008c2c <__ZN5gimli4read4unit15parse_attribute17hb289118b3cfe8316E+0x2b4>
100008c58: bf 09 00 71 	cmp	w13, #2
100008c5c: 83 fe ff 54 	b.lo	0x100008c2c <__ZN5gimli4read4unit15parse_attribute17hb289118b3cfe8316E+0x2b4>
100008c60: 91 00 00 14 	b	0x100008ea4 <__ZN5gimli4read4unit15parse_attribute17hb289118b3cfe8316E+0x52c>
100008c64: a8 26 40 a9 	ldp	x8, x9, [x21]
100008c68: 89 5c 00 b4 	cbz	x9, 0x1000097f8 <__ZN5gimli4read4unit15parse_attribute17hb289118b3cfe8316E+0xe80>
100008c6c: 0c 15 40 38 	ldrb	w12, [x8], #1
100008c70: 29 05 00 d1 	sub	x9, x9, #1
100008c74: a8 26 00 a9 	stp	x8, x9, [x21]
100008c78: 2a 01 0c eb 	subs	x10, x9, x12
100008c7c: e3 5b 00 54 	b.lo	0x1000097f8 <__ZN5gimli4read4unit15parse_attribute17hb289118b3cfe8316E+0xe80>
100008c80: 0b 01 0c 8b 	add	x11, x8, x12
100008c84: 09 3d 08 53 	ubfx	w9, w8, #8, #8
100008c88: 0d 7d 50 d3 	ubfx	x13, x8, #16, #16
100008c8c: ab 2a 00 a9 	stp	x11, x10, [x21]
100008c90: 0a 7d 60 92 	and	x10, x8, #0xffffffff00000000
100008c94: 2b 00 80 52 	mov	w11, #1
100008c98: 65 03 00 14 	b	0x100009a2c <__ZN5gimli4read4unit15parse_attribute17hb289118b3cfe8316E+0x10b4>
100008c9c: a9 2a 40 a9 	ldp	x9, x10, [x21]
100008ca0: 8a 4d 00 b4 	cbz	x10, 0x100009650 <__ZN5gimli4read4unit15parse_attribute17hb289118b3cfe8316E+0xcd8>
100008ca4: 28 15 40 38 	ldrb	w8, [x9], #1
100008ca8: 4a 05 00 d1 	sub	x10, x10, #1
100008cac: a9 2a 00 a9 	stp	x9, x10, [x21]
100008cb0: 6a 09 80 52 	mov	w10, #75
100008cb4: 69 02 00 14 	b	0x100009658 <__ZN5gimli4read4unit15parse_attribute17hb289118b3cfe8316E+0xce0>
100008cb8: a8 26 40 a9 	ldp	x8, x9, [x21]
100008cbc: e9 4d 00 b4 	cbz	x9, 0x100009678 <__ZN5gimli4read4unit15parse_attribute17hb289118b3cfe8316E+0xd00>
100008cc0: 0b 15 40 38 	ldrb	w11, [x8], #1
100008cc4: 29 05 00 d1 	sub	x9, x9, #1
100008cc8: a8 26 00 a9 	stp	x8, x9, [x21]
100008ccc: 69 09 80 52 	mov	w9, #75
100008cd0: 6c 02 00 14 	b	0x100009680 <__ZN5gimli4read4unit15parse_attribute17hb289118b3cfe8316E+0xd08>
100008cd4: e0 23 00 91 	add	x0, sp, #8
100008cd8: e1 03 15 aa 	mov	x1, x21
100008cdc: 0c 07 00 94 	bl	0x10000a90c <__ZN5gimli4read6reader6Reader12read_sleb12817h5173f85286a4d796E>
100008ce0: e8 23 40 39 	ldrb	w8, [sp, #8]
100008ce4: 1f 2d 01 71 	cmp	w8, #75
100008ce8: 21 2b 00 54 	b.ne	0x10000924c <__ZN5gimli4read4unit15parse_attribute17hb289118b3cfe8316E+0x8d4>
100008cec: e8 0b 40 f9 	ldr	x8, [sp, #16]
100008cf0: 97 00 00 14 	b	0x100008f4c <__ZN5gimli4read4unit15parse_attribute17hb289118b3cfe8316E+0x5d4>
100008cf4: 48 3c 08 53 	ubfx	w8, w2, #8, #8
100008cf8: 1f 21 00 71 	cmp	w8, #8
100008cfc: 21 28 00 54 	b.ne	0x100009200 <__ZN5gimli4read4unit15parse_attribute17hb289118b3cfe8316E+0x888>
100008d00: a9 22 40 a9 	ldp	x9, x8, [x21]
100008d04: 0a 21 00 f1 	subs	x10, x8, #8
100008d08: a2 59 00 54 	b.hs	0x10000983c <__ZN5gimli4read4unit15parse_attribute17hb289118b3cfe8316E+0xec4>
100008d0c: 08 00 80 d2 	mov	x8, #0
100008d10: 6a 02 80 52 	mov	w10, #19
100008d14: cd 02 00 14 	b	0x100009848 <__ZN5gimli4read4unit15parse_attribute17hb289118b3cfe8316E+0xed0>
100008d18: 09 00 80 52 	mov	w9, #0
100008d1c: 0c 00 80 d2 	mov	x12, #0
100008d20: a8 2a 40 a9 	ldp	x8, x10, [x21]
100008d24: 4a 05 00 d1 	sub	x10, x10, #1
100008d28: 07 00 00 14 	b	0x100008d44 <__ZN5gimli4read4unit15parse_attribute17hb289118b3cfe8316E+0x3cc>
100008d2c: 6d 19 40 92 	and	x13, x11, #0x7f
100008d30: ad 21 c9 9a 	lsl	x13, x13, x9
100008d34: ac 01 0c aa 	orr	x12, x13, x12
100008d38: 29 1d 00 11 	add	w9, w9, #7
100008d3c: 4a 05 00 d1 	sub	x10, x10, #1
100008d40: cb 54 38 36 	tbz	w11, #7, 0x1000097d8 <__ZN5gimli4read4unit15parse_attribute17hb289118b3cfe8316E+0xe60>
100008d44: 5f 05 00 b1 	cmn	x10, #1
100008d48: e0 15 00 54 	b.eq	0x100009004 <__ZN5gimli4read4unit15parse_attribute17hb289118b3cfe8316E+0x68c>
100008d4c: 0b 15 40 38 	ldrb	w11, [x8], #1
100008d50: a8 2a 00 a9 	stp	x8, x10, [x21]
100008d54: 3f fd 00 71 	cmp	w9, #63
100008d58: a1 fe ff 54 	b.ne	0x100008d2c <__ZN5gimli4read4unit15parse_attribute17hb289118b3cfe8316E+0x3b4>
100008d5c: 7f 09 00 71 	cmp	w11, #2
100008d60: 63 fe ff 54 	b.lo	0x100008d2c <__ZN5gimli4read4unit15parse_attribute17hb289118b3cfe8316E+0x3b4>
100008d64: a6 00 00 14 	b	0x100008ffc <__ZN5gimli4read4unit15parse_attribute17hb289118b3cfe8316E+0x684>
100008d68: 48 7c 10 53 	lsr	w8, w2, #16
100008d6c: 1f 09 00 71 	cmp	w8, #2
100008d70: 41 25 00 54 	b.ne	0x100009218 <__ZN5gimli4read4unit15parse_attribute17hb289118b3cfe8316E+0x8a0>
100008d74: e0 23 00 91 	add	x0, sp, #8
100008d78: e1 03 15 aa 	mov	x1, x21
100008d7c: 70 07 00 94 	bl	0x10000ab3c <__ZN5gimli4read6reader6Reader17read_sized_offset17haca62cad8c4c098aE>
100008d80: 2a 01 00 14 	b	0x100009228 <__ZN5gimli4read4unit15parse_attribute17hb289118b3cfe8316E+0x8b0>
100008d84: a9 2a 40 a9 	ldp	x9, x10, [x21]
100008d88: 4a 49 00 b4 	cbz	x10, 0x1000096b0 <__ZN5gimli4read4unit15parse_attribute17hb289118b3cfe8316E+0xd38>
100008d8c: 28 15 40 38 	ldrb	w8, [x9], #1
100008d90: 4a 05 00 d1 	sub	x10, x10, #1
100008d94: a9 2a 00 a9 	stp	x9, x10, [x21]
100008d98: 6a 09 80 52 	mov	w10, #75
100008d9c: 47 02 00 14 	b	0x1000096b8 <__ZN5gimli4read4unit15parse_attribute17hb289118b3cfe8316E+0xd40>
100008da0: a9 22 40 a9 	ldp	x9, x8, [x21]
100008da4: 0a 09 00 f1 	subs	x10, x8, #2
100008da8: 02 26 00 54 	b.hs	0x100009268 <__ZN5gimli4read4unit15parse_attribute17hb289118b3cfe8316E+0x8f0>
100008dac: 08 00 80 52 	mov	w8, #0
100008db0: 6a 02 80 52 	mov	w10, #19
100008db4: 30 01 00 14 	b	0x100009274 <__ZN5gimli4read4unit15parse_attribute17hb289118b3cfe8316E+0x8fc>
100008db8: a9 22 40 a9 	ldp	x9, x8, [x21]
100008dbc: 0a 11 00 f1 	subs	x10, x8, #4
100008dc0: a2 26 00 54 	b.hs	0x100009294 <__ZN5gimli4read4unit15parse_attribute17hb289118b3cfe8316E+0x91c>
100008dc4: 08 00 80 52 	mov	w8, #0
100008dc8: 6a 02 80 52 	mov	w10, #19
100008dcc: 35 01 00 14 	b	0x1000092a0 <__ZN5gimli4read4unit15parse_attribute17hb289118b3cfe8316E+0x928>
100008dd0: a9 22 40 a9 	ldp	x9, x8, [x21]
100008dd4: 08 21 00 f1 	subs	x8, x8, #8
100008dd8: 42 27 00 54 	b.hs	0x1000092c0 <__ZN5gimli4read4unit15parse_attribute17hb289118b3cfe8316E+0x948>
100008ddc: 0c 00 80 d2 	mov	x12, #0
100008de0: 68 02 80 52 	mov	w8, #19
100008de4: 3a 01 00 14 	b	0x1000092cc <__ZN5gimli4read4unit15parse_attribute17hb289118b3cfe8316E+0x954>
100008de8: 09 00 80 52 	mov	w9, #0
100008dec: 0c 00 80 d2 	mov	x12, #0
100008df0: a8 2a 40 a9 	ldp	x8, x10, [x21]
100008df4: 4a 05 00 d1 	sub	x10, x10, #1
100008df8: 07 00 00 14 	b	0x100008e14 <__ZN5gimli4read4unit15parse_attribute17hb289118b3cfe8316E+0x49c>
100008dfc: 6d 19 40 92 	and	x13, x11, #0x7f
100008e00: ad 21 c9 9a 	lsl	x13, x13, x9
100008e04: ac 01 0c aa 	orr	x12, x13, x12
100008e08: 29 1d 00 11 	add	w9, w9, #7
100008e0c: 4a 05 00 d1 	sub	x10, x10, #1
100008e10: 4b 26 38 36 	tbz	w11, #7, 0x1000092d8 <__ZN5gimli4read4unit15parse_attribute17hb289118b3cfe8316E+0x960>
100008e14: 5f 05 00 b1 	cmn	x10, #1
100008e18: 60 0f 00 54 	b.eq	0x100009004 <__ZN5gimli4read4unit15parse_attribute17hb289118b3cfe8316E+0x68c>
100008e1c: 0b 15 40 38 	ldrb	w11, [x8], #1
100008e20: a8 2a 00 a9 	stp	x8, x10, [x21]
100008e24: 3f fd 00 71 	cmp	w9, #63
100008e28: a1 fe ff 54 	b.ne	0x100008dfc <__ZN5gimli4read4unit15parse_attribute17hb289118b3cfe8316E+0x484>
100008e2c: 7f 09 00 71 	cmp	w11, #2
100008e30: 63 fe ff 54 	b.lo	0x100008dfc <__ZN5gimli4read4unit15parse_attribute17hb289118b3cfe8316E+0x484>
100008e34: 72 00 00 14 	b	0x100008ffc <__ZN5gimli4read4unit15parse_attribute17hb289118b3cfe8316E+0x684>
100008e38: 48 3c 08 53 	ubfx	w8, w2, #8, #8
100008e3c: 1f 21 00 71 	cmp	w8, #8
100008e40: 81 25 00 54 	b.ne	0x1000092f0 <__ZN5gimli4read4unit15parse_attribute17hb289118b3cfe8316E+0x978>
100008e44: a9 22 40 a9 	ldp	x9, x8, [x21]
100008e48: 0a 21 00 f1 	subs	x10, x8, #8
100008e4c: 62 50 00 54 	b.hs	0x100009858 <__ZN5gimli4read4unit15parse_attribute17hb289118b3cfe8316E+0xee0>
100008e50: 08 00 80 d2 	mov	x8, #0
100008e54: 6a 02 80 52 	mov	w10, #19
100008e58: 83 02 00 14 	b	0x100009864 <__ZN5gimli4read4unit15parse_attribute17hb289118b3cfe8316E+0xeec>
100008e5c: 0b 00 80 52 	mov	w11, #0
100008e60: 0c 00 80 d2 	mov	x12, #0
100008e64: a8 2a 40 a9 	ldp	x8, x10, [x21]
100008e68: c9 00 80 52 	mov	w9, #6
100008e6c: 06 00 00 14 	b	0x100008e84 <__ZN5gimli4read4unit15parse_attribute17hb289118b3cfe8316E+0x50c>
100008e70: ae 19 40 92 	and	x14, x13, #0x7f
100008e74: ce 21 cb 9a 	lsl	x14, x14, x11
100008e78: cc 01 0c aa 	orr	x12, x14, x12
100008e7c: 6b 1d 00 11 	add	w11, w11, #7
100008e80: 8d 4b 38 36 	tbz	w13, #7, 0x1000097f0 <__ZN5gimli4read4unit15parse_attribute17hb289118b3cfe8316E+0xe78>
100008e84: aa 4b 00 b4 	cbz	x10, 0x1000097f8 <__ZN5gimli4read4unit15parse_attribute17hb289118b3cfe8316E+0xe80>
100008e88: 0d 15 40 38 	ldrb	w13, [x8], #1
100008e8c: 4a 05 00 d1 	sub	x10, x10, #1
100008e90: a8 2a 00 a9 	stp	x8, x10, [x21]
100008e94: 7f fd 00 71 	cmp	w11, #63
100008e98: c1 fe ff 54 	b.ne	0x100008e70 <__ZN5gimli4read4unit15parse_attribute17hb289118b3cfe8316E+0x4f8>
100008e9c: bf 09 00 71 	cmp	w13, #2
100008ea0: 83 fe ff 54 	b.lo	0x100008e70 <__ZN5gimli4read4unit15parse_attribute17hb289118b3cfe8316E+0x4f8>
100008ea4: 56 02 00 14 	b	0x1000097fc <__ZN5gimli4read4unit15parse_attribute17hb289118b3cfe8316E+0xe84>
100008ea8: 09 00 80 52 	mov	w9, #0
100008eac: 0d 00 80 52 	mov	w13, #0
100008eb0: 0a 00 80 d2 	mov	x10, #0
100008eb4: 28 00 80 52 	mov	w8, #1
100008eb8: 2b 01 80 52 	mov	w11, #9
100008ebc: dc 02 00 14 	b	0x100009a2c <__ZN5gimli4read4unit15parse_attribute17hb289118b3cfe8316E+0x10b4>
100008ec0: a9 22 40 a9 	ldp	x9, x8, [x21]
100008ec4: 0a 11 00 f1 	subs	x10, x8, #4
100008ec8: 02 22 00 54 	b.hs	0x100009308 <__ZN5gimli4read4unit15parse_attribute17hb289118b3cfe8316E+0x990>
100008ecc: 08 00 80 52 	mov	w8, #0
100008ed0: 6a 02 80 52 	mov	w10, #19
100008ed4: 10 01 00 14 	b	0x100009314 <__ZN5gimli4read4unit15parse_attribute17hb289118b3cfe8316E+0x99c>
100008ed8: a8 26 40 a9 	ldp	x8, x9, [x21]
100008edc: 2b 41 00 f1 	subs	x11, x9, #16
100008ee0: c3 48 00 54 	b.lo	0x1000097f8 <__ZN5gimli4read4unit15parse_attribute17hb289118b3cfe8316E+0xe80>
100008ee4: 0c 41 00 91 	add	x12, x8, #16
100008ee8: 09 3d 08 53 	ubfx	w9, w8, #8, #8
100008eec: 0d 7d 50 d3 	ubfx	x13, x8, #16, #16
100008ef0: 0a 7d 60 92 	and	x10, x8, #0xffffffff00000000
100008ef4: ac 2e 00 a9 	stp	x12, x11, [x21]
100008ef8: 2b 00 80 52 	mov	w11, #1
100008efc: 0c 02 80 52 	mov	w12, #16
100008f00: cb 02 00 14 	b	0x100009a2c <__ZN5gimli4read4unit15parse_attribute17hb289118b3cfe8316E+0x10b4>
100008f04: 48 3c 08 53 	ubfx	w8, w2, #8, #8
100008f08: 1f 21 00 71 	cmp	w8, #8
100008f0c: 41 21 00 54 	b.ne	0x100009334 <__ZN5gimli4read4unit15parse_attribute17hb289118b3cfe8316E+0x9bc>
100008f10: a9 22 40 a9 	ldp	x9, x8, [x21]
100008f14: 0a 21 00 f1 	subs	x10, x8, #8
100008f18: e2 4a 00 54 	b.hs	0x100009874 <__ZN5gimli4read4unit15parse_attribute17hb289118b3cfe8316E+0xefc>
100008f1c: 08 00 80 d2 	mov	x8, #0
100008f20: 6a 02 80 52 	mov	w10, #19
100008f24: 57 02 00 14 	b	0x100009880 <__ZN5gimli4read4unit15parse_attribute17hb289118b3cfe8316E+0xf08>
100008f28: a9 22 40 a9 	ldp	x9, x8, [x21]
100008f2c: 08 21 00 f1 	subs	x8, x8, #8
100008f30: e2 20 00 54 	b.hs	0x10000934c <__ZN5gimli4read4unit15parse_attribute17hb289118b3cfe8316E+0x9d4>
100008f34: 0c 00 80 d2 	mov	x12, #0
100008f38: 68 02 80 52 	mov	w8, #19
100008f3c: 07 01 00 14 	b	0x100009358 <__ZN5gimli4read4unit15parse_attribute17hb289118b3cfe8316E+0x9e0>
100008f40: 3f 85 00 71 	cmp	w9, #33
100008f44: c1 21 00 54 	b.ne	0x10000937c <__ZN5gimli4read4unit15parse_attribute17hb289118b3cfe8316E+0xa04>
100008f48: 88 02 40 f9 	ldr	x8, [x20]
100008f4c: 09 3d 08 53 	ubfx	w9, w8, #8, #8
100008f50: 0d 7d 50 d3 	ubfx	x13, x8, #16, #16
100008f54: 0a 7d 60 92 	and	x10, x8, #0xffffffff00000000
100008f58: cb 00 80 52 	mov	w11, #6
100008f5c: b4 02 00 14 	b	0x100009a2c <__ZN5gimli4read4unit15parse_attribute17hb289118b3cfe8316E+0x10b4>
100008f60: 09 00 80 52 	mov	w9, #0
100008f64: 0c 00 80 d2 	mov	x12, #0
100008f68: a8 2a 40 a9 	ldp	x8, x10, [x21]
100008f6c: 4a 05 00 d1 	sub	x10, x10, #1
100008f70: 07 00 00 14 	b	0x100008f8c <__ZN5gimli4read4unit15parse_attribute17hb289118b3cfe8316E+0x614>
100008f74: 6d 19 40 92 	and	x13, x11, #0x7f
100008f78: ad 21 c9 9a 	lsl	x13, x13, x9
100008f7c: ac 01 0c aa 	orr	x12, x13, x12
100008f80: 29 1d 00 11 	add	w9, w9, #7
100008f84: 4a 05 00 d1 	sub	x10, x10, #1
100008f88: 2b 44 38 36 	tbz	w11, #7, 0x10000980c <__ZN5gimli4read4unit15parse_attribute17hb289118b3cfe8316E+0xe94>
100008f8c: 5f 05 00 b1 	cmn	x10, #1
100008f90: a0 03 00 54 	b.eq	0x100009004 <__ZN5gimli4read4unit15parse_attribute17hb289118b3cfe8316E+0x68c>
100008f94: 0b 15 40 38 	ldrb	w11, [x8], #1
100008f98: a8 2a 00 a9 	stp	x8, x10, [x21]
100008f9c: 3f fd 00 71 	cmp	w9, #63
100008fa0: a1 fe ff 54 	b.ne	0x100008f74 <__ZN5gimli4read4unit15parse_attribute17hb289118b3cfe8316E+0x5fc>
100008fa4: 7f 09 00 71 	cmp	w11, #2
100008fa8: 63 fe ff 54 	b.lo	0x100008f74 <__ZN5gimli4read4unit15parse_attribute17hb289118b3cfe8316E+0x5fc>
100008fac: 14 00 00 14 	b	0x100008ffc <__ZN5gimli4read4unit15parse_attribute17hb289118b3cfe8316E+0x684>
100008fb0: 09 00 80 52 	mov	w9, #0
100008fb4: 0c 00 80 d2 	mov	x12, #0
100008fb8: a8 2a 40 a9 	ldp	x8, x10, [x21]
100008fbc: 4a 05 00 d1 	sub	x10, x10, #1
100008fc0: 07 00 00 14 	b	0x100008fdc <__ZN5gimli4read4unit15parse_attribute17hb289118b3cfe8316E+0x664>
100008fc4: 6d 19 40 92 	and	x13, x11, #0x7f
100008fc8: ad 21 c9 9a 	lsl	x13, x13, x9
100008fcc: ac 01 0c aa 	orr	x12, x13, x12
100008fd0: 29 1d 00 11 	add	w9, w9, #7
100008fd4: 4a 05 00 d1 	sub	x10, x10, #1
100008fd8: 6b 42 38 36 	tbz	w11, #7, 0x100009824 <__ZN5gimli4read4unit15parse_attribute17hb289118b3cfe8316E+0xeac>
100008fdc: 5f 05 00 b1 	cmn	x10, #1
100008fe0: 20 01 00 54 	b.eq	0x100009004 <__ZN5gimli4read4unit15parse_attribute17hb289118b3cfe8316E+0x68c>
100008fe4: 0b 15 40 38 	ldrb	w11, [x8], #1
100008fe8: a8 2a 00 a9 	stp	x8, x10, [x21]
100008fec: 3f fd 00 71 	cmp	w9, #63
100008ff0: a1 fe ff 54 	b.ne	0x100008fc4 <__ZN5gimli4read4unit15parse_attribute17hb289118b3cfe8316E+0x64c>
100008ff4: 7f 09 00 71 	cmp	w11, #2
100008ff8: 63 fe ff 54 	b.lo	0x100008fc4 <__ZN5gimli4read4unit15parse_attribute17hb289118b3cfe8316E+0x64c>
100008ffc: c9 00 80 52 	mov	w9, #6
100009000: 02 00 00 14 	b	0x100009008 <__ZN5gimli4read4unit15parse_attribute17hb289118b3cfe8316E+0x690>
100009004: 69 02 80 52 	mov	w9, #19
100009008: 69 22 00 39 	strb	w9, [x19, #8]
10000900c: 7f 26 00 39 	strb	wzr, [x19, #9]
100009010: 7f 1e 00 79 	strh	wzr, [x19, #14]
100009014: 7f a2 00 b8 	stur	wzr, [x19, #10]
100009018: 68 0a 00 f9 	str	x8, [x19, #16]
10000901c: c8 05 80 52 	mov	w8, #46
100009020: 68 02 00 f9 	str	x8, [x19]
100009024: 89 02 00 14 	b	0x100009a48 <__ZN5gimli4read4unit15parse_attribute17hb289118b3cfe8316E+0x10d0>
100009028: a9 22 40 a9 	ldp	x9, x8, [x21]
10000902c: 08 21 00 f1 	subs	x8, x8, #8
100009030: 02 1b 00 54 	b.hs	0x100009390 <__ZN5gimli4read4unit15parse_attribute17hb289118b3cfe8316E+0xa18>
100009034: 0c 00 80 d2 	mov	x12, #0
100009038: 68 02 80 52 	mov	w8, #19
10000903c: d8 00 00 14 	b	0x10000939c <__ZN5gimli4read4unit15parse_attribute17hb289118b3cfe8316E+0xa24>
100009040: a9 2a 40 a9 	ldp	x9, x10, [x21]
100009044: aa 34 00 b4 	cbz	x10, 0x1000096d8 <__ZN5gimli4read4unit15parse_attribute17hb289118b3cfe8316E+0xd60>
100009048: 28 15 40 38 	ldrb	w8, [x9], #1
10000904c: 4a 05 00 d1 	sub	x10, x10, #1
100009050: a9 2a 00 a9 	stp	x9, x10, [x21]
100009054: 6a 09 80 52 	mov	w10, #75
100009058: a2 01 00 14 	b	0x1000096e0 <__ZN5gimli4read4unit15parse_attribute17hb289118b3cfe8316E+0xd68>
10000905c: a9 22 40 a9 	ldp	x9, x8, [x21]
100009060: 0a 09 00 f1 	subs	x10, x8, #2
100009064: 62 1d 00 54 	b.hs	0x100009410 <__ZN5gimli4read4unit15parse_attribute17hb289118b3cfe8316E+0xa98>
100009068: 08 00 80 52 	mov	w8, #0
10000906c: 6a 02 80 52 	mov	w10, #19
100009070: eb 00 00 14 	b	0x10000941c <__ZN5gimli4read4unit15parse_attribute17hb289118b3cfe8316E+0xaa4>
100009074: a9 22 40 a9 	ldp	x9, x8, [x21]
100009078: 08 0d 00 f1 	subs	x8, x8, #3
10000907c: 02 1e 00 54 	b.hs	0x10000943c <__ZN5gimli4read4unit15parse_attribute17hb289118b3cfe8316E+0xac4>
100009080: 08 00 80 d2 	mov	x8, #0
100009084: 6a 02 80 52 	mov	w10, #19
100009088: f3 00 00 14 	b	0x100009454 <__ZN5gimli4read4unit15parse_attribute17hb289118b3cfe8316E+0xadc>
10000908c: a9 22 40 a9 	ldp	x9, x8, [x21]
100009090: 0a 11 00 f1 	subs	x10, x8, #4
100009094: 02 1f 00 54 	b.hs	0x100009474 <__ZN5gimli4read4unit15parse_attribute17hb289118b3cfe8316E+0xafc>
100009098: 08 00 80 52 	mov	w8, #0
10000909c: 6a 02 80 52 	mov	w10, #19
1000090a0: f8 00 00 14 	b	0x100009480 <__ZN5gimli4read4unit15parse_attribute17hb289118b3cfe8316E+0xb08>
1000090a4: a9 2a 40 a9 	ldp	x9, x10, [x21]
1000090a8: ca 32 00 b4 	cbz	x10, 0x100009700 <__ZN5gimli4read4unit15parse_attribute17hb289118b3cfe8316E+0xd88>
1000090ac: 28 15 40 38 	ldrb	w8, [x9], #1
1000090b0: 4a 05 00 d1 	sub	x10, x10, #1
1000090b4: a9 2a 00 a9 	stp	x9, x10, [x21]
1000090b8: 6a 09 80 52 	mov	w10, #75
1000090bc: 93 01 00 14 	b	0x100009708 <__ZN5gimli4read4unit15parse_attribute17hb289118b3cfe8316E+0xd90>
1000090c0: a9 22 40 a9 	ldp	x9, x8, [x21]
1000090c4: 0a 09 00 f1 	subs	x10, x8, #2
1000090c8: c2 1e 00 54 	b.hs	0x1000094a0 <__ZN5gimli4read4unit15parse_attribute17hb289118b3cfe8316E+0xb28>
1000090cc: 08 00 80 52 	mov	w8, #0
1000090d0: 6a 02 80 52 	mov	w10, #19
1000090d4: f6 00 00 14 	b	0x1000094ac <__ZN5gimli4read4unit15parse_attribute17hb289118b3cfe8316E+0xb34>
1000090d8: a9 22 40 a9 	ldp	x9, x8, [x21]
1000090dc: 08 0d 00 f1 	subs	x8, x8, #3
1000090e0: 22 20 00 54 	b.hs	0x1000094e4 <__ZN5gimli4read4unit15parse_attribute17hb289118b3cfe8316E+0xb6c>
1000090e4: 08 00 80 d2 	mov	x8, #0
1000090e8: 6a 02 80 52 	mov	w10, #19
1000090ec: 04 01 00 14 	b	0x1000094fc <__ZN5gimli4read4unit15parse_attribute17hb289118b3cfe8316E+0xb84>
1000090f0: a9 22 40 a9 	ldp	x9, x8, [x21]
1000090f4: 0a 11 00 f1 	subs	x10, x8, #4
1000090f8: c2 21 00 54 	b.hs	0x100009530 <__ZN5gimli4read4unit15parse_attribute17hb289118b3cfe8316E+0xbb8>
1000090fc: 08 00 80 52 	mov	w8, #0
100009100: 6a 02 80 52 	mov	w10, #19
100009104: 0e 01 00 14 	b	0x10000953c <__ZN5gimli4read4unit15parse_attribute17hb289118b3cfe8316E+0xbc4>
100009108: 48 3c 08 53 	ubfx	w8, w2, #8, #8
10000910c: 1f 21 00 71 	cmp	w8, #8
100009110: e1 23 00 54 	b.ne	0x10000958c <__ZN5gimli4read4unit15parse_attribute17hb289118b3cfe8316E+0xc14>
100009114: a9 22 40 a9 	ldp	x9, x8, [x21]
100009118: 0a 21 00 f1 	subs	x10, x8, #8
10000911c: a2 3b 00 54 	b.hs	0x100009890 <__ZN5gimli4read4unit15parse_attribute17hb289118b3cfe8316E+0xf18>
100009120: 08 00 80 d2 	mov	x8, #0
100009124: 6a 02 80 52 	mov	w10, #19
100009128: dd 01 00 14 	b	0x10000989c <__ZN5gimli4read4unit15parse_attribute17hb289118b3cfe8316E+0xf24>
10000912c: a9 22 40 a9 	ldp	x9, x8, [x21]
100009130: 0a 11 00 f1 	subs	x10, x8, #4
100009134: 82 23 00 54 	b.hs	0x1000095a4 <__ZN5gimli4read4unit15parse_attribute17hb289118b3cfe8316E+0xc2c>
100009138: 08 00 80 d2 	mov	x8, #0
10000913c: 6a 02 80 52 	mov	w10, #19
100009140: 1c 01 00 14 	b	0x1000095b0 <__ZN5gimli4read4unit15parse_attribute17hb289118b3cfe8316E+0xc38>
100009144: 08 00 80 52 	mov	w8, #0
100009148: 69 02 80 52 	mov	w9, #19
10000914c: 3c 01 00 14 	b	0x10000963c <__ZN5gimli4read4unit15parse_attribute17hb289118b3cfe8316E+0xcc4>
100009150: 88 01 80 52 	mov	w8, #12
100009154: 8b 00 00 14 	b	0x100009380 <__ZN5gimli4read4unit15parse_attribute17hb289118b3cfe8316E+0xa08>
100009158: a8 26 40 a9 	ldp	x8, x9, [x21]
10000915c: 29 11 00 f1 	subs	x9, x9, #4
100009160: e2 2e 00 54 	b.hs	0x10000973c <__ZN5gimli4read4unit15parse_attribute17hb289118b3cfe8316E+0xdc4>
100009164: 0c 00 80 52 	mov	w12, #0
100009168: 69 02 80 52 	mov	w9, #19
10000916c: 77 01 00 14 	b	0x100009748 <__ZN5gimli4read4unit15parse_attribute17hb289118b3cfe8316E+0xdd0>
100009170: aa 22 40 a9 	ldp	x10, x8, [x21]
100009174: 09 21 00 f1 	subs	x9, x8, #8
100009178: 22 2f 00 54 	b.hs	0x10000975c <__ZN5gimli4read4unit15parse_attribute17hb289118b3cfe8316E+0xde4>
10000917c: 08 00 80 d2 	mov	x8, #0
100009180: 69 02 80 52 	mov	w9, #19
100009184: 79 01 00 14 	b	0x100009768 <__ZN5gimli4read4unit15parse_attribute17hb289118b3cfe8316E+0xdf0>
100009188: 89 3d 08 53 	ubfx	w9, w12, #8, #8
10000918c: 8d 7d 50 d3 	ubfx	x13, x12, #16, #16
100009190: 8a 7d 60 92 	and	x10, x12, #0xffffffff00000000
100009194: 8b 01 80 52 	mov	w11, #12
100009198: e8 03 0c aa 	mov	x8, x12
10000919c: 24 02 00 14 	b	0x100009a2c <__ZN5gimli4read4unit15parse_attribute17hb289118b3cfe8316E+0x10b4>
1000091a0: 89 3d 08 53 	ubfx	w9, w12, #8, #8
1000091a4: 8d 7d 50 d3 	ubfx	x13, x12, #16, #16
1000091a8: 8a 7d 60 92 	and	x10, x12, #0xffffffff00000000
1000091ac: ab 03 80 52 	mov	w11, #29
1000091b0: e8 03 0c aa 	mov	x8, x12
1000091b4: 1e 02 00 14 	b	0x100009a2c <__ZN5gimli4read4unit15parse_attribute17hb289118b3cfe8316E+0x10b4>
1000091b8: 28 85 40 f8 	ldr	x8, [x9], #8
1000091bc: a9 2a 00 a9 	stp	x9, x10, [x21]
1000091c0: 6a 09 80 52 	mov	w10, #75
1000091c4: 4a 1d 00 12 	and	w10, w10, #0xff
1000091c8: 5f 2d 01 71 	cmp	w10, #75
1000091cc: 80 1f 00 54 	b.eq	0x1000095bc <__ZN5gimli4read4unit15parse_attribute17hb289118b3cfe8316E+0xc44>
1000091d0: b6 01 00 14 	b	0x1000098a8 <__ZN5gimli4read4unit15parse_attribute17hb289118b3cfe8316E+0xf30>
1000091d4: 28 25 40 78 	ldrh	w8, [x9], #2
1000091d8: a9 2a 00 a9 	stp	x9, x10, [x21]
1000091dc: 6a 09 80 52 	mov	w10, #75
1000091e0: 4b 1d 00 12 	and	w11, w10, #0xff
1000091e4: 7f 2d 01 71 	cmp	w11, #75
1000091e8: 41 1f 00 54 	b.ne	0x1000095d0 <__ZN5gimli4read4unit15parse_attribute17hb289118b3cfe8316E+0xc58>
1000091ec: 0d 00 80 52 	mov	w13, #0
1000091f0: 0a 00 80 d2 	mov	x10, #0
1000091f4: 09 7d 08 53 	lsr	w9, w8, #8
1000091f8: 6b 00 80 52 	mov	w11, #3
1000091fc: 0c 02 00 14 	b	0x100009a2c <__ZN5gimli4read4unit15parse_attribute17hb289118b3cfe8316E+0x10b4>
100009200: a9 22 40 a9 	ldp	x9, x8, [x21]
100009204: 0a 11 00 f1 	subs	x10, x8, #4
100009208: 82 36 00 54 	b.hs	0x1000098d8 <__ZN5gimli4read4unit15parse_attribute17hb289118b3cfe8316E+0xf60>
10000920c: 08 00 80 d2 	mov	x8, #0
100009210: 6a 02 80 52 	mov	w10, #19
100009214: b4 01 00 14 	b	0x1000098e4 <__ZN5gimli4read4unit15parse_attribute17hb289118b3cfe8316E+0xf6c>
100009218: 42 7c 08 53 	lsr	w2, w2, #8
10000921c: e0 23 00 91 	add	x0, sp, #8
100009220: e1 03 15 aa 	mov	x1, x21
100009224: 0a 05 00 94 	bl	0x10000a64c <__ZN5gimli4read6reader6Reader11read_offset17h323693b0ad5f3745E>
100009228: e8 23 40 39 	ldrb	w8, [sp, #8]
10000922c: 1f 2d 01 71 	cmp	w8, #75
100009230: e1 00 00 54 	b.ne	0x10000924c <__ZN5gimli4read4unit15parse_attribute17hb289118b3cfe8316E+0x8d4>
100009234: e8 0b 40 f9 	ldr	x8, [sp, #16]
100009238: 09 3d 08 53 	ubfx	w9, w8, #8, #8
10000923c: 0d 7d 50 d3 	ubfx	x13, x8, #16, #16
100009240: 0a 7d 60 92 	and	x10, x8, #0xffffffff00000000
100009244: cb 01 80 52 	mov	w11, #14
100009248: f9 01 00 14 	b	0x100009a2c <__ZN5gimli4read4unit15parse_attribute17hb289118b3cfe8316E+0x10b4>
10000924c: e9 0b 40 f9 	ldr	x9, [sp, #16]
100009250: ea 93 40 b8 	ldur	w10, [sp, #9]
100009254: 6a 92 00 b8 	stur	w10, [x19, #9]
100009258: ea 0f 40 b9 	ldr	w10, [sp, #12]
10000925c: 6a 0e 00 b9 	str	w10, [x19, #12]
100009260: 68 22 00 39 	strb	w8, [x19, #8]
100009264: d1 01 00 14 	b	0x1000099a8 <__ZN5gimli4read4unit15parse_attribute17hb289118b3cfe8316E+0x1030>
100009268: 28 25 40 78 	ldrh	w8, [x9], #2
10000926c: a9 2a 00 a9 	stp	x9, x10, [x21]
100009270: 6a 09 80 52 	mov	w10, #75
100009274: 4b 1d 00 12 	and	w11, w10, #0xff
100009278: 7f 2d 01 71 	cmp	w11, #75
10000927c: 81 12 00 54 	b.ne	0x1000094cc <__ZN5gimli4read4unit15parse_attribute17hb289118b3cfe8316E+0xb54>
100009280: 0d 00 80 52 	mov	w13, #0
100009284: 0a 00 80 d2 	mov	x10, #0
100009288: 09 7d 08 53 	lsr	w9, w8, #8
10000928c: ab 01 80 52 	mov	w11, #13
100009290: e7 01 00 14 	b	0x100009a2c <__ZN5gimli4read4unit15parse_attribute17hb289118b3cfe8316E+0x10b4>
100009294: 28 45 40 b8 	ldr	w8, [x9], #4
100009298: a9 2a 00 a9 	stp	x9, x10, [x21]
10000929c: 6a 09 80 52 	mov	w10, #75
1000092a0: 4b 1d 00 12 	and	w11, w10, #0xff
1000092a4: 7f 2d 01 71 	cmp	w11, #75
1000092a8: a1 15 00 54 	b.ne	0x10000955c <__ZN5gimli4read4unit15parse_attribute17hb289118b3cfe8316E+0xbe4>
1000092ac: 0a 00 80 d2 	mov	x10, #0
1000092b0: 09 3d 08 53 	ubfx	w9, w8, #8, #8
1000092b4: 0d 7d 10 53 	lsr	w13, w8, #16
1000092b8: ab 01 80 52 	mov	w11, #13
1000092bc: dc 01 00 14 	b	0x100009a2c <__ZN5gimli4read4unit15parse_attribute17hb289118b3cfe8316E+0x10b4>
1000092c0: 2c 85 40 f8 	ldr	x12, [x9], #8
1000092c4: a9 22 00 a9 	stp	x9, x8, [x21]
1000092c8: 68 09 80 52 	mov	w8, #75
1000092cc: 0a 1d 00 12 	and	w10, w8, #0xff
1000092d0: 5f 2d 01 71 	cmp	w10, #75
1000092d4: 61 07 00 54 	b.ne	0x1000093c0 <__ZN5gimli4read4unit15parse_attribute17hb289118b3cfe8316E+0xa48>
1000092d8: 89 3d 08 53 	ubfx	w9, w12, #8, #8
1000092dc: 8d 7d 50 d3 	ubfx	x13, x12, #16, #16
1000092e0: 8a 7d 60 92 	and	x10, x12, #0xffffffff00000000
1000092e4: ab 01 80 52 	mov	w11, #13
1000092e8: e8 03 0c aa 	mov	x8, x12
1000092ec: d0 01 00 14 	b	0x100009a2c <__ZN5gimli4read4unit15parse_attribute17hb289118b3cfe8316E+0x10b4>
1000092f0: a9 22 40 a9 	ldp	x9, x8, [x21]
1000092f4: 0a 11 00 f1 	subs	x10, x8, #4
1000092f8: 62 30 00 54 	b.hs	0x100009904 <__ZN5gimli4read4unit15parse_attribute17hb289118b3cfe8316E+0xf8c>
1000092fc: 08 00 80 d2 	mov	x8, #0
100009300: 6a 02 80 52 	mov	w10, #19
100009304: 83 01 00 14 	b	0x100009910 <__ZN5gimli4read4unit15parse_attribute17hb289118b3cfe8316E+0xf98>
100009308: 28 45 40 b8 	ldr	w8, [x9], #4
10000930c: a9 2a 00 a9 	stp	x9, x10, [x21]
100009310: 6a 09 80 52 	mov	w10, #75
100009314: 4b 1d 00 12 	and	w11, w10, #0xff
100009318: 7f 2d 01 71 	cmp	w11, #75
10000931c: 01 12 00 54 	b.ne	0x10000955c <__ZN5gimli4read4unit15parse_attribute17hb289118b3cfe8316E+0xbe4>
100009320: 0a 00 80 d2 	mov	x10, #0
100009324: 09 3d 08 53 	ubfx	w9, w8, #8, #8
100009328: 0d 7d 10 53 	lsr	w13, w8, #16
10000932c: eb 01 80 52 	mov	w11, #15
100009330: bf 01 00 14 	b	0x100009a2c <__ZN5gimli4read4unit15parse_attribute17hb289118b3cfe8316E+0x10b4>
100009334: a9 22 40 a9 	ldp	x9, x8, [x21]
100009338: 0a 11 00 f1 	subs	x10, x8, #4
10000933c: a2 2f 00 54 	b.hs	0x100009930 <__ZN5gimli4read4unit15parse_attribute17hb289118b3cfe8316E+0xfb8>
100009340: 08 00 80 d2 	mov	x8, #0
100009344: 6a 02 80 52 	mov	w10, #19
100009348: 7d 01 00 14 	b	0x10000993c <__ZN5gimli4read4unit15parse_attribute17hb289118b3cfe8316E+0xfc4>
10000934c: 2c 85 40 f8 	ldr	x12, [x9], #8
100009350: a9 22 00 a9 	stp	x9, x8, [x21]
100009354: 68 09 80 52 	mov	w8, #75
100009358: 0a 1d 00 12 	and	w10, w8, #0xff
10000935c: 5f 2d 01 71 	cmp	w10, #75
100009360: 81 14 00 54 	b.ne	0x1000095f0 <__ZN5gimli4read4unit15parse_attribute17hb289118b3cfe8316E+0xc78>
100009364: 89 3d 08 53 	ubfx	w9, w12, #8, #8
100009368: 8d 7d 50 d3 	ubfx	x13, x12, #16, #16
10000936c: 8a 7d 60 92 	and	x10, x12, #0xffffffff00000000
100009370: 2b 03 80 52 	mov	w11, #25
100009374: e8 03 0c aa 	mov	x8, x12
100009378: ad 01 00 14 	b	0x100009a2c <__ZN5gimli4read4unit15parse_attribute17hb289118b3cfe8316E+0x10b4>
10000937c: c8 08 80 52 	mov	w8, #70
100009380: 68 22 00 39 	strb	w8, [x19, #8]
100009384: c8 05 80 52 	mov	w8, #46
100009388: 68 02 00 f9 	str	x8, [x19]
10000938c: af 01 00 14 	b	0x100009a48 <__ZN5gimli4read4unit15parse_attribute17hb289118b3cfe8316E+0x10d0>
100009390: 2c 85 40 f8 	ldr	x12, [x9], #8
100009394: a9 22 00 a9 	stp	x9, x8, [x21]
100009398: 68 09 80 52 	mov	w8, #75
10000939c: 0a 1d 00 12 	and	w10, w8, #0xff
1000093a0: 5f 2d 01 71 	cmp	w10, #75
1000093a4: e1 00 00 54 	b.ne	0x1000093c0 <__ZN5gimli4read4unit15parse_attribute17hb289118b3cfe8316E+0xa48>
1000093a8: 89 3d 08 53 	ubfx	w9, w12, #8, #8
1000093ac: 8d 7d 50 d3 	ubfx	x13, x12, #16, #16
1000093b0: 8a 7d 60 92 	and	x10, x12, #0xffffffff00000000
1000093b4: eb 01 80 52 	mov	w11, #15
1000093b8: e8 03 0c aa 	mov	x8, x12
1000093bc: 9c 01 00 14 	b	0x100009a2c <__ZN5gimli4read4unit15parse_attribute17hb289118b3cfe8316E+0x10b4>
1000093c0: ff 3b 00 39 	strb	wzr, [sp, #14]
1000093c4: ff 1b 00 79 	strh	wzr, [sp, #12]
1000093c8: ff 0b 00 b9 	str	wzr, [sp, #8]
1000093cc: e9 f3 00 f8 	stur	x9, [sp, #15]
1000093d0: e9 07 40 f9 	ldr	x9, [sp, #8]
1000093d4: ea 13 40 b9 	ldr	w10, [sp, #16]
1000093d8: ea 2b 00 b9 	str	w10, [sp, #40]
1000093dc: ea 33 41 b8 	ldur	w10, [sp, #19]
1000093e0: ea b3 02 b8 	stur	w10, [sp, #43]
1000093e4: e9 13 00 f9 	str	x9, [sp, #32]
1000093e8: e9 1b 00 b9 	str	w9, [sp, #24]
1000093ec: e9 33 42 b8 	ldur	w9, [sp, #35]
1000093f0: e9 b3 01 b8 	stur	w9, [sp, #27]
1000093f4: e9 73 42 f8 	ldur	x9, [sp, #39]
1000093f8: ea 1b 40 b9 	ldr	w10, [sp, #24]
1000093fc: 6a 92 00 b8 	stur	w10, [x19, #9]
100009400: ea b3 41 b8 	ldur	w10, [sp, #27]
100009404: 6a 0e 00 b9 	str	w10, [x19, #12]
100009408: 68 22 00 39 	strb	w8, [x19, #8]
10000940c: 67 01 00 14 	b	0x1000099a8 <__ZN5gimli4read4unit15parse_attribute17hb289118b3cfe8316E+0x1030>
100009410: 28 25 40 78 	ldrh	w8, [x9], #2
100009414: a9 2a 00 a9 	stp	x9, x10, [x21]
100009418: 6a 09 80 52 	mov	w10, #75
10000941c: 4b 1d 00 12 	and	w11, w10, #0xff
100009420: 7f 2d 01 71 	cmp	w11, #75
100009424: 41 05 00 54 	b.ne	0x1000094cc <__ZN5gimli4read4unit15parse_attribute17hb289118b3cfe8316E+0xb54>
100009428: 0d 00 80 52 	mov	w13, #0
10000942c: 0a 00 80 d2 	mov	x10, #0
100009430: 09 7d 08 53 	lsr	w9, w8, #8
100009434: ab 03 80 52 	mov	w11, #29
100009438: 7d 01 00 14 	b	0x100009a2c <__ZN5gimli4read4unit15parse_attribute17hb289118b3cfe8316E+0x10b4>
10000943c: 2a 0d 00 91 	add	x10, x9, #3
100009440: aa 22 00 a9 	stp	x10, x8, [x21]
100009444: 2a 09 40 39 	ldrb	w10, [x9, #2]
100009448: 28 01 40 79 	ldrh	w8, [x9]
10000944c: 48 1d 70 b3 	bfi	x8, x10, #16, #8
100009450: 6a 09 80 52 	mov	w10, #75
100009454: 4b 1d 00 12 	and	w11, w10, #0xff
100009458: 7f 2d 01 71 	cmp	w11, #75
10000945c: 01 06 00 54 	b.ne	0x10000951c <__ZN5gimli4read4unit15parse_attribute17hb289118b3cfe8316E+0xba4>
100009460: 0a 00 80 d2 	mov	x10, #0
100009464: 09 3d 08 53 	ubfx	w9, w8, #8, #8
100009468: 0d 7d 50 d3 	ubfx	x13, x8, #16, #16
10000946c: ab 03 80 52 	mov	w11, #29
100009470: 6f 01 00 14 	b	0x100009a2c <__ZN5gimli4read4unit15parse_attribute17hb289118b3cfe8316E+0x10b4>
100009474: 28 45 40 b8 	ldr	w8, [x9], #4
100009478: a9 2a 00 a9 	stp	x9, x10, [x21]
10000947c: 6a 09 80 52 	mov	w10, #75
100009480: 4b 1d 00 12 	and	w11, w10, #0xff
100009484: 7f 2d 01 71 	cmp	w11, #75
100009488: a1 06 00 54 	b.ne	0x10000955c <__ZN5gimli4read4unit15parse_attribute17hb289118b3cfe8316E+0xbe4>
10000948c: 0a 00 80 d2 	mov	x10, #0
100009490: 09 3d 08 53 	ubfx	w9, w8, #8, #8
100009494: 0d 7d 10 53 	lsr	w13, w8, #16
100009498: ab 03 80 52 	mov	w11, #29
10000949c: 64 01 00 14 	b	0x100009a2c <__ZN5gimli4read4unit15parse_attribute17hb289118b3cfe8316E+0x10b4>
1000094a0: 28 25 40 78 	ldrh	w8, [x9], #2
1000094a4: a9 2a 00 a9 	stp	x9, x10, [x21]
1000094a8: 6a 09 80 52 	mov	w10, #75
1000094ac: 4b 1d 00 12 	and	w11, w10, #0xff
1000094b0: 7f 2d 01 71 	cmp	w11, #75
1000094b4: c1 00 00 54 	b.ne	0x1000094cc <__ZN5gimli4read4unit15parse_attribute17hb289118b3cfe8316E+0xb54>
1000094b8: 0d 00 80 52 	mov	w13, #0
1000094bc: 0a 00 80 d2 	mov	x10, #0
1000094c0: 09 7d 08 53 	lsr	w9, w8, #8
1000094c4: 8b 01 80 52 	mov	w11, #12
1000094c8: 59 01 00 14 	b	0x100009a2c <__ZN5gimli4read4unit15parse_attribute17hb289118b3cfe8316E+0x10b4>
1000094cc: ff 13 00 79 	strh	wzr, [sp, #8]
1000094d0: ff a3 00 b8 	stur	wzr, [sp, #10]
1000094d4: ff 3b 00 39 	strb	wzr, [sp, #14]
1000094d8: e8 0b 40 b9 	ldr	w8, [sp, #8]
1000094dc: e8 23 00 b9 	str	w8, [sp, #32]
1000094e0: 23 00 00 14 	b	0x10000956c <__ZN5gimli4read4unit15parse_attribute17hb289118b3cfe8316E+0xbf4>
1000094e4: 2a 0d 00 91 	add	x10, x9, #3
1000094e8: aa 22 00 a9 	stp	x10, x8, [x21]
1000094ec: 2a 09 40 39 	ldrb	w10, [x9, #2]
1000094f0: 28 01 40 79 	ldrh	w8, [x9]
1000094f4: 48 1d 70 b3 	bfi	x8, x10, #16, #8
1000094f8: 6a 09 80 52 	mov	w10, #75
1000094fc: 4b 1d 00 12 	and	w11, w10, #0xff
100009500: 7f 2d 01 71 	cmp	w11, #75
100009504: c1 00 00 54 	b.ne	0x10000951c <__ZN5gimli4read4unit15parse_attribute17hb289118b3cfe8316E+0xba4>
100009508: 0a 00 80 d2 	mov	x10, #0
10000950c: 09 3d 08 53 	ubfx	w9, w8, #8, #8
100009510: 0d 7d 50 d3 	ubfx	x13, x8, #16, #16
100009514: 8b 01 80 52 	mov	w11, #12
100009518: 45 01 00 14 	b	0x100009a2c <__ZN5gimli4read4unit15parse_attribute17hb289118b3cfe8316E+0x10b4>
10000951c: 6a 22 00 39 	strb	w10, [x19, #8]
100009520: 7f 3e 00 39 	strb	wzr, [x19, #15]
100009524: 7f d2 00 78 	sturh	wzr, [x19, #13]
100009528: 7f 92 00 b8 	stur	wzr, [x19, #9]
10000952c: 1f 01 00 14 	b	0x1000099a8 <__ZN5gimli4read4unit15parse_attribute17hb289118b3cfe8316E+0x1030>
100009530: 28 45 40 b8 	ldr	w8, [x9], #4
100009534: a9 2a 00 a9 	stp	x9, x10, [x21]
100009538: 6a 09 80 52 	mov	w10, #75
10000953c: 4b 1d 00 12 	and	w11, w10, #0xff
100009540: 7f 2d 01 71 	cmp	w11, #75
100009544: c1 00 00 54 	b.ne	0x10000955c <__ZN5gimli4read4unit15parse_attribute17hb289118b3cfe8316E+0xbe4>
100009548: 0a 00 80 d2 	mov	x10, #0
10000954c: 09 3d 08 53 	ubfx	w9, w8, #8, #8
100009550: 0d 7d 10 53 	lsr	w13, w8, #16
100009554: 8b 01 80 52 	mov	w11, #12
100009558: 35 01 00 14 	b	0x100009a2c <__ZN5gimli4read4unit15parse_attribute17hb289118b3cfe8316E+0x10b4>
10000955c: ff 0b 00 b9 	str	wzr, [sp, #8]
100009560: ff 3b 00 39 	strb	wzr, [sp, #14]
100009564: ff 1b 00 79 	strh	wzr, [sp, #12]
100009568: ff 23 00 b9 	str	wzr, [sp, #32]
10000956c: e8 b3 40 b8 	ldur	w8, [sp, #11]
100009570: e8 33 02 b8 	stur	w8, [sp, #35]
100009574: e8 23 40 b9 	ldr	w8, [sp, #32]
100009578: 68 92 00 b8 	stur	w8, [x19, #9]
10000957c: e8 33 42 b8 	ldur	w8, [sp, #35]
100009580: 68 0e 00 b9 	str	w8, [x19, #12]
100009584: 6a 22 00 39 	strb	w10, [x19, #8]
100009588: 08 01 00 14 	b	0x1000099a8 <__ZN5gimli4read4unit15parse_attribute17hb289118b3cfe8316E+0x1030>
10000958c: a9 22 40 a9 	ldp	x9, x8, [x21]
100009590: 0a 11 00 f1 	subs	x10, x8, #4
100009594: 42 1e 00 54 	b.hs	0x10000995c <__ZN5gimli4read4unit15parse_attribute17hb289118b3cfe8316E+0xfe4>
100009598: 08 00 80 d2 	mov	x8, #0
10000959c: 6a 02 80 52 	mov	w10, #19
1000095a0: f2 00 00 14 	b	0x100009968 <__ZN5gimli4read4unit15parse_attribute17hb289118b3cfe8316E+0xff0>
1000095a4: 28 45 40 b8 	ldr	w8, [x9], #4
1000095a8: a9 2a 00 a9 	stp	x9, x10, [x21]
1000095ac: 6a 09 80 52 	mov	w10, #75
1000095b0: 4a 1d 00 12 	and	w10, w10, #0xff
1000095b4: 5f 2d 01 71 	cmp	w10, #75
1000095b8: 81 1e 00 54 	b.ne	0x100009988 <__ZN5gimli4read4unit15parse_attribute17hb289118b3cfe8316E+0x1010>
1000095bc: 09 3d 08 53 	ubfx	w9, w8, #8, #8
1000095c0: 0d 7d 50 d3 	ubfx	x13, x8, #16, #16
1000095c4: 0a 7d 60 92 	and	x10, x8, #0xffffffff00000000
1000095c8: 6b 03 80 52 	mov	w11, #27
1000095cc: 18 01 00 14 	b	0x100009a2c <__ZN5gimli4read4unit15parse_attribute17hb289118b3cfe8316E+0x10b4>
1000095d0: ff 13 00 79 	strh	wzr, [sp, #8]
1000095d4: ff a3 00 b8 	stur	wzr, [sp, #10]
1000095d8: e8 93 40 78 	ldurh	w8, [sp, #9]
1000095dc: 6a 22 00 39 	strb	w10, [x19, #8]
1000095e0: 7f 26 00 39 	strb	wzr, [x19, #9]
1000095e4: 68 16 00 79 	strh	w8, [x19, #10]
1000095e8: 7f 0e 00 b9 	str	wzr, [x19, #12]
1000095ec: ef 00 00 14 	b	0x1000099a8 <__ZN5gimli4read4unit15parse_attribute17hb289118b3cfe8316E+0x1030>
1000095f0: ff 3b 00 39 	strb	wzr, [sp, #14]
1000095f4: ff 1b 00 79 	strh	wzr, [sp, #12]
1000095f8: ff 0b 00 b9 	str	wzr, [sp, #8]
1000095fc: e9 f3 00 f8 	stur	x9, [sp, #15]
100009600: e9 07 40 f9 	ldr	x9, [sp, #8]
100009604: ea 13 40 b9 	ldr	w10, [sp, #16]
100009608: ea 2b 00 b9 	str	w10, [sp, #40]
10000960c: ea 33 41 b8 	ldur	w10, [sp, #19]
100009610: ea b3 02 b8 	stur	w10, [sp, #43]
100009614: e9 13 00 f9 	str	x9, [sp, #32]
100009618: ea 73 42 f8 	ldur	x10, [sp, #39]
10000961c: 69 92 00 b8 	stur	w9, [x19, #9]
100009620: e9 33 42 b8 	ldur	w9, [sp, #35]
100009624: 69 0e 00 b9 	str	w9, [x19, #12]
100009628: 68 22 00 39 	strb	w8, [x19, #8]
10000962c: 1b 01 00 14 	b	0x100009a98 <__ZN5gimli4read4unit15parse_attribute17hb289118b3cfe8316E+0x1120>
100009630: 08 00 80 52 	mov	w8, #0
100009634: 69 02 80 52 	mov	w9, #19
100009638: ea 03 0e aa 	mov	x10, x14
10000963c: 69 22 00 39 	strb	w9, [x19, #8]
100009640: 7f 26 00 39 	strb	wzr, [x19, #9]
100009644: 68 16 00 79 	strh	w8, [x19, #10]
100009648: 7f 0e 00 b9 	str	wzr, [x19, #12]
10000964c: 13 01 00 14 	b	0x100009a98 <__ZN5gimli4read4unit15parse_attribute17hb289118b3cfe8316E+0x1120>
100009650: 08 00 80 52 	mov	w8, #0
100009654: 6a 02 80 52 	mov	w10, #19
100009658: 4b 1d 00 12 	and	w11, w10, #0xff
10000965c: 7f 2d 01 71 	cmp	w11, #75
100009660: 41 06 00 54 	b.ne	0x100009728 <__ZN5gimli4read4unit15parse_attribute17hb289118b3cfe8316E+0xdb0>
100009664: 09 00 80 52 	mov	w9, #0
100009668: 0d 00 80 52 	mov	w13, #0
10000966c: 0a 00 80 d2 	mov	x10, #0
100009670: 4b 00 80 52 	mov	w11, #2
100009674: ee 00 00 14 	b	0x100009a2c <__ZN5gimli4read4unit15parse_attribute17hb289118b3cfe8316E+0x10b4>
100009678: 0b 00 80 52 	mov	w11, #0
10000967c: 69 02 80 52 	mov	w9, #19
100009680: 2a 1d 00 12 	and	w10, w9, #0xff
100009684: 5f 2d 01 71 	cmp	w10, #75
100009688: 01 01 00 54 	b.ne	0x1000096a8 <__ZN5gimli4read4unit15parse_attribute17hb289118b3cfe8316E+0xd30>
10000968c: 09 00 80 52 	mov	w9, #0
100009690: 0d 00 80 52 	mov	w13, #0
100009694: 0a 00 80 d2 	mov	x10, #0
100009698: 7f 01 00 71 	cmp	w11, #0
10000969c: e8 07 9f 1a 	cset	w8, ne
1000096a0: 2b 01 80 52 	mov	w11, #9
1000096a4: e2 00 00 14 	b	0x100009a2c <__ZN5gimli4read4unit15parse_attribute17hb289118b3cfe8316E+0x10b4>
1000096a8: 69 22 00 39 	strb	w9, [x19, #8]
1000096ac: 58 fe ff 17 	b	0x10000900c <__ZN5gimli4read4unit15parse_attribute17hb289118b3cfe8316E+0x694>
1000096b0: 08 00 80 52 	mov	w8, #0
1000096b4: 6a 02 80 52 	mov	w10, #19
1000096b8: 4b 1d 00 12 	and	w11, w10, #0xff
1000096bc: 7f 2d 01 71 	cmp	w11, #75
1000096c0: 41 03 00 54 	b.ne	0x100009728 <__ZN5gimli4read4unit15parse_attribute17hb289118b3cfe8316E+0xdb0>
1000096c4: 09 00 80 52 	mov	w9, #0
1000096c8: 0d 00 80 52 	mov	w13, #0
1000096cc: 0a 00 80 d2 	mov	x10, #0
1000096d0: ab 01 80 52 	mov	w11, #13
1000096d4: d6 00 00 14 	b	0x100009a2c <__ZN5gimli4read4unit15parse_attribute17hb289118b3cfe8316E+0x10b4>
1000096d8: 08 00 80 52 	mov	w8, #0
1000096dc: 6a 02 80 52 	mov	w10, #19
1000096e0: 4b 1d 00 12 	and	w11, w10, #0xff
1000096e4: 7f 2d 01 71 	cmp	w11, #75
1000096e8: 01 02 00 54 	b.ne	0x100009728 <__ZN5gimli4read4unit15parse_attribute17hb289118b3cfe8316E+0xdb0>
1000096ec: 09 00 80 52 	mov	w9, #0
1000096f0: 0d 00 80 52 	mov	w13, #0
1000096f4: 0a 00 80 d2 	mov	x10, #0
1000096f8: ab 03 80 52 	mov	w11, #29
1000096fc: cc 00 00 14 	b	0x100009a2c <__ZN5gimli4read4unit15parse_attribute17hb289118b3cfe8316E+0x10b4>
100009700: 08 00 80 52 	mov	w8, #0
100009704: 6a 02 80 52 	mov	w10, #19
100009708: 4b 1d 00 12 	and	w11, w10, #0xff
10000970c: 7f 2d 01 71 	cmp	w11, #75
100009710: c1 00 00 54 	b.ne	0x100009728 <__ZN5gimli4read4unit15parse_attribute17hb289118b3cfe8316E+0xdb0>
100009714: 09 00 80 52 	mov	w9, #0
100009718: 0d 00 80 52 	mov	w13, #0
10000971c: 0a 00 80 d2 	mov	x10, #0
100009720: 8b 01 80 52 	mov	w11, #12
100009724: c2 00 00 14 	b	0x100009a2c <__ZN5gimli4read4unit15parse_attribute17hb289118b3cfe8316E+0x10b4>
100009728: 6a 22 00 39 	strb	w10, [x19, #8]
10000972c: 7f 26 00 39 	strb	wzr, [x19, #9]
100009730: 7f 1e 00 79 	strh	wzr, [x19, #14]
100009734: 7f a2 00 b8 	stur	wzr, [x19, #10]
100009738: 9c 00 00 14 	b	0x1000099a8 <__ZN5gimli4read4unit15parse_attribute17hb289118b3cfe8316E+0x1030>
10000973c: 0c 45 40 b8 	ldr	w12, [x8], #4
100009740: a8 26 00 a9 	stp	x8, x9, [x21]
100009744: 69 09 80 52 	mov	w9, #75
100009748: 2a 1d 00 12 	and	w10, w9, #0xff
10000974c: 5f 2d 01 71 	cmp	w10, #75
100009750: 61 01 00 54 	b.ne	0x10000977c <__ZN5gimli4read4unit15parse_attribute17hb289118b3cfe8316E+0xe04>
100009754: 8b 00 80 52 	mov	w11, #4
100009758: a6 00 00 14 	b	0x1000099f0 <__ZN5gimli4read4unit15parse_attribute17hb289118b3cfe8316E+0x1078>
10000975c: 48 85 40 f8 	ldr	x8, [x10], #8
100009760: aa 26 00 a9 	stp	x10, x9, [x21]
100009764: 69 09 80 52 	mov	w9, #75
100009768: 2b 1d 00 12 	and	w11, w9, #0xff
10000976c: 7f 2d 01 71 	cmp	w11, #75
100009770: 61 17 00 54 	b.ne	0x100009a5c <__ZN5gimli4read4unit15parse_attribute17hb289118b3cfe8316E+0x10e4>
100009774: ab 00 80 52 	mov	w11, #5
100009778: aa 00 00 14 	b	0x100009a20 <__ZN5gimli4read4unit15parse_attribute17hb289118b3cfe8316E+0x10a8>
10000977c: ff 0b 00 b9 	str	wzr, [sp, #8]
100009780: ff 3b 00 39 	strb	wzr, [sp, #14]
100009784: ff 1b 00 79 	strh	wzr, [sp, #12]
100009788: ea b3 40 b8 	ldur	w10, [sp, #11]
10000978c: 7f 92 00 78 	sturh	wzr, [x19, #9]
100009790: eb 5f 10 53 	ubfx	w11, wzr, #16, #8
100009794: 6b 2e 00 39 	strb	w11, [x19, #11]
100009798: 69 22 00 39 	strb	w9, [x19, #8]
10000979c: 6a 0e 00 b9 	str	w10, [x19, #12]
1000097a0: 1e fe ff 17 	b	0x100009018 <__ZN5gimli4read4unit15parse_attribute17hb289118b3cfe8316E+0x6a0>
1000097a4: 0a 01 0c 8b 	add	x10, x8, x12
1000097a8: 4a 05 00 91 	add	x10, x10, #1
1000097ac: eb 03 2c aa 	mvn	x11, x12
1000097b0: 29 01 0b 8b 	add	x9, x9, x11
1000097b4: aa 26 00 a9 	stp	x10, x9, [x21]
1000097b8: 09 3d 08 53 	ubfx	w9, w8, #8, #8
1000097bc: 0d 7d 50 d3 	ubfx	x13, x8, #16, #16
1000097c0: 0a 7d 60 92 	and	x10, x8, #0xffffffff00000000
1000097c4: eb 03 80 52 	mov	w11, #31
1000097c8: 99 00 00 14 	b	0x100009a2c <__ZN5gimli4read4unit15parse_attribute17hb289118b3cfe8316E+0x10b4>
1000097cc: 4a 01 0c eb 	subs	x10, x10, x12
1000097d0: 82 a5 ff 54 	b.hs	0x100008c80 <__ZN5gimli4read4unit15parse_attribute17hb289118b3cfe8316E+0x308>
1000097d4: 09 00 00 14 	b	0x1000097f8 <__ZN5gimli4read4unit15parse_attribute17hb289118b3cfe8316E+0xe80>
1000097d8: 89 3d 08 53 	ubfx	w9, w12, #8, #8
1000097dc: 8d 7d 50 d3 	ubfx	x13, x12, #16, #16
1000097e0: 8a 7d 60 92 	and	x10, x12, #0xffffffff00000000
1000097e4: eb 00 80 52 	mov	w11, #7
1000097e8: e8 03 0c aa 	mov	x8, x12
1000097ec: 90 00 00 14 	b	0x100009a2c <__ZN5gimli4read4unit15parse_attribute17hb289118b3cfe8316E+0x10b4>
1000097f0: 4a 01 0c eb 	subs	x10, x10, x12
1000097f4: 22 0e 00 54 	b.hs	0x1000099b8 <__ZN5gimli4read4unit15parse_attribute17hb289118b3cfe8316E+0x1040>
1000097f8: 69 02 80 52 	mov	w9, #19
1000097fc: 69 a2 00 a9 	stp	x9, x8, [x19, #8]
100009800: c8 05 80 52 	mov	w8, #46
100009804: 68 02 00 f9 	str	x8, [x19]
100009808: 90 00 00 14 	b	0x100009a48 <__ZN5gimli4read4unit15parse_attribute17hb289118b3cfe8316E+0x10d0>
10000980c: 89 3d 08 53 	ubfx	w9, w12, #8, #8
100009810: 8d 7d 50 d3 	ubfx	x13, x12, #16, #16
100009814: 8a 7d 60 92 	and	x10, x12, #0xffffffff00000000
100009818: 6b 02 80 52 	mov	w11, #19
10000981c: e8 03 0c aa 	mov	x8, x12
100009820: 83 00 00 14 	b	0x100009a2c <__ZN5gimli4read4unit15parse_attribute17hb289118b3cfe8316E+0x10b4>
100009824: 89 fd 48 d3 	lsr	x9, x12, #8
100009828: 8d fd 50 d3 	lsr	x13, x12, #16
10000982c: 8a 7d 60 92 	and	x10, x12, #0xffffffff00000000
100009830: 0b 03 80 52 	mov	w11, #24
100009834: e8 03 0c aa 	mov	x8, x12
100009838: 7d 00 00 14 	b	0x100009a2c <__ZN5gimli4read4unit15parse_attribute17hb289118b3cfe8316E+0x10b4>
10000983c: 28 85 40 f8 	ldr	x8, [x9], #8
100009840: a9 2a 00 a9 	stp	x9, x10, [x21]
100009844: 6a 09 80 52 	mov	w10, #75
100009848: 4a 1d 00 12 	and	w10, w10, #0xff
10000984c: 5f 2d 01 71 	cmp	w10, #75
100009850: c1 02 00 54 	b.ne	0x1000098a8 <__ZN5gimli4read4unit15parse_attribute17hb289118b3cfe8316E+0xf30>
100009854: 27 00 00 14 	b	0x1000098f0 <__ZN5gimli4read4unit15parse_attribute17hb289118b3cfe8316E+0xf78>
100009858: 28 85 40 f8 	ldr	x8, [x9], #8
10000985c: a9 2a 00 a9 	stp	x9, x10, [x21]
100009860: 6a 09 80 52 	mov	w10, #75
100009864: 4a 1d 00 12 	and	w10, w10, #0xff
100009868: 5f 2d 01 71 	cmp	w10, #75
10000986c: e1 01 00 54 	b.ne	0x1000098a8 <__ZN5gimli4read4unit15parse_attribute17hb289118b3cfe8316E+0xf30>
100009870: 2b 00 00 14 	b	0x10000991c <__ZN5gimli4read4unit15parse_attribute17hb289118b3cfe8316E+0xfa4>
100009874: 28 85 40 f8 	ldr	x8, [x9], #8
100009878: a9 2a 00 a9 	stp	x9, x10, [x21]
10000987c: 6a 09 80 52 	mov	w10, #75
100009880: 4a 1d 00 12 	and	w10, w10, #0xff
100009884: 5f 2d 01 71 	cmp	w10, #75
100009888: 01 01 00 54 	b.ne	0x1000098a8 <__ZN5gimli4read4unit15parse_attribute17hb289118b3cfe8316E+0xf30>
10000988c: 2f 00 00 14 	b	0x100009948 <__ZN5gimli4read4unit15parse_attribute17hb289118b3cfe8316E+0xfd0>
100009890: 28 85 40 f8 	ldr	x8, [x9], #8
100009894: a9 2a 00 a9 	stp	x9, x10, [x21]
100009898: 6a 09 80 52 	mov	w10, #75
10000989c: 4a 1d 00 12 	and	w10, w10, #0xff
1000098a0: 5f 2d 01 71 	cmp	w10, #75
1000098a4: 80 06 00 54 	b.eq	0x100009974 <__ZN5gimli4read4unit15parse_attribute17hb289118b3cfe8316E+0xffc>
1000098a8: ff 3b 00 39 	strb	wzr, [sp, #14]
1000098ac: ff 1b 00 79 	strh	wzr, [sp, #12]
1000098b0: ff 0b 00 b9 	str	wzr, [sp, #8]
1000098b4: e9 f3 00 f8 	stur	x9, [sp, #15]
1000098b8: e8 07 40 f9 	ldr	x8, [sp, #8]
1000098bc: e9 13 40 b9 	ldr	w9, [sp, #16]
1000098c0: e9 2b 00 b9 	str	w9, [sp, #40]
1000098c4: e9 33 41 b8 	ldur	w9, [sp, #19]
1000098c8: e9 b3 02 b8 	stur	w9, [sp, #43]
1000098cc: e8 13 00 f9 	str	x8, [sp, #32]
1000098d0: e9 73 42 f8 	ldur	x9, [sp, #39]
1000098d4: 30 00 00 14 	b	0x100009994 <__ZN5gimli4read4unit15parse_attribute17hb289118b3cfe8316E+0x101c>
1000098d8: 28 45 40 b8 	ldr	w8, [x9], #4
1000098dc: a9 2a 00 a9 	stp	x9, x10, [x21]
1000098e0: 6a 09 80 52 	mov	w10, #75
1000098e4: 4a 1d 00 12 	and	w10, w10, #0xff
1000098e8: 5f 2d 01 71 	cmp	w10, #75
1000098ec: e1 04 00 54 	b.ne	0x100009988 <__ZN5gimli4read4unit15parse_attribute17hb289118b3cfe8316E+0x1010>
1000098f0: 09 3d 08 53 	ubfx	w9, w8, #8, #8
1000098f4: 0d 7d 50 d3 	ubfx	x13, x8, #16, #16
1000098f8: 0a 7d 60 92 	and	x10, x8, #0xffffffff00000000
1000098fc: 4b 03 80 52 	mov	w11, #26
100009900: 4b 00 00 14 	b	0x100009a2c <__ZN5gimli4read4unit15parse_attribute17hb289118b3cfe8316E+0x10b4>
100009904: 28 45 40 b8 	ldr	w8, [x9], #4
100009908: a9 2a 00 a9 	stp	x9, x10, [x21]
10000990c: 6a 09 80 52 	mov	w10, #75
100009910: 4a 1d 00 12 	and	w10, w10, #0xff
100009914: 5f 2d 01 71 	cmp	w10, #75
100009918: 81 03 00 54 	b.ne	0x100009988 <__ZN5gimli4read4unit15parse_attribute17hb289118b3cfe8316E+0x1010>
10000991c: 09 3d 08 53 	ubfx	w9, w8, #8, #8
100009920: 0d 7d 50 d3 	ubfx	x13, x8, #16, #16
100009924: 0a 7d 60 92 	and	x10, x8, #0xffffffff00000000
100009928: 4b 01 80 52 	mov	w11, #10
10000992c: 40 00 00 14 	b	0x100009a2c <__ZN5gimli4read4unit15parse_attribute17hb289118b3cfe8316E+0x10b4>
100009930: 28 45 40 b8 	ldr	w8, [x9], #4
100009934: a9 2a 00 a9 	stp	x9, x10, [x21]
100009938: 6a 09 80 52 	mov	w10, #75
10000993c: 4a 1d 00 12 	and	w10, w10, #0xff
100009940: 5f 2d 01 71 	cmp	w10, #75
100009944: 21 02 00 54 	b.ne	0x100009988 <__ZN5gimli4read4unit15parse_attribute17hb289118b3cfe8316E+0x1010>
100009948: 09 3d 08 53 	ubfx	w9, w8, #8, #8
10000994c: 0d 7d 50 d3 	ubfx	x13, x8, #16, #16
100009950: 0a 7d 60 92 	and	x10, x8, #0xffffffff00000000
100009954: cb 03 80 52 	mov	w11, #30
100009958: 35 00 00 14 	b	0x100009a2c <__ZN5gimli4read4unit15parse_attribute17hb289118b3cfe8316E+0x10b4>
10000995c: 28 45 40 b8 	ldr	w8, [x9], #4
100009960: a9 2a 00 a9 	stp	x9, x10, [x21]
100009964: 6a 09 80 52 	mov	w10, #75
100009968: 4a 1d 00 12 	and	w10, w10, #0xff
10000996c: 5f 2d 01 71 	cmp	w10, #75
100009970: c1 00 00 54 	b.ne	0x100009988 <__ZN5gimli4read4unit15parse_attribute17hb289118b3cfe8316E+0x1010>
100009974: 09 3d 08 53 	ubfx	w9, w8, #8, #8
100009978: 0d 7d 50 d3 	ubfx	x13, x8, #16, #16
10000997c: 0a 7d 60 92 	and	x10, x8, #0xffffffff00000000
100009980: eb 01 80 52 	mov	w11, #15
100009984: 2a 00 00 14 	b	0x100009a2c <__ZN5gimli4read4unit15parse_attribute17hb289118b3cfe8316E+0x10b4>
100009988: ff 23 00 b9 	str	wzr, [sp, #32]
10000998c: ff 9b 00 39 	strb	wzr, [sp, #38]
100009990: ff 4b 00 79 	strh	wzr, [sp, #36]
100009994: e8 23 40 b9 	ldr	w8, [sp, #32]
100009998: 68 92 00 b8 	stur	w8, [x19, #9]
10000999c: e8 33 42 b8 	ldur	w8, [sp, #35]
1000099a0: 68 0e 00 b9 	str	w8, [x19, #12]
1000099a4: 6a 22 00 39 	strb	w10, [x19, #8]
1000099a8: 69 0a 00 f9 	str	x9, [x19, #16]
1000099ac: c8 05 80 52 	mov	w8, #46
1000099b0: 68 02 00 f9 	str	x8, [x19]
1000099b4: 25 00 00 14 	b	0x100009a48 <__ZN5gimli4read4unit15parse_attribute17hb289118b3cfe8316E+0x10d0>
1000099b8: 0b 01 0c 8b 	add	x11, x8, x12
1000099bc: 09 3d 08 53 	ubfx	w9, w8, #8, #8
1000099c0: 0d 7d 50 d3 	ubfx	x13, x8, #16, #16
1000099c4: ab 2a 00 a9 	stp	x11, x10, [x21]
1000099c8: 0a 7d 60 92 	and	x10, x8, #0xffffffff00000000
1000099cc: 0b 01 80 52 	mov	w11, #8
1000099d0: 17 00 00 14 	b	0x100009a2c <__ZN5gimli4read4unit15parse_attribute17hb289118b3cfe8316E+0x10b4>
1000099d4: 0c 45 40 b8 	ldr	w12, [x8], #4
1000099d8: a8 26 00 a9 	stp	x8, x9, [x21]
1000099dc: 69 09 80 52 	mov	w9, #75
1000099e0: 2a 1d 00 12 	and	w10, w9, #0xff
1000099e4: 5f 2d 01 71 	cmp	w10, #75
1000099e8: 01 06 00 54 	b.ne	0x100009aa8 <__ZN5gimli4read4unit15parse_attribute17hb289118b3cfe8316E+0x1130>
1000099ec: 4b 01 80 52 	mov	w11, #10
1000099f0: e8 03 0c aa 	mov	x8, x12
1000099f4: 0a 00 80 d2 	mov	x10, #0
1000099f8: 89 3d 08 53 	ubfx	w9, w12, #8, #8
1000099fc: 8d 7d 10 53 	lsr	w13, w12, #16
100009a00: 0b 00 00 14 	b	0x100009a2c <__ZN5gimli4read4unit15parse_attribute17hb289118b3cfe8316E+0x10b4>
100009a04: 48 85 40 f8 	ldr	x8, [x10], #8
100009a08: aa 26 00 a9 	stp	x10, x9, [x21]
100009a0c: 69 09 80 52 	mov	w9, #75
100009a10: 2b 1d 00 12 	and	w11, w9, #0xff
100009a14: 7f 2d 01 71 	cmp	w11, #75
100009a18: 21 02 00 54 	b.ne	0x100009a5c <__ZN5gimli4read4unit15parse_attribute17hb289118b3cfe8316E+0x10e4>
100009a1c: 4b 01 80 52 	mov	w11, #10
100009a20: 0a 7d 60 92 	and	x10, x8, #0xffffffff00000000
100009a24: 09 3d 08 53 	ubfx	w9, w8, #8, #8
100009a28: 0d 7d 50 d3 	ubfx	x13, x8, #16, #16
100009a2c: 8e 12 40 79 	ldrh	w14, [x20, #8]
100009a30: 28 1d 18 33 	bfi	w8, w9, #8, #8
100009a34: a8 3d 10 33 	bfi	w8, w13, #16, #16
100009a38: 48 01 08 aa 	orr	x8, x10, x8
100009a3c: 6b 22 00 a9 	stp	x11, x8, [x19]
100009a40: 6c 0a 00 f9 	str	x12, [x19, #16]
100009a44: 6e 32 00 79 	strh	w14, [x19, #24]
100009a48: fd 7b 45 a9 	ldp	x29, x30, [sp, #80]
100009a4c: f4 4f 44 a9 	ldp	x20, x19, [sp, #64]
100009a50: f6 57 43 a9 	ldp	x22, x21, [sp, #48]
100009a54: ff 83 01 91 	add	sp, sp, #96
100009a58: c0 03 5f d6 	ret
100009a5c: ff 3b 00 39 	strb	wzr, [sp, #14]
100009a60: ff 1b 00 79 	strh	wzr, [sp, #12]
100009a64: ff 0b 00 b9 	str	wzr, [sp, #8]
100009a68: ea f3 00 f8 	stur	x10, [sp, #15]
100009a6c: e8 07 40 f9 	ldr	x8, [sp, #8]
100009a70: ea 13 40 b9 	ldr	w10, [sp, #16]
100009a74: ea 2b 00 b9 	str	w10, [sp, #40]
100009a78: ea 33 41 b8 	ldur	w10, [sp, #19]
100009a7c: ea b3 02 b8 	stur	w10, [sp, #43]
100009a80: e8 13 00 f9 	str	x8, [sp, #32]
100009a84: ea 73 42 f8 	ldur	x10, [sp, #39]
100009a88: 68 92 00 b8 	stur	w8, [x19, #9]
100009a8c: e8 33 42 b8 	ldur	w8, [sp, #35]
100009a90: 68 0e 00 b9 	str	w8, [x19, #12]
100009a94: 69 22 00 39 	strb	w9, [x19, #8]
100009a98: 6a 0a 00 f9 	str	x10, [x19, #16]
100009a9c: c8 05 80 52 	mov	w8, #46
100009aa0: 68 02 00 f9 	str	x8, [x19]
100009aa4: e9 ff ff 17 	b	0x100009a48 <__ZN5gimli4read4unit15parse_attribute17hb289118b3cfe8316E+0x10d0>
100009aa8: 69 22 00 39 	strb	w9, [x19, #8]
100009aac: 7f 92 00 b8 	stur	wzr, [x19, #9]
100009ab0: 7f 3e 00 39 	strb	wzr, [x19, #15]
100009ab4: 7f d2 00 78 	sturh	wzr, [x19, #13]
100009ab8: 58 fd ff 17 	b	0x100009018 <__ZN5gimli4read4unit15parse_attribute17hb289118b3cfe8316E+0x6a0>
100009abc: c9 00 80 52 	mov	w9, #6
100009ac0: df fe ff 17 	b	0x10000963c <__ZN5gimli4read4unit15parse_attribute17hb289118b3cfe8316E+0xcc4>

0000000100009ac4 <__ZN5gimli4read4unit15skip_attributes17hc6e5a0c5b2bdea26E>:
100009ac4: ff c3 00 d1 	sub	sp, sp, #48
100009ac8: f6 57 01 a9 	stp	x22, x21, [sp, #16]
100009acc: f4 4f 02 a9 	stp	x20, x19, [sp, #32]
100009ad0: e4 17 00 b4 	cbz	x4, 0x100009dcc <__ZN5gimli4read4unit15skip_attributes17hc6e5a0c5b2bdea26E+0x308>
100009ad4: 05 00 80 d2 	mov	x5, #0
100009ad8: 68 10 04 8b 	add	x8, x3, x4, lsl #4
100009adc: 49 7c 08 53 	lsr	w9, w2, #8
100009ae0: 4a 3c 10 12 	and	w10, w2, #0xffff0000
100009ae4: 5f 81 40 71 	cmp	w10, #32, lsl #12       ; =131072
100009ae8: 4a 00 89 1a 	csel	w10, w2, w9, eq
100009aec: 24 18 40 a9 	ldp	x4, x6, [x1]
100009af0: ec e3 83 12 	mov	w12, #-7968
100009af4: 0d e0 83 12 	mov	w13, #-7937
100009af8: 6e 5e 14 50 	adr	x14, #166862
100009afc: 1f 20 03 d5 	nop
100009b00: d0 5c 14 50 	adr	x16, #166810
100009b04: 1f 20 03 d5 	nop
100009b08: 74 14 40 79 	ldrh	w20, [x3, #10]
100009b0c: 63 40 00 91 	add	x3, x3, #16
100009b10: f5 03 0b aa 	mov	x21, x11
100009b14: eb 03 15 aa 	mov	x11, x21
100009b18: 93 3e 00 12 	and	w19, w20, #0xffff
100009b1c: 67 06 00 51 	sub	w7, w19, #1
100009b20: ff ac 00 71 	cmp	w7, #43
100009b24: a8 00 00 54 	b.hi	0x100009b38 <__ZN5gimli4read4unit15skip_attributes17hc6e5a0c5b2bdea26E+0x74>
100009b28: f3 00 00 10 	adr	x19, #28
100009b2c: 15 6a 67 38 	ldrb	w21, [x16, x7]
100009b30: 73 0a 15 8b 	add	x19, x19, x21, lsl #2
100009b34: 60 02 1f d6 	br	x19
100009b38: 67 02 0c 0b 	add	w7, w19, w12
100009b3c: ff 08 00 71 	cmp	w7, #2
100009b40: c3 05 00 54 	b.lo	0x100009bf8 <__ZN5gimli4read4unit15skip_attributes17hc6e5a0c5b2bdea26E+0x134>
100009b44: a5 00 00 b4 	cbz	x5, 0x100009b58 <__ZN5gimli4read4unit15skip_attributes17hc6e5a0c5b2bdea26E+0x94>
100009b48: c6 00 05 eb 	subs	x6, x6, x5
100009b4c: a3 18 00 54 	b.lo	0x100009e60 <__ZN5gimli4read4unit15skip_attributes17hc6e5a0c5b2bdea26E+0x39c>
100009b50: 84 00 05 8b 	add	x4, x4, x5
100009b54: 24 18 00 a9 	stp	x4, x6, [x1]
100009b58: e7 03 04 aa 	mov	x7, x4
100009b5c: f3 03 06 aa 	mov	x19, x6
100009b60: 94 3e 00 12 	and	w20, w20, #0xffff
100009b64: 85 0e 00 51 	sub	w5, w20, #3
100009b68: bf 80 00 71 	cmp	w5, #32
100009b6c: 28 06 00 54 	b.hi	0x100009c30 <__ZN5gimli4read4unit15skip_attributes17hc6e5a0c5b2bdea26E+0x16c>
100009b70: 94 00 00 10 	adr	x20, #16
100009b74: d5 69 65 38 	ldrb	w21, [x14, x5]
100009b78: 94 0a 15 8b 	add	x20, x20, x21, lsl #2
100009b7c: 80 02 1f d6 	br	x20
100009b80: 93 10 00 b4 	cbz	x19, 0x100009d90 <__ZN5gimli4read4unit15skip_attributes17hc6e5a0c5b2bdea26E+0x2cc>
100009b84: 05 00 80 d2 	mov	x5, #0
100009b88: e4 03 07 aa 	mov	x4, x7
100009b8c: 96 14 40 38 	ldrb	w22, [x4], #1
100009b90: 66 06 00 d1 	sub	x6, x19, #1
100009b94: 24 18 00 a9 	stp	x4, x6, [x1]
100009b98: d5 1a 00 12 	and	w21, w22, #0x7f
100009b9c: f4 03 15 aa 	mov	x20, x21
100009ba0: b6 fb 3f 36 	tbz	w22, #7, 0x100009b14 <__ZN5gimli4read4unit15skip_attributes17hc6e5a0c5b2bdea26E+0x50>
100009ba4: 86 12 00 b4 	cbz	x6, 0x100009df4 <__ZN5gimli4read4unit15skip_attributes17hc6e5a0c5b2bdea26E+0x330>
100009ba8: 05 00 80 d2 	mov	x5, #0
100009bac: e4 08 00 91 	add	x4, x7, #2
100009bb0: 66 0a 00 d1 	sub	x6, x19, #2
100009bb4: 24 18 00 a9 	stp	x4, x6, [x1]
100009bb8: f6 04 40 39 	ldrb	w22, [x7, #1]
100009bbc: d4 1a 00 12 	and	w20, w22, #0x7f
100009bc0: 95 1a 19 33 	bfi	w21, w20, #7, #7
100009bc4: f4 03 15 aa 	mov	x20, x21
100009bc8: 76 fa 3f 36 	tbz	w22, #7, 0x100009b14 <__ZN5gimli4read4unit15skip_attributes17hc6e5a0c5b2bdea26E+0x50>
100009bcc: 46 11 00 b4 	cbz	x6, 0x100009df4 <__ZN5gimli4read4unit15skip_attributes17hc6e5a0c5b2bdea26E+0x330>
100009bd0: e4 0c 00 91 	add	x4, x7, #3
100009bd4: 66 0e 00 d1 	sub	x6, x19, #3
100009bd8: 24 18 00 a9 	stp	x4, x6, [x1]
100009bdc: e7 08 40 39 	ldrb	w7, [x7, #2]
100009be0: ff 0c 00 71 	cmp	w7, #3
100009be4: 08 11 00 54 	b.hi	0x100009e04 <__ZN5gimli4read4unit15skip_attributes17hc6e5a0c5b2bdea26E+0x340>
100009be8: 05 00 80 d2 	mov	x5, #0
100009bec: f5 1c 12 33 	bfi	w21, w7, #14, #8
100009bf0: f4 03 15 aa 	mov	x20, x21
100009bf4: c8 ff ff 17 	b	0x100009b14 <__ZN5gimli4read4unit15skip_attributes17hc6e5a0c5b2bdea26E+0x50>
100009bf8: e7 03 09 aa 	mov	x7, x9
100009bfc: 2f 00 00 14 	b	0x100009cb8 <__ZN5gimli4read4unit15skip_attributes17hc6e5a0c5b2bdea26E+0x1f4>
100009c00: 87 00 80 52 	mov	w7, #4
100009c04: 2d 00 00 14 	b	0x100009cb8 <__ZN5gimli4read4unit15skip_attributes17hc6e5a0c5b2bdea26E+0x1f4>
100009c08: 27 00 80 52 	mov	w7, #1
100009c0c: 2b 00 00 14 	b	0x100009cb8 <__ZN5gimli4read4unit15skip_attributes17hc6e5a0c5b2bdea26E+0x1f4>
100009c10: 47 00 80 52 	mov	w7, #2
100009c14: 29 00 00 14 	b	0x100009cb8 <__ZN5gimli4read4unit15skip_attributes17hc6e5a0c5b2bdea26E+0x1f4>
100009c18: 07 01 80 52 	mov	w7, #8
100009c1c: 27 00 00 14 	b	0x100009cb8 <__ZN5gimli4read4unit15skip_attributes17hc6e5a0c5b2bdea26E+0x1f4>
100009c20: 07 00 80 52 	mov	w7, #0
100009c24: 25 00 00 14 	b	0x100009cb8 <__ZN5gimli4read4unit15skip_attributes17hc6e5a0c5b2bdea26E+0x1f4>
100009c28: 67 00 80 52 	mov	w7, #3
100009c2c: 23 00 00 14 	b	0x100009cb8 <__ZN5gimli4read4unit15skip_attributes17hc6e5a0c5b2bdea26E+0x1f4>
100009c30: 84 02 0d 0b 	add	w4, w20, w13
100009c34: 9f 08 00 71 	cmp	w4, #2
100009c38: 82 0a 00 54 	b.hs	0x100009d88 <__ZN5gimli4read4unit15skip_attributes17hc6e5a0c5b2bdea26E+0x2c4>
100009c3c: b3 08 00 b4 	cbz	x19, 0x100009d50 <__ZN5gimli4read4unit15skip_attributes17hc6e5a0c5b2bdea26E+0x28c>
100009c40: e4 14 c0 38 	ldrsb	w4, [x7], #1
100009c44: 73 06 00 d1 	sub	x19, x19, #1
100009c48: 27 4c 00 a9 	stp	x7, x19, [x1]
100009c4c: 84 ff ff 37 	tbnz	w4, #31, 0x100009c3c <__ZN5gimli4read4unit15skip_attributes17hc6e5a0c5b2bdea26E+0x178>
100009c50: 05 00 80 d2 	mov	x5, #0
100009c54: e4 03 07 aa 	mov	x4, x7
100009c58: e6 03 13 aa 	mov	x6, x19
100009c5c: 19 00 00 14 	b	0x100009cc0 <__ZN5gimli4read4unit15skip_attributes17hc6e5a0c5b2bdea26E+0x1fc>
100009c60: 04 00 80 52 	mov	w4, #0
100009c64: 05 00 80 d2 	mov	x5, #0
100009c68: 06 00 00 14 	b	0x100009c80 <__ZN5gimli4read4unit15skip_attributes17hc6e5a0c5b2bdea26E+0x1bc>
100009c6c: d4 18 40 92 	and	x20, x6, #0x7f
100009c70: 94 22 c4 9a 	lsl	x20, x20, x4
100009c74: 85 02 05 aa 	orr	x5, x20, x5
100009c78: 84 1c 00 11 	add	w4, w4, #7
100009c7c: 26 05 38 36 	tbz	w6, #7, 0x100009d20 <__ZN5gimli4read4unit15skip_attributes17hc6e5a0c5b2bdea26E+0x25c>
100009c80: f3 08 00 b4 	cbz	x19, 0x100009d9c <__ZN5gimli4read4unit15skip_attributes17hc6e5a0c5b2bdea26E+0x2d8>
100009c84: e6 14 40 38 	ldrb	w6, [x7], #1
100009c88: 73 06 00 d1 	sub	x19, x19, #1
100009c8c: 27 4c 00 a9 	stp	x7, x19, [x1]
100009c90: 9f fc 00 71 	cmp	w4, #63
100009c94: c1 fe ff 54 	b.ne	0x100009c6c <__ZN5gimli4read4unit15skip_attributes17hc6e5a0c5b2bdea26E+0x1a8>
100009c98: df 08 00 71 	cmp	w6, #2
100009c9c: 83 fe ff 54 	b.lo	0x100009c6c <__ZN5gimli4read4unit15skip_attributes17hc6e5a0c5b2bdea26E+0x1a8>
100009ca0: 42 00 00 14 	b	0x100009da8 <__ZN5gimli4read4unit15skip_attributes17hc6e5a0c5b2bdea26E+0x2e4>
100009ca4: e7 03 02 aa 	mov	x7, x2
100009ca8: 04 00 00 14 	b	0x100009cb8 <__ZN5gimli4read4unit15skip_attributes17hc6e5a0c5b2bdea26E+0x1f4>
100009cac: e7 03 0a aa 	mov	x7, x10
100009cb0: 02 00 00 14 	b	0x100009cb8 <__ZN5gimli4read4unit15skip_attributes17hc6e5a0c5b2bdea26E+0x1f4>
100009cb4: 07 02 80 52 	mov	w7, #16
100009cb8: e7 1c 00 12 	and	w7, w7, #0xff
100009cbc: a5 00 07 8b 	add	x5, x5, x7
100009cc0: 7f 00 08 eb 	cmp	x3, x8
100009cc4: 21 f2 ff 54 	b.ne	0x100009b08 <__ZN5gimli4read4unit15skip_attributes17hc6e5a0c5b2bdea26E+0x44>
100009cc8: 28 00 00 14 	b	0x100009d68 <__ZN5gimli4read4unit15skip_attributes17hc6e5a0c5b2bdea26E+0x2a4>
100009ccc: c6 08 00 f1 	subs	x6, x6, #2
100009cd0: 83 0a 00 54 	b.lo	0x100009e20 <__ZN5gimli4read4unit15skip_attributes17hc6e5a0c5b2bdea26E+0x35c>
100009cd4: 85 24 40 78 	ldrh	w5, [x4], #2
100009cd8: 10 00 00 14 	b	0x100009d18 <__ZN5gimli4read4unit15skip_attributes17hc6e5a0c5b2bdea26E+0x254>
100009cdc: c6 10 00 f1 	subs	x6, x6, #4
100009ce0: c3 0a 00 54 	b.lo	0x100009e38 <__ZN5gimli4read4unit15skip_attributes17hc6e5a0c5b2bdea26E+0x374>
100009ce4: 85 44 40 b8 	ldr	w5, [x4], #4
100009ce8: 0c 00 00 14 	b	0x100009d18 <__ZN5gimli4read4unit15skip_attributes17hc6e5a0c5b2bdea26E+0x254>
100009cec: d3 07 00 b4 	cbz	x19, 0x100009de4 <__ZN5gimli4read4unit15skip_attributes17hc6e5a0c5b2bdea26E+0x320>
100009cf0: 06 00 80 d2 	mov	x6, #0
100009cf4: e4 68 66 38 	ldrb	w4, [x7, x6]
100009cf8: c4 01 00 34 	cbz	w4, 0x100009d30 <__ZN5gimli4read4unit15skip_attributes17hc6e5a0c5b2bdea26E+0x26c>
100009cfc: c6 04 00 91 	add	x6, x6, #1
100009d00: 7f 02 06 eb 	cmp	x19, x6
100009d04: 81 ff ff 54 	b.ne	0x100009cf4 <__ZN5gimli4read4unit15skip_attributes17hc6e5a0c5b2bdea26E+0x230>
100009d08: 37 00 00 14 	b	0x100009de4 <__ZN5gimli4read4unit15skip_attributes17hc6e5a0c5b2bdea26E+0x320>
100009d0c: 26 0b 00 b4 	cbz	x6, 0x100009e70 <__ZN5gimli4read4unit15skip_attributes17hc6e5a0c5b2bdea26E+0x3ac>
100009d10: 85 14 40 38 	ldrb	w5, [x4], #1
100009d14: c6 04 00 d1 	sub	x6, x6, #1
100009d18: 24 18 00 a9 	stp	x4, x6, [x1]
100009d1c: e9 ff ff 17 	b	0x100009cc0 <__ZN5gimli4read4unit15skip_attributes17hc6e5a0c5b2bdea26E+0x1fc>
100009d20: e4 03 07 aa 	mov	x4, x7
100009d24: e6 03 13 aa 	mov	x6, x19
100009d28: ef 03 05 aa 	mov	x15, x5
100009d2c: e5 ff ff 17 	b	0x100009cc0 <__ZN5gimli4read4unit15skip_attributes17hc6e5a0c5b2bdea26E+0x1fc>
100009d30: 05 00 80 d2 	mov	x5, #0
100009d34: f1 00 06 8b 	add	x17, x7, x6
100009d38: 24 06 00 91 	add	x4, x17, #1
100009d3c: f1 03 26 aa 	mvn	x17, x6
100009d40: 66 02 11 8b 	add	x6, x19, x17
100009d44: 24 18 00 a9 	stp	x4, x6, [x1]
100009d48: f1 03 07 aa 	mov	x17, x7
100009d4c: dd ff ff 17 	b	0x100009cc0 <__ZN5gimli4read4unit15skip_attributes17hc6e5a0c5b2bdea26E+0x1fc>
100009d50: 68 02 80 52 	mov	w8, #19
100009d54: 08 00 00 79 	strh	w8, [x0]
100009d58: 1f 0c 00 79 	strh	wzr, [x0, #6]
100009d5c: 1f 20 00 b8 	stur	wzr, [x0, #2]
100009d60: 07 04 00 f9 	str	x7, [x0, #8]
100009d64: 1c 00 00 14 	b	0x100009dd4 <__ZN5gimli4read4unit15skip_attributes17hc6e5a0c5b2bdea26E+0x310>
100009d68: 25 03 00 b4 	cbz	x5, 0x100009dcc <__ZN5gimli4read4unit15skip_attributes17hc6e5a0c5b2bdea26E+0x308>
100009d6c: 28 24 40 a9 	ldp	x8, x9, [x1]
100009d70: 29 01 05 eb 	subs	x9, x9, x5
100009d74: 82 02 00 54 	b.hs	0x100009dc4 <__ZN5gimli4read4unit15skip_attributes17hc6e5a0c5b2bdea26E+0x300>
100009d78: 69 02 80 52 	mov	w9, #19
100009d7c: 09 00 00 39 	strb	w9, [x0]
100009d80: 08 04 00 f9 	str	x8, [x0, #8]
100009d84: 14 00 00 14 	b	0x100009dd4 <__ZN5gimli4read4unit15skip_attributes17hc6e5a0c5b2bdea26E+0x310>
100009d88: 88 01 80 52 	mov	w8, #12
100009d8c: 11 00 00 14 	b	0x100009dd0 <__ZN5gimli4read4unit15skip_attributes17hc6e5a0c5b2bdea26E+0x30c>
100009d90: 0b 00 80 52 	mov	w11, #0
100009d94: 68 02 80 52 	mov	w8, #19
100009d98: 1c 00 00 14 	b	0x100009e08 <__ZN5gimli4read4unit15skip_attributes17hc6e5a0c5b2bdea26E+0x344>
100009d9c: 68 02 80 52 	mov	w8, #19
100009da0: ef 03 07 aa 	mov	x15, x7
100009da4: 02 00 00 14 	b	0x100009dac <__ZN5gimli4read4unit15skip_attributes17hc6e5a0c5b2bdea26E+0x2e8>
100009da8: c8 00 80 52 	mov	w8, #6
100009dac: 08 00 00 39 	strb	w8, [x0]
100009db0: 1f 04 00 39 	strb	wzr, [x0, #1]
100009db4: 1f 0c 00 79 	strh	wzr, [x0, #6]
100009db8: 1f 20 00 b8 	stur	wzr, [x0, #2]
100009dbc: 0f 04 00 f9 	str	x15, [x0, #8]
100009dc0: 05 00 00 14 	b	0x100009dd4 <__ZN5gimli4read4unit15skip_attributes17hc6e5a0c5b2bdea26E+0x310>
100009dc4: 08 01 05 8b 	add	x8, x8, x5
100009dc8: 28 24 00 a9 	stp	x8, x9, [x1]
100009dcc: 68 09 80 52 	mov	w8, #75
100009dd0: 08 00 00 39 	strb	w8, [x0]
100009dd4: f4 4f 42 a9 	ldp	x20, x19, [sp, #32]
100009dd8: f6 57 41 a9 	ldp	x22, x21, [sp, #16]
100009ddc: ff c3 00 91 	add	sp, sp, #48
100009de0: c0 03 5f d6 	ret
100009de4: 68 02 80 d2 	mov	x8, #19
100009de8: 11 1d 40 b3 	bfxil	x17, x8, #0, #8
100009dec: 11 1c 00 a9 	stp	x17, x7, [x0]
100009df0: f9 ff ff 17 	b	0x100009dd4 <__ZN5gimli4read4unit15skip_attributes17hc6e5a0c5b2bdea26E+0x310>
100009df4: 0b 00 80 52 	mov	w11, #0
100009df8: 68 02 80 52 	mov	w8, #19
100009dfc: e7 03 04 aa 	mov	x7, x4
